Raw format

Disassembly:

000000:  001000000024                           ;" (   4"
000001:  520000000002  hllo     0, 2            ;"J    ""
000002:  520001000002  hllo     0, 2(1)         ;"J !  ""
000003:  520400000004  hllo     10, 4           ;"J$   $"
000004:  520401000004  hllo     10, 4(1)        ;"J$!  $"
000005:  520402000006  hllo     10, 6(2)        ;"J$"  &"
000006:  520403000006  hllo     10, 6(3)        ;"J$#  &"
000007:  520404000010  hllo     10, 10(4)       ;"J$$  ("
000010:  520405000010  hllo     10, 10(5)       ;"J$%  ("
000011:  520406000012  hllo     10, 12(6)       ;"J$&  *"
000012:  520407000012  hllo     10, 12(7)       ;"J$'  *"
000013:  520410000014  hllo     10, 14(10)      ;"J$(  ,"
000014:  520411000014  hllo     10, 14(11)      ;"J$)  ,"
000015:  520412000016  hllo     10, 16(12)      ;"J$*  ."
000016:  520413000016  hllo     10, 16(13)      ;"J$+  ."
000017:  520414000020  hllo     10, 20(14)      ;"J$,  0"
000020:  520415000020  hllo     10, 20(15)      ;"J$-  0"
000021:  520416000022  hllo     10, 22(16)      ;"J$.  2"
000022:  520417000022  hllo     10, 22(17)      ;"J$/  2"
000023:  520420000024  hllo     10, @24         ;"J$0  4"
000024:  520421000024  hllo     10, @24(1)      ;"J$1  4"
000025:  254000400010  jrst     400010          ;"5@ @ ("
000026:  000000000000                           ;"      "
000027:  000000000000                           ;"      "
000030:  000000000000                           ;"      "
000031:  000000000000                           ;"      "
000032:  000000000000                           ;"      "
000033:  000000000000                           ;"      "
000034:  000000000000                           ;"      "
000035:  000000000000                           ;"      "
000036:  000000000000                           ;"      "
000037:  000000000000                           ;"      "
000040:  000000000000                           ;"      "
000041:  000000000000                           ;"      "
000042:  000000000000                           ;"      "
000043:  000000000000                           ;"      "
000044:  000000000000                           ;"      "
000045:  000000000000                           ;"      "
000046:  000000000000                           ;"      "
000047:  000000000000                           ;"      "
000050:  000000000000                           ;"      "
000051:  000000000000                           ;"      "
000052:  000000000000                           ;"      "
000053:  000000000000                           ;"      "
000054:  000000000000                           ;"      "
000055:  000000000000                           ;"      "
000056:  000000000000                           ;"      "
000057:  000000000000                           ;"      "
000060:  000000000000                           ;"      "
000061:  000000000000                           ;"      "
000062:  000000000000                           ;"      "
000063:  000000000000                           ;"      "
000064:  000000000000                           ;"      "
000065:  000000000000                           ;"      "
000066:  000000000000                           ;"      "
000067:  000000000000                           ;"      "
000070:  000000000000                           ;"      "
000071:  000000000000                           ;"      "
000072:  000000000000                           ;"      "
000073:  000000000000                           ;"      "
000074:  000000000000                           ;"      "
000075:  000000000000                           ;"      "
000076:  000000000000                           ;"      "
000077:  000000000000                           ;"      "
000100:  000000000000                           ;"      "
000101:  000000000000                           ;"      "
000102:  000000000000                           ;"      "
000103:  000000000000                           ;"      "
000104:  000000000000                           ;"      "
000105:  000000000000                           ;"      "
000106:  000000000000                           ;"      "
000107:  000000000000                           ;"      "
000110:  000000000000                           ;"      "
000111:  000000000000                           ;"      "
000112:  000000000000                           ;"      "
000113:  000000000000                           ;"      "
000114:  000000000000                           ;"      "
000115:  000000000000                           ;"      "
000116:  000000000000                           ;"      "
000117:  000000000000                           ;"      "
000120:  000000000000                           ;"      "
000121:  000000000000                           ;"      "
000122:  000000000000                           ;"      "
000123:  000000000000                           ;"      "
000124:  000000000000                           ;"      "
000125:  000000000000                           ;"      "
000126:  000000000000                           ;"      "
000127:  000000000000                           ;"      "
000130:  000000000000                           ;"      "
000131:  000000000000                           ;"      "
000132:  000000000000                           ;"      "
000133:  000000000000                           ;"      "
000134:  000000000000                           ;"      "
000135:  000000000000                           ;"      "
000136:  000000000000                           ;"      "
000137:  000000000000                           ;"      "
000140:  000000000000                           ;"      "
000141:  000000000000                           ;"      "
000142:  000000000000                           ;"      "
000143:  000000000000                           ;"      "
000144:  000000000000                           ;"      "
000145:  000000000000                           ;"      "
000146:  000000000000                           ;"      "
000147:  000000000000                           ;"      "
000150:  000000000000                           ;"      "
000151:  000000000000                           ;"      "
000152:  000000000000                           ;"      "
000153:  000000000000                           ;"      "
000154:  000000000000                           ;"      "
000155:  000000000000                           ;"      "
000156:  000000000000                           ;"      "
000157:  000000000000                           ;"      "
000160:  000000000000                           ;"      "
000161:  000000000000                           ;"      "
000162:  000000000000                           ;"      "
000163:  000000000000                           ;"      "
000164:  000000000000                           ;"      "
000165:  000000000000                           ;"      "
000166:  000000000000                           ;"      "
000167:  000000000000                           ;"      "
000170:  000000000000                           ;"      "
000171:  000000000000                           ;"      "
000172:  000000000000                           ;"      "
000173:  000000000000                           ;"      "
000174:  000000000000                           ;"      "
000175:  000000000000                           ;"      "
000176:  000000000000                           ;"      "
000177:  000000000000                           ;"      "
000200:  000000000000                           ;"      "
000201:  000000000000                           ;"      "
000202:  000000000000                           ;"      "
000203:  000000000000                           ;"      "
000204:  000000000000                           ;"      "
000205:  000000000000                           ;"      "
000206:  000000000000                           ;"      "
000207:  000000000000                           ;"      "
000210:  000000000000                           ;"      "
000211:  000000000000                           ;"      "
000212:  000000000000                           ;"      "
000213:  000000000000                           ;"      "
000214:  000000000000                           ;"      "
000215:  000000000000                           ;"      "
000216:  000000000000                           ;"      "
000217:  000000000000                           ;"      "
000220:  000000000000                           ;"      "
000221:  000000000000                           ;"      "
000222:  000000000000                           ;"      "
000223:  000000000000                           ;"      "
000224:  000000000000                           ;"      "
000225:  000000000000                           ;"      "
000226:  000000000000                           ;"      "
000227:  000000000000                           ;"      "
000230:  000000000000                           ;"      "
000231:  000000000000                           ;"      "
000232:  000000000000                           ;"      "
000233:  000000000000                           ;"      "
000234:  000000000000                           ;"      "
000235:  000000000000                           ;"      "
000236:  000000000000                           ;"      "
000237:  000000000000                           ;"      "
000240:  000000000000                           ;"      "
000241:  000000000000                           ;"      "
000242:  000000000000                           ;"      "
000243:  000000000000                           ;"      "
000244:  000000000000                           ;"      "
000245:  000000000000                           ;"      "
000246:  000000000000                           ;"      "
000247:  000000000000                           ;"      "
000250:  000000000000                           ;"      "
000251:  000000000000                           ;"      "
000252:  000000000000                           ;"      "
000253:  000000000000                           ;"      "
000254:  000000000000                           ;"      "
000255:  000000000000                           ;"      "
000256:  000000000000                           ;"      "
000257:  000000000000                           ;"      "
000260:  000000000000                           ;"      "
000261:  000000000000                           ;"      "
000262:  000000000000                           ;"      "
000263:  000000000000                           ;"      "
000264:  000000000000                           ;"      "
000265:  000000000000                           ;"      "
000266:  000000000000                           ;"      "
000267:  000000000000                           ;"      "
000270:  000000000000                           ;"      "
000271:  000000000000                           ;"      "
000272:  000000000000                           ;"      "
000273:  000000000000                           ;"      "
000274:  000000000000                           ;"      "
000275:  000000000000                           ;"      "
000276:  000000000000                           ;"      "
000277:  000000000000                           ;"      "
000300:  000000000000                           ;"      "
000301:  000000000000                           ;"      "
000302:  000000000000                           ;"      "
000303:  000000000000                           ;"      "
000304:  000000000000                           ;"      "
000305:  000000000000                           ;"      "
000306:  000000000000                           ;"      "
000307:  000000000000                           ;"      "
000310:  000000000000                           ;"      "
000311:  000000000000                           ;"      "
000312:  000000000000                           ;"      "
000313:  000000000000                           ;"      "
000314:  000000000000                           ;"      "
000315:  000000000000                           ;"      "
000316:  000000000000                           ;"      "
000317:  000000000000                           ;"      "
000320:  000000000000                           ;"      "
000321:  000000000000                           ;"      "
000322:  000000000000                           ;"      "
000323:  000000000000                           ;"      "
000324:  000000000000                           ;"      "
000325:  000000000000                           ;"      "
000326:  000000000000                           ;"      "
000327:  000000000000                           ;"      "
000330:  000000000000                           ;"      "
000331:  000000000000                           ;"      "
000332:  000000000000                           ;"      "
000333:  000000000000                           ;"      "
000334:  000000000000                           ;"      "
000335:  000000000000                           ;"      "
000336:  000000000000                           ;"      "
000337:  000000000000                           ;"      "
000340:  000000000000                           ;"      "
000341:  000000000000                           ;"      "
000342:  000000000000                           ;"      "
000343:  000000000000                           ;"      "
000344:  000000000000                           ;"      "
000345:  000000000000                           ;"      "
000346:  000000000000                           ;"      "
000347:  000000000000                           ;"      "
000350:  000000000000                           ;"      "
000351:  000000000000                           ;"      "
000352:  000000000000                           ;"      "
000353:  000000000000                           ;"      "
000354:  000000000000                           ;"      "
000355:  000000000000                           ;"      "
000356:  000000000000                           ;"      "
000357:  000000000000                           ;"      "
000360:  000000000000                           ;"      "
000361:  000000000000                           ;"      "
000362:  000000000000                           ;"      "
000363:  000000000000                           ;"      "
000364:  000000000000                           ;"      "
000365:  000000000000                           ;"      "
000366:  000000000000                           ;"      "
000367:  000000000000                           ;"      "
000370:  000000000000                           ;"      "
000371:  000000000000                           ;"      "
000372:  000000000000                           ;"      "
000373:  000000000000                           ;"      "
000374:  000000000000                           ;"      "
000375:  000000000000                           ;"      "
000376:  000000000000                           ;"      "
000377:  000000000000                           ;"      "
000400:  000000000000                           ;"      "
000401:  000000000000                           ;"      "
000402:  000000000000                           ;"      "
000403:  000000000000                           ;"      "
000404:  000000000000                           ;"      "
000405:  000000000000                           ;"      "
000406:  000000000000                           ;"      "
000407:  000000000000                           ;"      "
000410:  000000000000                           ;"      "
000411:  000000000000                           ;"      "
000412:  000000000000                           ;"      "
000413:  000000000000                           ;"      "
000414:  000000000000                           ;"      "
000415:  000000000000                           ;"      "
000416:  000000000000                           ;"      "
000417:  000000000000                           ;"      "
000420:  000000000000                           ;"      "
000421:  000000000000                           ;"      "
000422:  000000000000                           ;"      "
000423:  000000000000                           ;"      "
000424:  000000000000                           ;"      "
000425:  000000000000                           ;"      "
000426:  000000000000                           ;"      "
000427:  000000000000                           ;"      "
000430:  000000000000                           ;"      "
000431:  000000000000                           ;"      "
000432:  000000000000                           ;"      "
000433:  000000000000                           ;"      "
000434:  000000000000                           ;"      "
000435:  000000000000                           ;"      "
000436:  000000000000                           ;"      "
000437:  000000000000                           ;"      "
000440:  000000000000                           ;"      "
000441:  000000000000                           ;"      "
000442:  000000000000                           ;"      "
000443:  000000000000                           ;"      "
000444:  000000000000                           ;"      "
000445:  000000000000                           ;"      "
000446:  000000000000                           ;"      "
000447:  000000000000                           ;"      "
000450:  000000000000                           ;"      "
000451:  000000000000                           ;"      "
000452:  000000000000                           ;"      "
000453:  000000000000                           ;"      "
000454:  000000000000                           ;"      "
000455:  000000000000                           ;"      "
000456:  000000000000                           ;"      "
000457:  000000000000                           ;"      "
000460:  000000000000                           ;"      "
000461:  000000000000                           ;"      "
000462:  000000000000                           ;"      "
000463:  000000000000                           ;"      "
000464:  000000000000                           ;"      "
000465:  000000000000                           ;"      "
000466:  000000000000                           ;"      "
000467:  000000000000                           ;"      "
000470:  000000000000                           ;"      "
000471:  000000000000                           ;"      "
000472:  000000000000                           ;"      "
000473:  000000000000                           ;"      "
000474:  000000000000                           ;"      "
000475:  000000000000                           ;"      "
000476:  000000000000                           ;"      "
000477:  000000000000                           ;"      "
000500:  000000000000                           ;"      "
000501:  000000000000                           ;"      "
000502:  000000000000                           ;"      "
000503:  000000000000                           ;"      "
000504:  000000000000                           ;"      "
000505:  000000000000                           ;"      "
000506:  000000000000                           ;"      "
000507:  000000000000                           ;"      "
000510:  000000000000                           ;"      "
000511:  000000000000                           ;"      "
000512:  000000000000                           ;"      "
000513:  000000000000                           ;"      "
000514:  000000000000                           ;"      "
000515:  000000000000                           ;"      "
000516:  000000000000                           ;"      "
000517:  000000000000                           ;"      "
000520:  000000000000                           ;"      "
000521:  000000000000                           ;"      "
000522:  000000000000                           ;"      "
000523:  000000000000                           ;"      "
000524:  000000000000                           ;"      "
000525:  000000000000                           ;"      "
000526:  000000000000                           ;"      "
000527:  000000000000                           ;"      "
000530:  000000000000                           ;"      "
000531:  000000000000                           ;"      "
000532:  000000000000                           ;"      "
000533:  000000000000                           ;"      "
000534:  000000000000                           ;"      "
000535:  000000000000                           ;"      "
000536:  000000000000                           ;"      "
000537:  000000000000                           ;"      "
000540:  000000000000                           ;"      "
000541:  000000000000                           ;"      "
000542:  000000000000                           ;"      "
000543:  000000000000                           ;"      "
000544:  000000000000                           ;"      "
000545:  000000000000                           ;"      "
000546:  000000000000                           ;"      "
000547:  000000000000                           ;"      "
000550:  000000000000                           ;"      "
000551:  000000000000                           ;"      "
000552:  000000000000                           ;"      "
000553:  000000000000                           ;"      "
000554:  000000000000                           ;"      "
000555:  000000000000                           ;"      "
000556:  000000000000                           ;"      "
000557:  000000000000                           ;"      "
000560:  000000000000                           ;"      "
000561:  000000000000                           ;"      "
000562:  000000000000                           ;"      "
000563:  000000000000                           ;"      "
000564:  000000000000                           ;"      "
000565:  000000000000                           ;"      "
000566:  000000000000                           ;"      "
000567:  000000000000                           ;"      "
000570:  000000000000                           ;"      "
000571:  000000000000                           ;"      "
000572:  000000000000                           ;"      "
000573:  000000000000                           ;"      "
000574:  000000000116                           ;"    !."
000575:  000000000002                           ;"     ""
000576:  000000000000                           ;"      "
000577:  777777777776  conso    774, @777776(17);"_____^"
000600:  777777777776  conso    774, @777776(17);"_____^"
000601:  000000000000                           ;"      "
000602:  622200000000  trze     4, 0            ;"R2    " "dH\0\0\0"
000603:  000000000000                           ;"      "
000604:  000000000000                           ;"      "
000605:  000000000000                           ;"      "
000606:  000000000000                           ;"      "
000607:  000000000000                           ;"      "
000610:  000000000000                           ;"      "
000611:  000000000000                           ;"      "
000612:  000000000000                           ;"      "
000613:  000000000000                           ;"      "
000614:  000000000000                           ;"      "
000615:  000000000000                           ;"      "
000616:  000000000000                           ;"      "
000617:  000000000000                           ;"      "
000620:  000000000000                           ;"      "
000621:  000000000000                           ;"      "
000622:  000000000000                           ;"      "
000623:  000000000000                           ;"      "
000624:  000000000000                           ;"      "
000625:  000000000000                           ;"      "
000626:  000000000000                           ;"      "
000627:  000000000000                           ;"      "
000630:  000000000000                           ;"      "
000631:  000000000000                           ;"      "
000632:  000000000000                           ;"      "
000633:  000000000000                           ;"      "
000634:  000000000000                           ;"      "
000635:  000000000000                           ;"      "
000636:  000000000000                           ;"      "
000637:  000000000000                           ;"      "
000640:  000000000000                           ;"      "
000641:  000000000000                           ;"      "
000642:  000000000000                           ;"      "
000643:  000000000000                           ;"      "
000644:  000000000000                           ;"      "
000645:  000000000000                           ;"      "
000646:  000000000000                           ;"      "
000647:  000000000000                           ;"      "
000650:  000000000000                           ;"      "
000651:  000000000000                           ;"      "
000652:  000000000000                           ;"      "
000653:  000000000000                           ;"      "
000654:  000000000000                           ;"      "
000655:  000000000000                           ;"      "
000656:  000000000000                           ;"      "
000657:  000000000000                           ;"      "
000660:  000000000000                           ;"      "
000661:  000000000000                           ;"      "
000662:  000000000000                           ;"      "
000663:  000000000000                           ;"      "
000664:  000000000000                           ;"      "
000665:  000000000000                           ;"      "
000666:  000000000000                           ;"      "
000667:  000000000000                           ;"      "
000670:  000000000000                           ;"      "
000671:  000000000000                           ;"      "
000672:  000000000000                           ;"      "
000673:  000000000000                           ;"      "
000674:  000000000000                           ;"      "
000675:  000000000000                           ;"      "
000676:  000000000000                           ;"      "
000677:  000000000000                           ;"      "
000700:  000000000000                           ;"      "
000701:  000000000000                           ;"      "
000702:  000000000000                           ;"      "
000703:  000000000000                           ;"      "
000704:  000000000000                           ;"      "
000705:  000000000000                           ;"      "
000706:  000000000000                           ;"      "
000707:  000000000000                           ;"      "
000710:  000000000000                           ;"      "
000711:  000000000000                           ;"      "
000712:  000000000000                           ;"      "
000713:  000000000000                           ;"      "
000714:  000000000000                           ;"      "
000715:  000000000000                           ;"      "
000716:  000000000000                           ;"      "
000717:  000000000000                           ;"      "
000720:  000000000000                           ;"      "
000721:  000000000000                           ;"      "
000722:  000000000000                           ;"      "
000723:  000000000000                           ;"      "
000724:  000000000000                           ;"      "
000725:  000000000000                           ;"      "
000726:  000000000000                           ;"      "
000727:  000000000000                           ;"      "
000730:  000000000000                           ;"      "
000731:  000000000000                           ;"      "
000732:  000000000000                           ;"      "
000733:  000000000000                           ;"      "
000734:  000000000000                           ;"      "
000735:  000000000000                           ;"      "
000736:  000000000000                           ;"      "
000737:  000000000000                           ;"      "
000740:  000000000000                           ;"      "
000741:  000000000000                           ;"      "
000742:  000000000000                           ;"      "
000743:  000000000000                           ;"      "
000744:  000000000000                           ;"      "
000745:  000000000000                           ;"      "
000746:  000000000000                           ;"      "
000747:  000000000000                           ;"      "
000750:  000000000000                           ;"      "
000751:  000000000000                           ;"      "
000752:  000000000000                           ;"      "
000753:  000000000000                           ;"      "
000754:  000000000000                           ;"      "
000755:  000000000000                           ;"      "
000756:  000000000000                           ;"      "
000757:  000000000000                           ;"      "
000760:  000000000000                           ;"      "
000761:  000000000000                           ;"      "
000762:  000000000000                           ;"      "
000763:  000000000000                           ;"      "
000764:  000000000000                           ;"      "
000765:  000000000000                           ;"      "
000766:  000000000000                           ;"      "
000767:  000000000000                           ;"      "
000770:  000000000000                           ;"      "
000771:  000000000000                           ;"      "
000772:  000000000000                           ;"      "
000773:  000000000000                           ;"      "
000774:  000000000000                           ;"      "
000775:  000000000000                           ;"      "
000776:  000000000000                           ;"      "
000777:  000000000000                           ;"      "
001000:  000000000000                           ;"      "
001001:  000000000000                           ;"      "
001002:  000000000000                           ;"      "
001003:  000000000000                           ;"      "
001004:  000000000000                           ;"      "
001005:  000000000000                           ;"      "
001006:  000000000000                           ;"      "
001007:  000000000000                           ;"      "
001010:  000000000000                           ;"      "
001011:  000000000000                           ;"      "
001012:  000000000000                           ;"      "
001013:  000000000000                           ;"      "
001014:  000000000000                           ;"      "
001015:  000000000000                           ;"      "
001016:  000000000000                           ;"      "
001017:  000000000000                           ;"      "
001020:  000000000000                           ;"      "
001021:  000000000000                           ;"      "
001022:  000000000000                           ;"      "
001023:  000000000000                           ;"      "
001024:  000000000000                           ;"      "
001025:  000000000000                           ;"      "
001026:  000000000000                           ;"      "
001027:  000000000000                           ;"      "
001030:  000000000000                           ;"      "
001031:  000000000000                           ;"      "
001032:  000000000000                           ;"      "
001033:  000000000000                           ;"      "
001034:  000000000000                           ;"      "
001035:  000000000000                           ;"      "
001036:  000000000000                           ;"      "
001037:  000000000000                           ;"      "
001040:  000000000000                           ;"      "
001041:  000000000000                           ;"      "
001042:  000000000000                           ;"      "
001043:  000000000000                           ;"      "
001044:  000000000000                           ;"      "
001045:  000000000000                           ;"      "
001046:  000000000000                           ;"      "
001047:  000000000000                           ;"      "
001050:  000000000000                           ;"      "
001051:  000000000000                           ;"      "
001052:  000000000000                           ;"      "
001053:  000000000000                           ;"      "
001054:  000000000000                           ;"      "
001055:  000000000000                           ;"      "
001056:  000000000000                           ;"      "
001057:  000000000000                           ;"      "
001060:  000000000000                           ;"      "
001061:  000000000000                           ;"      "
001062:  000000000000                           ;"      "
001063:  000000000000                           ;"      "
001064:  000000000000                           ;"      "
001065:  000000000000                           ;"      "
001066:  000000000000                           ;"      "
001067:  000000000000                           ;"      "
001070:  000000000000                           ;"      "
001071:  000000000000                           ;"      "
001072:  000000000000                           ;"      "
001073:  000000000000                           ;"      "
001074:  000000000000                           ;"      "
001075:  000000000000                           ;"      "
001076:  000000000000                           ;"      "
001077:  000000000000                           ;"      "
001100:  000000000000                           ;"      "
001101:  000000000000                           ;"      "
001102:  000000000000                           ;"      "
001103:  000000000000                           ;"      "
001104:  000000000000                           ;"      "
001105:  000000000000                           ;"      "
001106:  000000000000                           ;"      "
001107:  000000000000                           ;"      "
001110:  000000000000                           ;"      "
001111:  000000000000                           ;"      "
001112:  000000000000                           ;"      "
001113:  000000000000                           ;"      "
001114:  000000000000                           ;"      "
001115:  000000000000                           ;"      "
001116:  000000000000                           ;"      "
001117:  000000000000                           ;"      "
001120:  000000000000                           ;"      "
001121:  000000000000                           ;"      "
001122:  000000000000                           ;"      "
001123:  000000000000                           ;"      "
001124:  000000000000                           ;"      "
001125:  000000000000                           ;"      "
001126:  000000000000                           ;"      "
001127:  000000000000                           ;"      "
001130:  000000000000                           ;"      "
001131:  000000000000                           ;"      "
001132:  000000000000                           ;"      "
001133:  000000000000                           ;"      "
001134:  000000000000                           ;"      "
001135:  000000000000                           ;"      "
001136:  000000000000                           ;"      "
001137:  000000000000                           ;"      "
001140:  000000000000                           ;"      "
001141:  000000000000                           ;"      "
001142:  000000000000                           ;"      "
001143:  000000000000                           ;"      "
001144:  000000000000                           ;"      "
001145:  000000000000                           ;"      "
001146:  000000000000                           ;"      "
001147:  000000000000                           ;"      "
001150:  000000000000                           ;"      "
001151:  000000000000                           ;"      "
001152:  000000000000                           ;"      "
001153:  000000000000                           ;"      "
001154:  000000000000                           ;"      "
001155:  000000000000                           ;"      "
001156:  000000000000                           ;"      "
001157:  000000000000                           ;"      "
001160:  000000000000                           ;"      "
001161:  000000000000                           ;"      "
001162:  000000000000                           ;"      "
001163:  000000000000                           ;"      "
001164:  000000000000                           ;"      "
001165:  000000000000                           ;"      "
001166:  000000000000                           ;"      "
001167:  000000000000                           ;"      "
001170:  000000000000                           ;"      "
001171:  000000000000                           ;"      "
001172:  000000000000                           ;"      "
001173:  000000000000                           ;"      "
001174:  000000000000                           ;"      "
001175:  000000000000                           ;"      "
001176:  000000000000                           ;"      "
001177:  000000000000                           ;"      "
001200:  000000000000                           ;"      "
001201:  000000000000                           ;"      "
001202:  000000000000                           ;"      "
001203:  000000000000                           ;"      "
001204:  000000000000                           ;"      "
001205:  000000000000                           ;"      "
001206:  000000000000                           ;"      "
001207:  000000000000                           ;"      "
001210:  000000000000                           ;"      "
001211:  000000000000                           ;"      "
001212:  000000000000                           ;"      "
001213:  000000000000                           ;"      "
001214:  000000000000                           ;"      "
001215:  000000000000                           ;"      "
001216:  000000000000                           ;"      "
001217:  000000000000                           ;"      "
001220:  000000000000                           ;"      "
001221:  000000000000                           ;"      "
001222:  000000000000                           ;"      "
001223:  000000000000                           ;"      "
001224:  000000000000                           ;"      "
001225:  000000000000                           ;"      "
001226:  000000000000                           ;"      "
001227:  000000000000                           ;"      "
001230:  000000000000                           ;"      "
001231:  000000000000                           ;"      "
001232:  000000000000                           ;"      "
001233:  000000000000                           ;"      "
001234:  000000000000                           ;"      "
001235:  000000000000                           ;"      "
001236:  000000000000                           ;"      "
001237:  000000000000                           ;"      "
001240:  000000000000                           ;"      "
001241:  000000000000                           ;"      "
001242:  000000000000                           ;"      "
001243:  000000000000                           ;"      "
001244:  000000000000                           ;"      "
001245:  000000000000                           ;"      "
001246:  000000000000                           ;"      "
001247:  000000000000                           ;"      "
001250:  000000000000                           ;"      "
001251:  000000000000                           ;"      "
001252:  000000000000                           ;"      "
001253:  000000000000                           ;"      "
001254:  000000000000                           ;"      "
001255:  000000000000                           ;"      "
001256:  000000000000                           ;"      "
001257:  000000000000                           ;"      "
001260:  000000000000                           ;"      "
001261:  000000000000                           ;"      "
001262:  000000000000                           ;"      "
001263:  000000000000                           ;"      "
001264:  000000000000                           ;"      "
001265:  000000000000                           ;"      "
001266:  000000000000                           ;"      "
001267:  000000000000                           ;"      "
001270:  000000000000                           ;"      "
001271:  000000000000                           ;"      "
001272:  000000000000                           ;"      "
001273:  000000000000                           ;"      "
001274:  000000000000                           ;"      "
001275:  000000000000                           ;"      "
001276:  000000000000                           ;"      "
001277:  000000000000                           ;"      "
001300:  000000000000                           ;"      "
001301:  000000000000                           ;"      "
001302:  000000000000                           ;"      "
001303:  000000000000                           ;"      "
001304:  000000000000                           ;"      "
001305:  000000000000                           ;"      "
001306:  000000000000                           ;"      "
001307:  000000000000                           ;"      "
001310:  000000000000                           ;"      "
001311:  000000000000                           ;"      "
001312:  000000000000                           ;"      "
001313:  000000000000                           ;"      "
001314:  000000000000                           ;"      "
001315:  000000000000                           ;"      "
001316:  000000000000                           ;"      "
001317:  000000000000                           ;"      "
001320:  000000000000                           ;"      "
001321:  000000000000                           ;"      "
001322:  000000000000                           ;"      "
001323:  000000000000                           ;"      "
001324:  000000000000                           ;"      "
001325:  000000000000                           ;"      "
001326:  000000000000                           ;"      "
001327:  000000000000                           ;"      "
001330:  000000000000                           ;"      "
001331:  000000000000                           ;"      "
001332:  000000000000                           ;"      "
001333:  000000000000                           ;"      "
001334:  000000000000                           ;"      "
001335:  000000000000                           ;"      "
001336:  000000000000                           ;"      "
001337:  000000000000                           ;"      "
001340:  000000000000                           ;"      "
001341:  000000000000                           ;"      "
001342:  000000000000                           ;"      "
001343:  000000000000                           ;"      "
001344:  000000000000                           ;"      "
001345:  000000000000                           ;"      "
001346:  000000000000                           ;"      "
001347:  000000000000                           ;"      "
001350:  000000000000                           ;"      "
001351:  000000000000                           ;"      "
001352:  000000000000                           ;"      "
001353:  000000000000                           ;"      "
001354:  000000000000                           ;"      "
001355:  000000000000                           ;"      "
001356:  000000000000                           ;"      "
001357:  000000000000                           ;"      "
001360:  000000000000                           ;"      "
001361:  000000000000                           ;"      "
001362:  000000000000                           ;"      "
001363:  000000000000                           ;"      "
001364:  000000000000                           ;"      "
001365:  000000000000                           ;"      "
001366:  000000000000                           ;"      "
001367:  000000000000                           ;"      "
001370:  000000000000                           ;"      "
001371:  000000000000                           ;"      "
001372:  000000000000                           ;"      "
001373:  000000000000                           ;"      "
001374:  000000000000                           ;"      "
001375:  000000000000                           ;"      "
001376:  000000000000                           ;"      "
001377:  000000000000                           ;"      "
001400:  000000000000                           ;"      "
001401:  000000000000                           ;"      "
001402:  000000000000                           ;"      "
001403:  000000000000                           ;"      "
001404:  000000000000                           ;"      "
001405:  000000000000                           ;"      "
001406:  000000000000                           ;"      "
001407:  000000000000                           ;"      "
001410:  000000000000                           ;"      "
001411:  000000000000                           ;"      "
001412:  000000000000                           ;"      "
001413:  000000000000                           ;"      "
001414:  000000000000                           ;"      "
001415:  000000000000                           ;"      "
001416:  000000000000                           ;"      "
001417:  000000000000                           ;"      "
001420:  000000000000                           ;"      "
001421:  000000000000                           ;"      "
001422:  000000000000                           ;"      "
001423:  000000000000                           ;"      "
001424:  000000000000                           ;"      "
001425:  000000000000                           ;"      "
001426:  000000000000                           ;"      "
001427:  000000000000                           ;"      "
001430:  000000000000                           ;"      "
001431:  000000000000                           ;"      "
001432:  000000000000                           ;"      "
001433:  000000000000                           ;"      "
001434:  000000000000                           ;"      "
001435:  000000000000                           ;"      "
001436:  000000000000                           ;"      "
001437:  000000000000                           ;"      "
001440:  000000000000                           ;"      "
001441:  000000000000                           ;"      "
001442:  000000000000                           ;"      "
001443:  000000000000                           ;"      "
001444:  000000000000                           ;"      "
001445:  000000000000                           ;"      "
001446:  000000000000                           ;"      "
001447:  000000000000                           ;"      "
001450:  000000000000                           ;"      "
001451:  000000000000                           ;"      "
001452:  000000000000                           ;"      "
001453:  000000000000                           ;"      "
001454:  000000000000                           ;"      "
001455:  000000000000                           ;"      "
001456:  000000000000                           ;"      "
001457:  000000000000                           ;"      "
001460:  000000000000                           ;"      "
001461:  000000000000                           ;"      "
001462:  000000000000                           ;"      "
001463:  000000000000                           ;"      "
001464:  000000000000                           ;"      "
001465:  000000000000                           ;"      "
001466:  000000000000                           ;"      "
001467:  000000000000                           ;"      "
001470:  000000000000                           ;"      "
001471:  000000000000                           ;"      "
001472:  000000000000                           ;"      "
001473:  000000000000                           ;"      "
001474:  000000000000                           ;"      "
001475:  000000000000                           ;"      "
001476:  000000000000                           ;"      "
001477:  000000000000                           ;"      "
001500:  000000000000                           ;"      "
001501:  000000000000                           ;"      "
001502:  000000000000                           ;"      "
001503:  000000000000                           ;"      "
001504:  000000000000                           ;"      "
001505:  000000000000                           ;"      "
001506:  000000000000                           ;"      "
001507:  000000000000                           ;"      "
001510:  000000000000                           ;"      "
001511:  000000000000                           ;"      "
001512:  000000000000                           ;"      "
001513:  000000000000                           ;"      "
001514:  000000000000                           ;"      "
001515:  000000000000                           ;"      "
001516:  000000000000                           ;"      "
001517:  000000000000                           ;"      "
001520:  000000000000                           ;"      "
001521:  000000000000                           ;"      "
001522:  000000000000                           ;"      "
001523:  000000000000                           ;"      "
001524:  000000000000                           ;"      "
001525:  000000000000                           ;"      "
001526:  000000000000                           ;"      "
001527:  000000000000                           ;"      "
001530:  000000000000                           ;"      "
001531:  000000000000                           ;"      "
001532:  000000000000                           ;"      "
001533:  000000000000                           ;"      "
001534:  000000000000                           ;"      "
001535:  000000000000                           ;"      "
001536:  000000000000                           ;"      "
001537:  000000000000                           ;"      "
001540:  000000000000                           ;"      "
001541:  000000000000                           ;"      "
001542:  000000000000                           ;"      "
001543:  000000000000                           ;"      "
001544:  000000000000                           ;"      "
001545:  000000000000                           ;"      "
001546:  000000000000                           ;"      "
001547:  000000000000                           ;"      "
001550:  000000000000                           ;"      "
001551:  000000000000                           ;"      "
001552:  000000000000                           ;"      "
001553:  000000000000                           ;"      "
001554:  000000000000                           ;"      "
001555:  000000000000                           ;"      "
001556:  000000000000                           ;"      "
001557:  000000000000                           ;"      "
001560:  000000000000                           ;"      "
001561:  000000000000                           ;"      "
001562:  000000000000                           ;"      "
001563:  000000000000                           ;"      "
001564:  000000000000                           ;"      "
001565:  000000000000                           ;"      "
001566:  000000000000                           ;"      "
001567:  000000000000                           ;"      "
001570:  000000000000                           ;"      "
001571:  000000000000                           ;"      "
001572:  000000000000                           ;"      "
001573:  000000000000                           ;"      "
001574:  000000000000                           ;"      "
001575:  000000000000                           ;"      "
001576:  000000000000                           ;"      "
001577:  000000000000                           ;"      "
001600:  000000000000                           ;"      "
001601:  000000000000                           ;"      "
001602:  000000000000                           ;"      "
001603:  000000000000                           ;"      "
001604:  000000000000                           ;"      "
001605:  000000000000                           ;"      "
001606:  000000000000                           ;"      "
001607:  000000000000                           ;"      "
001610:  000000000000                           ;"      "
001611:  000000000000                           ;"      "
001612:  000000000000                           ;"      "
001613:  000000000000                           ;"      "
001614:  000000000000                           ;"      "
001615:  000000000000                           ;"      "
001616:  000000000000                           ;"      "
001617:  000000000000                           ;"      "
001620:  000000000000                           ;"      "
001621:  000000000000                           ;"      "
001622:  000000000000                           ;"      "
001623:  000000000000                           ;"      "
001624:  000000000000                           ;"      "
001625:  000000000000                           ;"      "
001626:  000000000000                           ;"      "
001627:  000000000000                           ;"      "
001630:  000000000000                           ;"      "
001631:  000000000000                           ;"      "
001632:  000000000000                           ;"      "
001633:  000000000000                           ;"      "
001634:  000000000000                           ;"      "
001635:  000000000000                           ;"      "
001636:  000000000000                           ;"      "
001637:  000000000000                           ;"      "
001640:  000000000000                           ;"      "
001641:  000000000000                           ;"      "
001642:  000000000000                           ;"      "
001643:  000000000000                           ;"      "
001644:  000000000000                           ;"      "
001645:  000000000000                           ;"      "
001646:  000000000000                           ;"      "
001647:  000000000000                           ;"      "
001650:  000000000000                           ;"      "
001651:  000000000000                           ;"      "
001652:  000000000000                           ;"      "
001653:  000000000000                           ;"      "
001654:  000000000000                           ;"      "
001655:  000000000000                           ;"      "
001656:  000000000000                           ;"      "
001657:  000000000000                           ;"      "
001660:  000000000000                           ;"      "
001661:  000000000000                           ;"      "
001662:  000000000000                           ;"      "
001663:  000000000000                           ;"      "
001664:  000000000000                           ;"      "
001665:  000000000000                           ;"      "
001666:  000000000000                           ;"      "
001667:  000000000000                           ;"      "
001670:  000000000000                           ;"      "
001671:  000000000000                           ;"      "
001672:  000000000000                           ;"      "
001673:  000000000000                           ;"      "
001674:  000000000000                           ;"      "
001675:  000000000000                           ;"      "
001676:  000000000000                           ;"      "
001677:  000000000000                           ;"      "
001700:  000000000000                           ;"      "
001701:  000000000000                           ;"      "
001702:  000000000000                           ;"      "
001703:  000000000000                           ;"      "
001704:  000000000000                           ;"      "
001705:  000000000000                           ;"      "
001706:  000000000000                           ;"      "
001707:  000000000000                           ;"      "
001710:  000000000000                           ;"      "
001711:  000000000000                           ;"      "
001712:  000000000000                           ;"      "
001713:  000000000000                           ;"      "
001714:  000000000000                           ;"      "
001715:  000000000000                           ;"      "
001716:  000000000000                           ;"      "
001717:  000000000000                           ;"      "
001720:  000000000000                           ;"      "
001721:  000000000000                           ;"      "
001722:  000000000000                           ;"      "
001723:  000000000000                           ;"      "
001724:  000000000000                           ;"      "
001725:  000000000000                           ;"      "
001726:  000000000000                           ;"      "
001727:  000000000000                           ;"      "
001730:  000000000000                           ;"      "
001731:  000000000000                           ;"      "
001732:  000000000000                           ;"      "
001733:  000000000000                           ;"      "
001734:  000000000000                           ;"      "
001735:  000000000000                           ;"      "
001736:  000000000000                           ;"      "
001737:  000000000000                           ;"      "
001740:  000000000000                           ;"      "
001741:  000000000000                           ;"      "
001742:  000000000000                           ;"      "
001743:  000000000000                           ;"      "
001744:  000000000000                           ;"      "
001745:  000000000000                           ;"      "
001746:  000000000000                           ;"      "
001747:  000000000000                           ;"      "
001750:  000000000000                           ;"      "
001751:  000000000000                           ;"      "
001752:  000000000000                           ;"      "
001753:  000000000000                           ;"      "
001754:  000000000000                           ;"      "
001755:  000000000000                           ;"      "
001756:  000000000000                           ;"      "
001757:  000000000000                           ;"      "
001760:  000000000000                           ;"      "
001761:  000000000000                           ;"      "
001762:  000000000000                           ;"      "
001763:  000000000000                           ;"      "
001764:  000000000000                           ;"      "
001765:  000000000000                           ;"      "
001766:  000000000000                           ;"      "
001767:  000000000000                           ;"      "
001770:  000000000000                           ;"      "
001771:  000000000000                           ;"      "
001772:  000000000000                           ;"      "
001773:  000000000000                           ;"      "
001774:  000000000000                           ;"      "
001775:  000000000000                           ;"      "
001776:  000000000000                           ;"      "
001777:  000000000000                           ;"      "
002000:  000000000000                           ;"      "
002001:  000000000000                           ;"      "
002002:  000000000000                           ;"      "
002003:  000000000000                           ;"      "
002004:  000000000000                           ;"      "
002005:  000000000000                           ;"      "
002006:  000000000000                           ;"      "
002007:  000000000000                           ;"      "
002010:  000000000000                           ;"      "
002011:  000000000000                           ;"      "
002012:  000000000000                           ;"      "
002013:  000000000000                           ;"      "
002014:  000000000000                           ;"      "
002015:  000000000000                           ;"      "
002016:  000000000000                           ;"      "
002017:  000000000000                           ;"      "
002020:  000000000000                           ;"      "
002021:  000000000000                           ;"      "
002022:  000000000000                           ;"      "
002023:  000000000000                           ;"      "
002024:  000000000000                           ;"      "
002025:  000000000000                           ;"      "
002026:  000000000000                           ;"      "
002027:  000000000000                           ;"      "
002030:  000000000000                           ;"      "
002031:  000000000000                           ;"      "
002032:  000000000000                           ;"      "
002033:  000000000000                           ;"      "
002034:  000000000000                           ;"      "
002035:  000000000000                           ;"      "
002036:  000000000000                           ;"      "
002037:  000000000000                           ;"      "
002040:  000000000000                           ;"      "
002041:  000000000000                           ;"      "
002042:  000000000000                           ;"      "
002043:  000000000000                           ;"      "
002044:  000000005776                           ;"    O^"
002045:  000000000000                           ;"      "
002046:  000000000000                           ;"      "
002047:  000000000000                           ;"      "
002050:  000000000000                           ;"      "
002051:  000000000000                           ;"      "
002052:  000000000000                           ;"      "
002053:  000000000000                           ;"      "
002054:  000000000000                           ;"      "
002055:  000000000000                           ;"      "
002056:  000000000000                           ;"      "
002057:  000000000000                           ;"      "
002060:  000000000000                           ;"      "
002061:  000000000000                           ;"      "
002062:  000000000000                           ;"      "
002063:  000000000000                           ;"      "
002064:  000000000000                           ;"      "
002065:  000000000000                           ;"      "
002066:  000000000000                           ;"      "
002067:  000000000000                           ;"      "
002070:  000000000000                           ;"      "
002071:  000000000000                           ;"      "
002072:  000000000000                           ;"      "
002073:  000000000000                           ;"      "
002074:  000000000000                           ;"      "
002075:  000000000000                           ;"      "
002076:  000000000000                           ;"      "
002077:  000000000000                           ;"      "
002100:  000000000000                           ;"      "
002101:  000000000000                           ;"      "
002102:  000000000000                           ;"      "
002103:  000000000000                           ;"      "
002104:  000000000000                           ;"      "
002105:  000000000000                           ;"      "
002106:  000000000000                           ;"      "
002107:  000000000000                           ;"      "
002110:  000000000000                           ;"      "
002111:  000000000000                           ;"      "
002112:  000000000000                           ;"      "
002113:  000000000000                           ;"      "
002114:  000000000000                           ;"      "
002115:  021245421776                           ;""*EB/^"
002116:  776230006230  cono     760, @6230(10)  ;"_R8 R8"
002117:  776230030226  cono     760, @30226(10) ;"_R8#"6"
002120:  003050400010                           ;" 8H@ ("
002121:  000000003050                           ;"    8H"
002122:  254200000000  halt     0               ;"5B    "
002123:  000000000000                           ;"      "
002124:  254000400046  jrst     400046          ;"5@ @ F"
002125:  000000000000                           ;"      "
002126:  000000000000                           ;"      "
002127:  000000000000                           ;"      "
002130:  000000000000                           ;"      "
002131:  000000000000                           ;"      "
002132:  000000000000                           ;"      "
002133:  001341003776                           ;" +A ?^"
002134:  251656000000  blt      15, (16)        ;"5.N   " "*:p\0\0"
002135:  047000000012  .access  0, 12           ;"$X   *"
002136:  000000000000                           ;"      "
002137:  000000000014                           ;"     ,"
002140:  000000000000                           ;"      "
002141:  000000000000                           ;"      "
002142:  000000000000                           ;"      "
002143:  000000000000                           ;"      "
002144:  000000000000                           ;"      "
002145:  000000000000                           ;"      "
002146:  000000000000                           ;"      "
002147:  000000000000                           ;"      "
002150:  000000000000                           ;"      "
002151:  000000000010                           ;"     ("
002152:  001372741000                           ;" +Z\( "
002153:  201140000000  movei    3, 0            ;"0)@   " " &\0\0\0"
002154:  201140000000  movei    3, 0            ;"0)@   " " &\0\0\0"
002155:  515100000000  hrlzi    2, 0            ;"II    " "S$\0\0\0"
002156:  515100000000  hrlzi    2, 0            ;"II    " "S$\0\0\0"
002157:  244040000000  ashc     1, 0            ;"4@@   "
002160:  515100000000  hrlzi    2, 0            ;"II    " "S$\0\0\0"
002161:  000000000000                           ;"      "
002162:  000000000000                           ;"      "
002163:  000000000000                           ;"      "
002164:  000000000000                           ;"      "
002165:  000000000000                           ;"      "
002166:  000000000000                           ;"      "
002167:  000000000000                           ;"      "
002170:  000000000000                           ;"      "
002171:  000000000000                           ;"      "
002172:  000000000000                           ;"      "
002173:  000000000000                           ;"      "
002174:  000000000000                           ;"      "
002175:  000000000000                           ;"      "
002176:  000000000000                           ;"      "
002177:  000000000000                           ;"      "
002200:  000000000000                           ;"      "
002201:  000000000000                           ;"      "
002202:  000000000000                           ;"      "
002203:  000000000000                           ;"      "
002204:  000000000000                           ;"      "
002205:  000000000000                           ;"      "
002206:  000000000000                           ;"      "
002207:  000000000000                           ;"      "
002210:  000000000000                           ;"      "
002211:  000000000000                           ;"      "
002212:  777760000212  conso    774, @212       ;"__P "*"
002213:  000000000000                           ;"      "
002214:  000000000000                           ;"      "
002215:  000000000000                           ;"      "
002216:  000000000000                           ;"      "
002217:  000000000000                           ;"      "
002220:  000000000000                           ;"      "
002221:  000000000000                           ;"      "
002222:  000000000000                           ;"      "
002223:  000000000000                           ;"      "
002224:  000000000000                           ;"      "
002225:  000000000000                           ;"      "
002226:  000000000000                           ;"      "
002227:  000000000000                           ;"      "
002230:  000000000000                           ;"      "
002231:  000000000000                           ;"      "
002232:  000000000000                           ;"      "
002233:  000000000000                           ;"      "
002234:  000000000000                           ;"      "
002235:  000000000000                           ;"      "
002236:  000000000000                           ;"      "
002237:  000000000000                           ;"      "
002240:  041040000010  .open    1, 10           ;"$(@  ("
002241:  000000000000                           ;"      "
002242:  000207000206                           ;" "' "&"
002243:  254200000240  halt     240             ;"5B  "@"
002244:  254000400522  jrst     400522          ;"5@ @%2"
002245:  000000000000                           ;"      "
002246:  000000000000                           ;"      "
002247:  000000000000                           ;"      "
002250:  000000000000                           ;"      "
002251:  000000000000                           ;"      "
002252:  000000000000                           ;"      "
002253:  000000000000                           ;"      "
002254:  000000000000                           ;"      "
002255:  000000000000                           ;"      "
002256:  000000000000                           ;"      "
002257:  000000000000                           ;"      "
002260:  000000000000                           ;"      "
002261:  000000000000                           ;"      "
002262:  000000000000                           ;"      "
002263:  000000000000                           ;"      "
002264:  000000000000                           ;"      "
002265:  000000000000                           ;"      "
002266:  000000000000                           ;"      "
002267:  000000000000                           ;"      "
002270:  000000000000                           ;"      "
002271:  000000000000                           ;"      "
002272:  000000000000                           ;"      "
002273:  000000000000                           ;"      "
002274:  000000000000                           ;"      "
002275:  000000000000                           ;"      "
002276:  000000000000                           ;"      "
002277:  000000000000                           ;"      "
002300:  000000000000                           ;"      "
002301:  000000000000                           ;"      "
002302:  000000000000                           ;"      "
002303:  000000000000                           ;"      "
002304:  000000000000                           ;"      "
002305:  000000000000                           ;"      "
002306:  000000000000                           ;"      "
002307:  000000000000                           ;"      "
002310:  000000000000                           ;"      "
002311:  000000000000                           ;"      "
002312:  000000000000                           ;"      "
002313:  000000000000                           ;"      "
002314:  000000000000                           ;"      "
002315:  000000000000                           ;"      "
002316:  000000000000                           ;"      "
002317:  000000000000                           ;"      "
002320:  000000000000                           ;"      "
002321:  000000000000                           ;"      "
002322:  000000000000                           ;"      "
002323:  000000000000                           ;"      "
002324:  000000000000                           ;"      "
002325:  000000000000                           ;"      "
002326:  000000000000                           ;"      "
002327:  000000000000                           ;"      "
002330:  000000000000                           ;"      "
002331:  000000000000                           ;"      "
002332:  000000000000                           ;"      "
002333:  000000000000                           ;"      "
002334:  000000000000                           ;"      "
002335:  000000000000                           ;"      "
002336:  000000000000                           ;"      "
002337:  000000000000                           ;"      "
002340:  000000000000                           ;"      "
002341:  000000000000                           ;"      "
002342:  000000000000                           ;"      "
002343:  000000000000                           ;"      "
002344:  000000000000                           ;"      "
002345:  000000000000                           ;"      "
002346:  000000000000                           ;"      "
002347:  000000000000                           ;"      "
002350:  000000000000                           ;"      "
002351:  000000000000                           ;"      "
002352:  000000000000                           ;"      "
002353:  000000000000                           ;"      "
002354:  000000000000                           ;"      "
002355:  000000000000                           ;"      "
002356:  000000000000                           ;"      "
002357:  000000000000                           ;"      "
002360:  000000000000                           ;"      "
002361:  000000000000                           ;"      "
002362:  000000000000                           ;"      "
002363:  000000000000                           ;"      "
002364:  000000000000                           ;"      "
002365:  000000000000                           ;"      "
002366:  000000000000                           ;"      "
002367:  000000000000                           ;"      "
002370:  000000000000                           ;"      "
002371:  000000000000                           ;"      "
002372:  000000000000                           ;"      "
002373:  000000000000                           ;"      "
002374:  000000000000                           ;"      "
002375:  000000000000                           ;"      "
002376:  000000000000                           ;"      "
002377:  000000000000                           ;"      "
002400:  000000000000                           ;"      "
002401:  000000000000                           ;"      "
002402:  000000000000                           ;"      "
002403:  000000000000                           ;"      "
002404:  000000000000                           ;"      "
002405:  000000000000                           ;"      "
002406:  000000000000                           ;"      "
002407:  000000000000                           ;"      "
002410:  000000000000                           ;"      "
002411:  000000000000                           ;"      "
002412:  000000000000                           ;"      "
002413:  000000000000                           ;"      "
002414:  000000000000                           ;"      "
002415:  000000000000                           ;"      "
002416:  000000000000                           ;"      "
002417:  000000000000                           ;"      "
002420:  000000000000                           ;"      "
002421:  000000000000                           ;"      "
002422:  000000000000                           ;"      "
002423:  000000000000                           ;"      "
002424:  000000000000                           ;"      "
002425:  000000000000                           ;"      "
002426:  000000000000                           ;"      "
002427:  000000000000                           ;"      "
002430:  000000000000                           ;"      "
002431:  000000000000                           ;"      "
002432:  000000000000                           ;"      "
002433:  000000000000                           ;"      "
002434:  000000000000                           ;"      "
002435:  000000000000                           ;"      "
002436:  000000000000                           ;"      "
002437:  000000000000                           ;"      "
002440:  000000000000                           ;"      "
002441:  000000000000                           ;"      "
002442:  000000000000                           ;"      "
002443:  000000000000                           ;"      "
002444:  000000000000                           ;"      "
002445:  000000000000                           ;"      "
002446:  000000000000                           ;"      "
002447:  000000000000                           ;"      "
002450:  000000000000                           ;"      "
002451:  000000000000                           ;"      "
002452:  000000000000                           ;"      "
002453:  000000000000                           ;"      "
002454:  000000000000                           ;"      "
002455:  000000000040                           ;"     @"
002456:  000000000000                           ;"      "
002457:  254000403424  jrst     403424          ;"5@ @<4"
002460:  000000000000                           ;"      "
002461:  254000400700  jrst     400700          ;"5@ @' "
002462:  000000000000                           ;"      "
002463:  254000401040  jrst     401040          ;"5@ @(@"
002464:  000000000000                           ;"      "
002465:  254000401544  jrst     401544          ;"5@ @-D"
002466:  000000000000                           ;"      "
002467:  254000401006  jrst     401006          ;"5@ @(&"
002470:  000000000000                           ;"      "
002471:  254000401370  jrst     401370          ;"5@ @+X"
002472:  000000000000                           ;"      "
002473:  254000401320  jrst     401320          ;"5@ @+0"
002474:  000000000000                           ;"      "
002475:  254000403430  jrst     403430          ;"5@ @<8"
002476:  000000000000                           ;"      "
002477:  254000402630  jrst     402630          ;"5@ @68"
002500:  000000000000                           ;"      "
002501:  254000401736  jrst     401736          ;"5@ @/>"
002502:  000000000000                           ;"      "
002503:  254000400776  jrst     400776          ;"5@ @'^"
002504:  000000000000                           ;"      "
002505:  254000403036  jrst     403036          ;"5@ @8>"
002506:  000000000000                           ;"      "
002507:  254000402354  jrst     402354          ;"5@ @3L"
002510:  000000000000                           ;"      "
002511:  254000403042  jrst     403042          ;"5@ @8B"
002512:  000000000000                           ;"      "
002513:  254000402752  jrst     402752          ;"5@ @7J"
002514:  000000000000                           ;"      "
002515:  254000403304  jrst     403304          ;"5@ @;$"
002516:  000000000000                           ;"      "
002517:  000000000000                           ;"      "
002520:  000000000000                           ;"      "
002521:  000000000000                           ;"      "
002522:  000000000000                           ;"      "
002523:  000000000000                           ;"      "
002524:  000000000000                           ;"      "
002525:  000000000000                           ;"      "
002526:  000000000000                           ;"      "
002527:  000000000000                           ;"      "
002530:  000000000000                           ;"      "
002531:  000000000000                           ;"      "
002532:  000000000000                           ;"      "
002533:  000000000000                           ;"      "
002534:  000000000000                           ;"      "
002535:  000000000000                           ;"      "
002536:  000000000000                           ;"      "
002537:  000000000000                           ;"      "
002540:  000000000000                           ;"      "
002541:  000000000000                           ;"      "
002542:  000000000000                           ;"      "
002543:  000000000000                           ;"      "
002544:  000000000000                           ;"      "
002545:  000000000000                           ;"      "
002546:  000000000000                           ;"      "
002547:  000000000000                           ;"      "
002550:  000000000000                           ;"      "
002551:  000000000000                           ;"      "
002552:  000000000000                           ;"      "
002553:  000000000000                           ;"      "
002554:  000000000000                           ;"      "
002555:  000000000000                           ;"      "
002556:  254000403050  jrst     403050          ;"5@ @8H"
002557:  000000000000                           ;"      "
002560:  000000000000                           ;"      "
002561:  000000000000                           ;"      "
002562:  000000000000                           ;"      "
002563:  000000000000                           ;"      "
002564:  000000000000                           ;"      "
002565:  000000000000                           ;"      "
002566:  000000000000                           ;"      "
002567:  000000000000                           ;"      "
002570:  000000000000                           ;"      "
002571:  000000000000                           ;"      "
002572:  000000000000                           ;"      "
002573:  000000000000                           ;"      "
002574:  000000000000                           ;"      "
002575:  000000000000                           ;"      "
002576:  000000000000                           ;"      "
002577:  000000000000                           ;"      "
002600:  000000000000                           ;"      "
002601:  000000000000                           ;"      "
002602:  000000000000                           ;"      "
002603:  000000000000                           ;"      "
002604:  000000000000                           ;"      "
002605:  000000000000                           ;"      "
002606:  000000000000                           ;"      "
002607:  000000000000                           ;"      "
002610:  041000000610  .open    0, 610          ;"$(  &("
002611:  000000000000                           ;"      "
002612:  000000000000                           ;"      "
002613:  000000000000                           ;"      "
002614:  000000000000                           ;"      "
002615:  000000000000                           ;"      "
002616:  000000000000                           ;"      "
002617:  000000000000                           ;"      "
002620:  000000000000                           ;"      "
002621:  000000000000                           ;"      "
002622:  000000000000                           ;"      "
002623:  000000000000                           ;"      "
002624:  000000000000                           ;"      "
002625:  000000000000                           ;"      "
002626:  000000000000                           ;"      "
002627:  000000000000                           ;"      "
002630:  000000000000                           ;"      "
002631:  000000000000                           ;"      "
002632:  000000000000                           ;"      "
002633:  000000000000                           ;"      "
002634:  000000000000                           ;"      "
002635:  000000000000                           ;"      "
002636:  000000000000                           ;"      "
002637:  000000000000                           ;"      "
002640:  000000000000                           ;"      "
002641:  000000000000                           ;"      "
002642:  000000000000                           ;"      "
002643:  000000000000                           ;"      "
002644:  000000000000                           ;"      "
002645:  000000000000                           ;"      "
002646:  000000000000                           ;"      "
002647:  000000000000                           ;"      "
002650:  000000000000                           ;"      "
002651:  000000000000                           ;"      "
002652:  000000000000                           ;"      "
002653:  000000000000                           ;"      "
002654:  000000000000                           ;"      "
002655:  000000000000                           ;"      "
002656:  000000000000                           ;"      "
002657:  000000000000                           ;"      "
002660:  000000000000                           ;"      "
002661:  000000000000                           ;"      "
002662:  000000000000                           ;"      "
002663:  000000000000                           ;"      "
002664:  000000000000                           ;"      "
002665:  000000000000                           ;"      "
002666:  000000000000                           ;"      "
002667:  000000000000                           ;"      "
002670:  000000000000                           ;"      "
002671:  000000000000                           ;"      "
002672:  000000000000                           ;"      "
002673:  000000000000                           ;"      "
002674:  000000000000                           ;"      "
002675:  000000000000                           ;"      "
002676:  000000000000                           ;"      "
002677:  000000000000                           ;"      "
002700:  000000000000                           ;"      "
002701:  000000000000                           ;"      "
002702:  000000000000                           ;"      "
002703:  000000000000                           ;"      "
002704:  000000000000                           ;"      "
002705:  000000000000                           ;"      "
002706:  000000000000                           ;"      "
002707:  000000000000                           ;"      "
002710:  000000000000                           ;"      "
002711:  000000000000                           ;"      "
002712:  000000000000                           ;"      "
002713:  000000000000                           ;"      "
002714:  000000000000                           ;"      "
002715:  000000000000                           ;"      "
002716:  000000000000                           ;"      "
002717:  000000000000                           ;"      "
002720:  000000000000                           ;"      "
002721:  000000000000                           ;"      "
002722:  000000000000                           ;"      "
002723:  000000000000                           ;"      "
002724:  000000000000                           ;"      "
002725:  000000000000                           ;"      "
002726:  000000000000                           ;"      "
002727:  000000000000                           ;"      "
002730:  000000000000                           ;"      "
002731:  000000000000                           ;"      "
002732:  000000000000                           ;"      "
002733:  000000000000                           ;"      "
002734:  000000000000                           ;"      "
002735:  000000000000                           ;"      "
002736:  000000000000                           ;"      "
002737:  000000000000                           ;"      "
002740:  000000000000                           ;"      "
002741:  000000000000                           ;"      "
002742:  000000000000                           ;"      "
002743:  000000000000                           ;"      "
002744:  000000000000                           ;"      "
002745:  000000000000                           ;"      "
002746:  000000000000                           ;"      "
002747:  000000000000                           ;"      "
002750:  000000000000                           ;"      "
002751:  000000000000                           ;"      "
002752:  000000000000                           ;"      "
002753:  000000000000                           ;"      "
002754:  000000000000                           ;"      "
002755:  000000000000                           ;"      "
002756:  000000000000                           ;"      "
002757:  000000000000                           ;"      "
002760:  000000000000                           ;"      "
002761:  000000000000                           ;"      "
002762:  000000000000                           ;"      "
002763:  000000000000                           ;"      "
002764:  254000402562  jrst     402562          ;"5@ @5R"
002765:  000000000000                           ;"      "
002766:  254000402566  jrst     402566          ;"5@ @5V"
002767:  000000000000                           ;"      "
002770:  254000414442  jrst     414442          ;"5@ ADB"
002771:  000000000000                           ;"      "
002772:  254000414452  jrst     414452          ;"5@ ADJ"
002773:  000000000000                           ;"      "
002774:  254000404372  jrst     404372          ;"5@ @CZ"
002775:  000000000000                           ;"      "
002776:  254000402742  jrst     402742          ;"5@ @7B"
002777:  000000000000                           ;"      "
003000:  254000403130  jrst     403130          ;"5@ @98"
003001:  000000000000                           ;"      "
003002:  254000403320  jrst     403320          ;"5@ @;0"
003003:  000000000000                           ;"      "
003004:  254000403116  jrst     403116          ;"5@ @9."
003005:  000000000000                           ;"      "
003006:  254000402666  jrst     402666          ;"5@ @6V"
003007:  000000000000                           ;"      "
003010:  254000402722  jrst     402722          ;"5@ @72"
003011:  000000000000                           ;"      "
003012:  254000402530  jrst     402530          ;"5@ @58"
003013:  000000000000                           ;"      "
003014:  254000401066  jrst     401066          ;"5@ @(V"
003015:  000000000000                           ;"      "
003016:  254000401776  jrst     401776          ;"5@ @/^"
003017:  000000000000                           ;"      "
003020:  254000402020  jrst     402020          ;"5@ @00"
003021:  000000000000                           ;"      "
003022:  254000402224  jrst     402224          ;"5@ @24"
003023:  000000000000                           ;"      "
003024:  254000402506  jrst     402506          ;"5@ @5&"
003025:  000000000000                           ;"      "
003026:  254000402606  jrst     402606          ;"5@ @6&"
003027:  000000000000                           ;"      "
003030:  254000403056  jrst     403056          ;"5@ @8N"
003031:  000000000000                           ;"      "
003032:  000000000000                           ;"      "
003033:  000000000000                           ;"      "
003034:  000000000000                           ;"      "
003035:  000000000000                           ;"      "
003036:  000000000000                           ;"      "
003037:  000000000000                           ;"      "
003040:  000000000000                           ;"      "
003041:  000000000000                           ;"      "
003042:  000000000000                           ;"      "
003043:  000000000000                           ;"      "
003044:  000000000000                           ;"      "
003045:  000000000000                           ;"      "
003046:  000000000000                           ;"      "
003047:  000000000000                           ;"      "
003050:  000000000000                           ;"      "
003051:  000000000000                           ;"      "
003052:  000000000000                           ;"      "
003053:  000000000000                           ;"      "
003054:  000000000000                           ;"      "
003055:  000000000000                           ;"      "
003056:  000000000000                           ;"      "
003057:  000000000000                           ;"      "
003060:  000000000000                           ;"      "
003061:  000000000000                           ;"      "
003062:  000000000000                           ;"      "
003063:  000000000000                           ;"      "
003064:  000000000000                           ;"      "
003065:  000000000000                           ;"      "
003066:  000000000000                           ;"      "
003067:  000000000000                           ;"      "
003070:  000000000000                           ;"      "
003071:  000000000000                           ;"      "
003072:  000000000000                           ;"      "
003073:  000000000000                           ;"      "
003074:  000000000000                           ;"      "
003075:  000000000000                           ;"      "
003076:  000000000000                           ;"      "
003077:  000000000000                           ;"      "
003100:  000000000000                           ;"      "
003101:  000000000000                           ;"      "
003102:  000000000000                           ;"      "
003103:  000000000000                           ;"      "
003104:  000000000000                           ;"      "
003105:  000000000000                           ;"      "
003106:  000000000000                           ;"      "
003107:  000000000000                           ;"      "
003110:  000000000000                           ;"      "
003111:  000000000000                           ;"      "
003112:  000000000000                           ;"      "
003113:  000000000000                           ;"      "
003114:  000000000000                           ;"      "
003115:  000000000000                           ;"      "
003116:  000000000000                           ;"      "
003117:  000000000000                           ;"      "
003120:  000000000000                           ;"      "
003121:  000000000000                           ;"      "
003122:  000000000000                           ;"      "
003123:  000000000000                           ;"      "
003124:  000000000000                           ;"      "
003125:  000000000000                           ;"      "
003126:  000000000000                           ;"      "
003127:  000000000000                           ;"      "
003130:  000000000000                           ;"      "
003131:  000000000000                           ;"      "
003132:  000000000000                           ;"      "
003133:  000000000000                           ;"      "
003134:  000000000000                           ;"      "
003135:  000000000000                           ;"      "
003136:  000000000000                           ;"      "
003137:  000000000000                           ;"      "
003140:  000000000000                           ;"      "
003141:  000000000000                           ;"      "
003142:  000000000000                           ;"      "
003143:  000000000000                           ;"      "
003144:  000000000000                           ;"      "
003145:  000000000000                           ;"      "
003146:  000000000000                           ;"      "
003147:  000000000000                           ;"      "
003150:  000000000000                           ;"      "
003151:  000000000000                           ;"      "
003152:  000000000000                           ;"      "
003153:  000000000000                           ;"      "
003154:  000000000000                           ;"      "
003155:  000000000000                           ;"      "
003156:  000000000000                           ;"      "
003157:  000000000000                           ;"      "
003160:  000000000000                           ;"      "
003161:  000000000000                           ;"      "
003162:  000000000000                           ;"      "
003163:  000000000000                           ;"      "
003164:  000000000000                           ;"      "
003165:  000000000000                           ;"      "
003166:  000000000000                           ;"      "
003167:  000000000000                           ;"      "
003170:  000000000000                           ;"      "
003171:  000000000000                           ;"      "
003172:  000000000000                           ;"      "
003173:  000000000000                           ;"      "
003174:  000000000000                           ;"      "
003175:  000000000000                           ;"      "
003176:  000000000000                           ;"      "
003177:  000000000000                           ;"      "
003200:  000000000000                           ;"      "
003201:  000000000000                           ;"      "
003202:  000000000000                           ;"      "
003203:  000000000000                           ;"      "
003204:  000000000000                           ;"      "
003205:  000000000000                           ;"      "
003206:  000000000000                           ;"      "
003207:  000000000000                           ;"      "
003210:  000000000000                           ;"      "
003211:  000000000000                           ;"      "
003212:  000000000000                           ;"      "
003213:  000000000000                           ;"      "
003214:  000000000000                           ;"      "
003215:  000000000000                           ;"      "
003216:  000000000000                           ;"      "
003217:  000000000000                           ;"      "
003220:  000000000000                           ;"      "
003221:  000000000000                           ;"      "
003222:  000000000000                           ;"      "
003223:  000000000000                           ;"      "
003224:  000000000000                           ;"      "
003225:  000000000000                           ;"      "
003226:  000000000000                           ;"      "
003227:  000000000000                           ;"      "
003230:  000000000000                           ;"      "
003231:  000000000000                           ;"      "
003232:  000000000000                           ;"      "
003233:  000000000000                           ;"      "
003234:  000000000000                           ;"      "
003235:  000000000000                           ;"      "
003236:  000000000000                           ;"      "
003237:  000000000000                           ;"      "
003240:  000000000000                           ;"      "
003241:  000000000000                           ;"      "
003242:  000000000000                           ;"      "
003243:  000000000000                           ;"      "
003244:  000000000000                           ;"      "
003245:  000000000000                           ;"      "
003246:  000000000000                           ;"      "
003247:  000000000000                           ;"      "
003250:  000000000000                           ;"      "
003251:  000000000000                           ;"      "
003252:  000000000000                           ;"      "
003253:  000000000000                           ;"      "
003254:  000000000000                           ;"      "
003255:  000000000000                           ;"      "
003256:  000000000000                           ;"      "
003257:  000000000000                           ;"      "
003260:  000000000000                           ;"      "
003261:  000000000000                           ;"      "
003262:  000000000000                           ;"      "
003263:  000000000000                           ;"      "
003264:  000000000000                           ;"      "
003265:  000000000000                           ;"      "
003266:  000000000000                           ;"      "
003267:  000000000000                           ;"      "
003270:  000000000000                           ;"      "
003271:  000000000000                           ;"      "
003272:  000000000000                           ;"      "
003273:  000000000000                           ;"      "
003274:  000000000000                           ;"      "
003275:  000000000000                           ;"      "
003276:  000000000000                           ;"      "
003277:  000000000000                           ;"      "
003300:  000000000000                           ;"      "
003301:  000000000000                           ;"      "
003302:  000000000000                           ;"      "
003303:  000000000000                           ;"      "
003304:  000000000000                           ;"      "
003305:  000000000000                           ;"      "
003306:  000000000000                           ;"      "
003307:  000000000000                           ;"      "
003310:  000000000000                           ;"      "
003311:  000000000000                           ;"      "
003312:  000000000000                           ;"      "
003313:  000000000000                           ;"      "
003314:  000000000000                           ;"      "
003315:  000000000000                           ;"      "
003316:  000000000000                           ;"      "
003317:  000000000000                           ;"      "
003320:  000000000000                           ;"      "
003321:  000000000000                           ;"      "
003322:  000000000000                           ;"      "
003323:  000000000000                           ;"      "
003324:  000000000000                           ;"      "
003325:  000000000000                           ;"      "
003326:  000000000000                           ;"      "
003327:  000000000000                           ;"      "
003330:  000000000000                           ;"      "
003331:  000000000000                           ;"      "
003332:  000000000000                           ;"      "
003333:  000000000000                           ;"      "
003334:  000000000000                           ;"      "
003335:  000000000000                           ;"      "
003336:  000000000000                           ;"      "
003337:  000000000000                           ;"      "
003340:  000000000000                           ;"      "
003341:  000000000000                           ;"      "
003342:  000000000000                           ;"      "
003343:  000000000000                           ;"      "
003344:  000000000000                           ;"      "
003345:  000000000000                           ;"      "
003346:  000000000000                           ;"      "
003347:  000000000000                           ;"      "
003350:  000000000000                           ;"      "
003351:  000000000000                           ;"      "
003352:  000000000000                           ;"      "
003353:  000000000000                           ;"      "
003354:  000000000000                           ;"      "
003355:  000000000000                           ;"      "
003356:  000000000000                           ;"      "
003357:  000000000000                           ;"      "
003360:  000000000000                           ;"      "
003361:  000000000000                           ;"      "
003362:  000000000000                           ;"      "
003363:  000000000000                           ;"      "
003364:  000000000000                           ;"      "
003365:  000000000000                           ;"      "
003366:  000000000000                           ;"      "
003367:  000000000000                           ;"      "
003370:  000000000000                           ;"      "
003371:  000000000000                           ;"      "
003372:  000000000000                           ;"      "
003373:  000000000000                           ;"      "
003374:  000000000000                           ;"      "
003375:  000000000000                           ;"      "
003376:  000000000000                           ;"      "
003377:  000000000000                           ;"      "
003400:  000000000000                           ;"      "
003401:  000000000000                           ;"      "
003402:  000000000000                           ;"      "
003403:  000000000000                           ;"      "
003404:  000000000000                           ;"      "
003405:  000000000000                           ;"      "
003406:  000000000000                           ;"      "
003407:  000000000000                           ;"      "
003410:  000000000000                           ;"      "
003411:  000000000000                           ;"      "
003412:  000000000000                           ;"      "
003413:  000000000000                           ;"      "
003414:  000000000000                           ;"      "
003415:  000000000000                           ;"      "
003416:  000000000000                           ;"      "
003417:  000000000000                           ;"      "
003420:  000000000000                           ;"      "
003421:  000000000000                           ;"      "
003422:  000000000000                           ;"      "
003423:  000000000000                           ;"      "
003424:  000000000000                           ;"      "
003425:  000000000000                           ;"      "
003426:  000000000000                           ;"      "
003427:  000000000000                           ;"      "
003430:  000000000000                           ;"      "
003431:  000000000000                           ;"      "
003432:  000000000000                           ;"      "
003433:  000000000000                           ;"      "
003434:  000000000000                           ;"      "
003435:  000000000000                           ;"      "
003436:  000000000000                           ;"      "
003437:  000000000000                           ;"      "
003440:  000000000000                           ;"      "
003441:  000000000000                           ;"      "
003442:  000000000000                           ;"      "
003443:  000000000000                           ;"      "
003444:  000000000000                           ;"      "
003445:  000000000000                           ;"      "
003446:  000000000000                           ;"      "
003447:  000000000000                           ;"      "
003450:  000000000000                           ;"      "
003451:  000000000000                           ;"      "
003452:  000000000000                           ;"      "
003453:  000000000000                           ;"      "
003454:  000000000000                           ;"      "
003455:  000000000000                           ;"      "
003456:  000000000000                           ;"      "
003457:  000000000000                           ;"      "
003460:  000000000000                           ;"      "
003461:  000000000000                           ;"      "
003462:  000000000000                           ;"      "
003463:  000000000000                           ;"      "
003464:  000000000000                           ;"      "
003465:  000000000000                           ;"      "
003466:  000000000000                           ;"      "
003467:  000000000000                           ;"      "
003470:  000000000000                           ;"      "
003471:  000000000000                           ;"      "
003472:  000000000000                           ;"      "
003473:  000000000000                           ;"      "
003474:  000000000000                           ;"      "
003475:  000000000000                           ;"      "
003476:  000000000000                           ;"      "
003477:  000000000000                           ;"      "
003500:  000000000000                           ;"      "
003501:  000000000000                           ;"      "
003502:  000000000000                           ;"      "
003503:  000000000000                           ;"      "
003504:  000000000000                           ;"      "
003505:  000000000000                           ;"      "
003506:  000000000000                           ;"      "
003507:  000000000000                           ;"      "
003510:  000000000000                           ;"      "
003511:  000000000000                           ;"      "
003512:  000000000000                           ;"      "
003513:  000000000000                           ;"      "
003514:  000000000000                           ;"      "
003515:  000000000000                           ;"      "
003516:  000000000000                           ;"      "
003517:  000000000000                           ;"      "
003520:  000000000000                           ;"      "
003521:  000000000000                           ;"      "
003522:  000000000000                           ;"      "
003523:  000000000000                           ;"      "
003524:  000000000000                           ;"      "
003525:  000000000000                           ;"      "
003526:  000000000000                           ;"      "
003527:  000000000000                           ;"      "
003530:  000000000000                           ;"      "
003531:  000000000000                           ;"      "
003532:  000000000000                           ;"      "
003533:  000000000000                           ;"      "
003534:  000000000000                           ;"      "
003535:  000000000000                           ;"      "
003536:  000000000000                           ;"      "
003537:  000000000000                           ;"      "
003540:  000000000000                           ;"      "
003541:  000000000000                           ;"      "
003542:  000000000000                           ;"      "
003543:  000000000000                           ;"      "
003544:  000000000000                           ;"      "
003545:  000000000000                           ;"      "
003546:  000000000000                           ;"      "
003547:  000000000000                           ;"      "
003550:  000000000000                           ;"      "
003551:  000000000000                           ;"      "
003552:  000000000000                           ;"      "
003553:  000000000000                           ;"      "
003554:  000000000000                           ;"      "
003555:  000000000000                           ;"      "
003556:  000000000000                           ;"      "
003557:  000000000000                           ;"      "
003560:  000000000000                           ;"      "
003561:  000000000000                           ;"      "
003562:  000000000000                           ;"      "
003563:  000000000000                           ;"      "
003564:  000000000000                           ;"      "
003565:  000000000000                           ;"      "
003566:  000000000000                           ;"      "
003567:  000000000000                           ;"      "
003570:  000000000000                           ;"      "
003571:  000000000000                           ;"      "
003572:  000000000000                           ;"      "
003573:  000000000000                           ;"      "
003574:  000000000000                           ;"      "
003575:  000000000000                           ;"      "
003576:  000000000000                           ;"      "
003577:  000000000000                           ;"      "
003600:  000000000000                           ;"      "
003601:  000000000000                           ;"      "
003602:  000000000000                           ;"      "
003603:  000000000000                           ;"      "
003604:  000000000000                           ;"      "
003605:  000000000000                           ;"      "
003606:  000000000000                           ;"      "
003607:  000000000000                           ;"      "
003610:  000000000000                           ;"      "
003611:  000000000000                           ;"      "
003612:  000000000000                           ;"      "
003613:  000000000000                           ;"      "
003614:  000000000000                           ;"      "
003615:  000000000000                           ;"      "
003616:  000000000000                           ;"      "
003617:  000000000000                           ;"      "
003620:  000000000000                           ;"      "
003621:  000000000000                           ;"      "
003622:  000000000000                           ;"      "
003623:  000000000000                           ;"      "
003624:  000000000000                           ;"      "
003625:  000000000000                           ;"      "
003626:  000000000000                           ;"      "
003627:  000000000000                           ;"      "
003630:  000000000000                           ;"      "
003631:  000000000000                           ;"      "
003632:  000000000000                           ;"      "
003633:  000000000000                           ;"      "
003634:  000000000000                           ;"      "
003635:  000000000000                           ;"      "
003636:  000000000000                           ;"      "
003637:  000000000000                           ;"      "
003640:  000000000000                           ;"      "
003641:  000000000000                           ;"      "
003642:  000000000000                           ;"      "
003643:  000000000000                           ;"      "
003644:  000000000000                           ;"      "
003645:  000000000000                           ;"      "
003646:  000000000000                           ;"      "
003647:  000000000000                           ;"      "
003650:  000000000000                           ;"      "
003651:  000000000000                           ;"      "
003652:  000000000000                           ;"      "
003653:  000000000000                           ;"      "
003654:  000000000000                           ;"      "
003655:  000000000000                           ;"      "
003656:  000000000000                           ;"      "
003657:  000000000000                           ;"      "
003660:  000000000000                           ;"      "
003661:  000000000000                           ;"      "
003662:  000000000000                           ;"      "
003663:  000000000000                           ;"      "
003664:  000000000000                           ;"      "
003665:  000000000000                           ;"      "
003666:  000000000000                           ;"      "
003667:  000000000000                           ;"      "
003670:  000000000000                           ;"      "
003671:  000000000000                           ;"      "
003672:  000000000000                           ;"      "
003673:  000000000000                           ;"      "
003674:  000000000000                           ;"      "
003675:  000000000000                           ;"      "
003676:  000000000000                           ;"      "
003677:  000000000000                           ;"      "
003700:  000000000000                           ;"      "
003701:  000000000000                           ;"      "
003702:  000000000000                           ;"      "
003703:  000000000000                           ;"      "
003704:  000000000000                           ;"      "
003705:  000000000000                           ;"      "
003706:  000000000000                           ;"      "
003707:  000000000000                           ;"      "
003710:  000000000000                           ;"      "
003711:  000000000000                           ;"      "
003712:  000000000000                           ;"      "
003713:  000000000000                           ;"      "
003714:  000000000000                           ;"      "
003715:  000000000000                           ;"      "
003716:  000000000000                           ;"      "
003717:  000000000000                           ;"      "
003720:  000000000000                           ;"      "
003721:  000000000000                           ;"      "
003722:  000000000000                           ;"      "
003723:  000000000000                           ;"      "
003724:  000000000000                           ;"      "
003725:  000000000000                           ;"      "
003726:  000000000000                           ;"      "
003727:  000000000000                           ;"      "
003730:  000000000000                           ;"      "
003731:  000000000000                           ;"      "
003732:  000000000000                           ;"      "
003733:  000000000000                           ;"      "
003734:  000000000000                           ;"      "
003735:  000000000000                           ;"      "
003736:  000000000000                           ;"      "
003737:  000000000000                           ;"      "
003740:  000000000000                           ;"      "
003741:  000000000000                           ;"      "
003742:  000000000000                           ;"      "
003743:  000000000000                           ;"      "
003744:  000000000000                           ;"      "
003745:  000000000000                           ;"      "
003746:  000000000000                           ;"      "
003747:  000000000000                           ;"      "
003750:  000000000000                           ;"      "
003751:  000000000000                           ;"      "
003752:  000000000000                           ;"      "
003753:  000000000000                           ;"      "
003754:  000000000000                           ;"      "
003755:  000000000000                           ;"      "
003756:  000000000000                           ;"      "
003757:  000000000000                           ;"      "
003760:  000000000000                           ;"      "
003761:  000000000000                           ;"      "
003762:  000000000000                           ;"      "
003763:  000000000000                           ;"      "
003764:  000000000000                           ;"      "
003765:  000000000000                           ;"      "
003766:  000000000000                           ;"      "
003767:  000000000000                           ;"      "
003770:  000000000000                           ;"      "
003771:  000000000000                           ;"      "
003772:  000000000000                           ;"      "
003773:  000000000000                           ;"      "
003774:  000000000000                           ;"      "
003775:  000000000000                           ;"      "
003776:  000000000000                           ;"      "
003777:  000000000000                           ;"      "
004000:  003050400010                           ;" 8H@ ("
004001:  254200000000  halt     0               ;"5B    "
004002:  001337003776                           ;" +? ?^"
004003:  021245400046                           ;""*E@ F"
004004:  000000000014                           ;"     ,"
004005:  000000000000                           ;"      "
004006:  000000000000                           ;"      "
004007:  000000000000                           ;"      "
004010:  047000000000  .access  0, 0            ;"$X    " "\t`\0\0\0"
004011:  402000000236  setzm    236             ;"@0  ">"
004012:  402000001102  setzm    1102            ;"@0  )""
004013:  400040000000  setz     1,              ;"@ @   "
004014:  047040000026  .access  1, 26           ;"$X@  6"
004015:  202040000234  movem    1, 234          ;"00@ "<"
004016:  402000000234  setzm    234             ;"@0  "<"
004017:  402000000232  setzm    232             ;"@0  ":"
004020:  200740000212  move     17, 212         ;"0'@ "*"
004021:  041000000000  .open    0, 0            ;"$(    "
004022:  646471000000  trcn     11, @(11)       ;"TTY   " "iSH\0\0"
004023:  000204000200                           ;" "$ " "
004024:  254200400010  halt     400010          ;"5B @ ("
004025:  201000000272  movei    0, 272          ;"0(  "Z"
004026:  202000000120  movem    0, 120          ;"00  !0"
004027:  065000000000                           ;"&H    " "\r \0\0\0"
004030:  067000000000                           ;"&X    " "\r`\0\0\0"
004031:  201200400034  movei    4, 400034       ;"0* @ <"
004032:  040200400034  .iot     4, 400034       ;"$" @ <"
004033:  254000403620  jrst     403620          ;"5@ @>0"
004034:  444464576564  eqv      11, @576564(4)  ;"DDTOUT"
004035:  052031142100                           ;"%09,1 " "\nAID "
004036:  241426426632  rot      10, @426632(6)  ;"4,6BV:" "(14-M"
004037:  406445533162  andm     11, 533162(5)   ;"@TEK9R" "AR-69"
004040:  245010152100  rotc     0, 152100(10)   ;"4H(-1 " ") AT "
004041:  546372551100  hlrm     7, @551100(12)  ;"LSZM) " "YOUR "
004042:  516132253222  hrlzm    2, @253222(12)  ;"IQ:5:2" "SERVI"
004043:  416124027134  setmm    2, @27134(4)    ;"AQ4"Y<" "CE .."
004044:  270241200000  add      5, 200000(1)    ;"7"A0  " ".\n\n\0\0"
004045:  000011740000                           ;"  )\  "
004046:  001631740000                           ;" .9\  "
004047:  010645302400                           ;"!&E84 "
004050:  001305304010                           ;" +%8@("
004051:  000104017000                           ;" !$!X "
004052:  002126021000                           ;" 16"( "
004053:  000205304010                           ;" "%8@("
004054:  000105417430                           ;" !%A\8"
004055:  000721001010                           ;" '1 (("
004056:  006704621000                           ;" W$R( "
004057:  017504621000                           ;"!]$R( "
004060:  000744621000                           ;" 'DR( "
004061:  000744042000                           ;" 'D$0 "
004062:  001664041000                           ;" .T$( "
004063:  001650001000                           ;" .H ( "
004064:  000001161000                           ;"  !.( "
004065:  000265701000                           ;" "UX( "
004066:  002344621000                           ;" 3DR( "
004067:  000124041000                           ;" !4$( "
004070:  001665300400                           ;" .U8$ "
004071:  010505300010                           ;"!%%8 ("
004072:  001325300010                           ;" +58 ("
004073:  003565300010                           ;" =U8 ("
004074:  000565300010                           ;" %U8 ("
004075:  002645300010                           ;" 6E8 ("
004076:  001325300010                           ;" +58 ("
004077:  000565300010                           ;" %U8 ("
004100:  000565300010                           ;" %U8 ("
004101:  003745300010                           ;" ?E8 ("
004102:  004745300010                           ;" GE8 ("
004103:  001125300010                           ;" )58 ("
004104:  001125300010                           ;" )58 ("
004105:  003645304010                           ;" >E8@("
004106:  000565300010                           ;" %U8 ("
004107:  001105304010                           ;" )%8@("
004110:  000564220000                           ;" %T2  "
004111:  020005300010                           ;"" %8 ("
004112:  001144020000                           ;" )D"  "
004113:  020005600000                           ;"" %P  "
004114:  000451721000                           ;" $IZ( "
004115:  000001000010                           ;"  !  ("
004116:  006730021000                           ;" W8"( "
004117:  000005300010                           ;"  %8 ("
004120:  000704000010                           ;" '$  ("
004121:  006724040000                           ;" W4$  "
004122:  002724022000                           ;" 74"0 "
004123:  000142762010                           ;" !B^0("
004124:  006745477000                           ;" WEGX "
004125:  000002702000                           ;"  "X0 "
004126:  002724000000                           ;" 74   "
004127:  002722703000                           ;" 72X8 "
004130:  000005477000                           ;"  %GX "
004131:  000005417010                           ;"  %AX("
004132:  002644000010                           ;" 6D  ("
004133:  006744040000                           ;" WD$  "
004134:  002730040000                           ;" 78$  "
004135:  002744022000                           ;" 7D"0 "
004136:  000522742000                           ;" %2\0 "
004137:  002041560000                           ;" 0AN  "
004140:  000005417010                           ;"  %AX("
004141:  003573244000                           ;" =[4@ "
004142:  001201500000                           ;" *!H  "
004143:  000001540000                           ;"  !L  "
004144:  000001600000                           ;"  !P  "
004145:  000004122000                           ;"  $*0 "
004146:  642404042000  trce     10, 42000(4)    ;"T4$$0 " "hP D\0"
004147:  003150040100                           ;" 9H$! "
004150:  000005417010                           ;"  %AX("
004151:  001205417010                           ;" *%AX("
004152:  001266142000                           ;" *V,0 "
004153:  000325300010                           ;" #58 ("
004154:  001326142000                           ;" +6,0 "
004155:  000525300010                           ;" %58 ("
004156:  002065300010                           ;" 0U8 ("
004157:  001626640000                           ;" .6T  "
004160:  002345300010                           ;" 3E8 ("
004161:  002505417010                           ;" 5%AX("
004162:  001266143000                           ;" *V,8 "
004163:  000145300010                           ;" !E8 ("
004164:  002406142000                           ;" 4&,0 "
004165:  000424022000                           ;" $4"0 "
004166:  000446142000                           ;" $F,0 "
004167:  000525300010                           ;" %58 ("
004170:  002146022000                           ;" 1F"0 "
004171:  001406062000                           ;" ,&&0 "
004172:  001725300010                           ;" /58 ("
004173:  001750040000                           ;" /H$  "
004174:  004546022000                           ;" EF"0 "
004175:  001006062000                           ;" (&&0 "
004176:  001325300010                           ;" +58 ("
004177:  002005602000                           ;" 0%P0 "
004200:  004546142000                           ;" EF,0 "
004201:  001364022000                           ;" +T"0 "
004202:  000526142000                           ;" %6,0 "
004203:  001364022000                           ;" +T"0 "
004204:  001366143000                           ;" +V,8 "
004205:  000745300010                           ;" 'E8 ("
004206:  002242762100                           ;" 2B^1 "
004207:  000006042000                           ;"  &$0 "
004210:  000145300010                           ;" !E8 ("
004211:  001604120010                           ;" .$* ("
004212:  000004040100                           ;"  $$! "
004213:  000025300010                           ;"  58 ("
004214:  000566640000                           ;" %VT  "
004215:  002365300010                           ;" 3U8 ("
004216:  002206143000                           ;" 2&,8 "
004217:  000145300010                           ;" !E8 ("
004220:  001606143000                           ;" .&,8 "
004221:  000525300010                           ;" %58 ("
004222:  002344022000                           ;" 3D"0 "
004223:  000465300010                           ;" $U8 ("
004224:  002066142000                           ;" 0V,0 "
004225:  000753422000                           ;" 'KB0 "
004226:  001346142000                           ;" +F,0 "
004227:  000773422000                           ;" '[B0 "
004230:  001006522010                           ;" (&J0("
004231:  002064023000                           ;" 0T"8 "
004232:  000402763000                           ;" $"^8 "
004233:  000005300010                           ;"  %8 ("
004234:  002066640000                           ;" 0VT  "
004235:  002365300010                           ;" 3U8 ("
004236:  002225300010                           ;" 258 ("
004237:  002326640000                           ;" 36T  "
004240:  002365300010                           ;" 3U8 ("
004241:  001646042000                           ;" .F$0 "
004242:  000726142000                           ;" '6,0 "
004243:  000565300010                           ;" %U8 ("
004244:  001651740000                           ;" .I\  "
004245:  002331740000                           ;" 39\  "
004246:  002344023000                           ;" 3D"8 "
004247:  000565300010                           ;" %U8 ("
004250:  001646740000                           ;" .F\  "
004251:  002325300010                           ;" 358 ("
004252:  002604022000                           ;" 6$"0 "
004253:  000564023000                           ;" %T"8 "
004254:  000150040000                           ;" !H$  "
004255:  002322660100                           ;" 32V! "
004256:  000005300010                           ;"  %8 ("
004257:  001650040000                           ;" .H$  "
004260:  002345417010                           ;" 3EAX("
004261:  001264022000                           ;" *T"0 "
004262:  000144023000                           ;" !D"8 "
004263:  000125300010                           ;" !58 ("
004264:  001645417010                           ;" .EAX("
004265:  001204025000                           ;" *$"H "
004266:  000005417010                           ;"  %AX("
004267:  001266442010                           ;" *VD0("
004270:  003106142000                           ;" 9&,0 "
004271:  000444022000                           ;" $D"0 "
004272:  000426143000                           ;" $6,8 "
004273:  000405300010                           ;" $%8 ("
004274:  003166142000                           ;" 9V,0 "
004275:  001364022000                           ;" +T"0 "
004276:  001366142000                           ;" +V,0 "
004277:  000524022000                           ;" %4"0 "
004300:  001366142000                           ;" +V,0 "
004301:  000464022000                           ;" $T"0 "
004302:  000522762100                           ;" %2^1 "
004303:  000006042000                           ;"  &$0 "
004304:  000147105010                           ;" !G(H("
004305:  002664022000                           ;" 6T"0 "
004306:  000122742100                           ;" !2\1 "
004307:  000004000100                           ;"  $ ! "
004310:  000004040000                           ;"  $$  "
004311:  002044000010                           ;" 0D  ("
004312:  006744040100                           ;" WD$! "
004313:  000001560000                           ;"  !N  "
004314:  000005477000                           ;"  %GX "
004315:  000006142000                           ;"  &,0 "
004316:  000405300010                           ;" $%8 ("
004317:  003346142000                           ;" ;F,0 "
004320:  001353422000                           ;" +KB0 "
004321:  000746142000                           ;" 'F,0 "
004322:  001013422000                           ;" (+B0 "
004323:  000766142000                           ;" 'V,0 "
004324:  000525300010                           ;" %58 ("
004325:  003006522010                           ;" 8&J0("
004326:  003004023000                           ;" 8$"8 "
004327:  000746620000                           ;" 'FR  "
004330:  000024023000                           ;"  4"8 "
004331:  000522762100                           ;" %2^1 "
004332:  000002743100                           ;"  "\9 "
004333:  000007105010                           ;"  '(H("
004334:  003054145000                           ;" 8L,H "
004335:  000065300010                           ;"  U8 ("
004336:  003047105010                           ;" 8G(H("
004337:  003414145000                           ;" <,,H "
004340:  000065300010                           ;"  U8 ("
004341:  003502702000                           ;" ="X0 "
004342:  000006142000                           ;"  &,0 "
004343:  000407105010                           ;" $'(H("
004344:  003404040000                           ;" <$$  "
004345:  002722703000                           ;" 72X8 "
004346:  000007105010                           ;"  '(H("
004347:  002704022000                           ;" 7$"0 "
004350:  000102762000                           ;" !"^0 "
004351:  002724022000                           ;" 74"0 "
004352:  000002742000                           ;"  "\0 "
004353:  002726240000                           ;" 764  "
004354:  002725300010                           ;" 758 ("
004355:  003527105010                           ;" =7(H("
004356:  003044024000                           ;" 8D"@ "
004357:  002724120100                           ;" 74*! "
004360:  000013020100                           ;"  +"! "
004361:  000010040100                           ;"  ($! "
004362:  000005220100                           ;"  %2! "
004363:  000245477000                           ;" "EGX "
004364:  000005417010                           ;"  %AX("
004365:  003665300010                           ;" >U8 ("
004366:  000565417010                           ;" %UAX("
004367:  003565417010                           ;" =UAX("
004370:  001205417010                           ;" *%AX("
004371:  003104021000                           ;" 9$"( "
004372:  000004041000                           ;"  $$( "
004373:  010745477000                           ;"!'EGX "
004374:  000013201000                           ;"  +0( "
004375:  001706061000                           ;" /&&( "
004376:  000045304010                           ;"  E8@("
004377:  000105201000                           ;" !%0( "
004400:  001705300030                           ;" /%8 8"
004401:  004025304010                           ;" @58@("
004402:  000105300010                           ;" !%8 ("
004403:  004105300010                           ;" A%8 ("
004404:  004325300010                           ;" C58 ("
004405:  004645300010                           ;" FE8 ("
004406:  005345300010                           ;" KE8 ("
004407:  004634161000                           ;" F<.( "
004410:  000005300010                           ;"  %8 ("
004411:  004145417010                           ;" AEAX("
004412:  004765300010                           ;" GU8 ("
004413:  004601501000                           ;" F!H( "
004414:  000001541000                           ;"  !L( "
004415:  000004020000                           ;"  $"  "
004416:  000021461000                           ;"  1F( "
004417:  200005300010  move     0, 300010(5)    ;"0 %8 ("
004420:  004226660000                           ;" B6V  "
004421:  002105300010                           ;" 1%8 ("
004422:  004264020000                           ;" BT"  "
004423:  000044121004                           ;"  D*($"
004424:  740004041000  blki     400, 41000(4)   ;"\ $$( "
004425:  002541461016                           ;" 5AF(."
004426:  400004020000  setz     0, 20000(4)     ;"@ $"  "
004427:  000144040000                           ;" !D$  "
004430:  001765300010                           ;" /U8 ("
004431:  000574161000                           ;" %\.( "
004432:  000005300010                           ;"  %8 ("
004433:  004525417010                           ;" E5AX("
004434:  004765300010                           ;" GU8 ("
004435:  004424020000                           ;" D4"  "
004436:  000164001000                           ;" !T ( "
004437:  002401161000                           ;" 4!.( "
004440:  000054061000                           ;"  L&( "
004441:  000045300010                           ;"  E8 ("
004442:  004304020000                           ;" C$"  "
004443:  000010040000                           ;"  ($  "
004444:  002461761000                           ;" 4Q^( "
004445:  002444020000                           ;" 4D"  "
004446:  000121521000                           ;" !1J( "
004447:  000001561000                           ;"  !N( "
004450:  000005300010                           ;"  %8 ("
004451:  004304021000                           ;" C$"( "
004452:  001765641000                           ;" /UT( "
004453:  002101561000                           ;" 1!N( "
004454:  000004020000                           ;"  $"  "
004455:  000006640000                           ;"  &T  "
004456:  001724020000                           ;" /4"  "
004457:  000025300010                           ;"  58 ("
004460:  004264020000                           ;" BT"  "
004461:  000105300010                           ;" !%8 ("
004462:  004304020000                           ;" C$"  "
004463:  000165300010                           ;" !U8 ("
004464:  004305417010                           ;" C%AX("
004465:  004765300010                           ;" GU8 ("
004466:  004610040000                           ;" F($  "
004467:  002444020000                           ;" 4D"  "
004470:  000041321000                           ;"  A:( "
004471:  002444020000                           ;" 4D"  "
004472:  000145300010                           ;" !E8 ("
004473:  004301621000                           ;" C!R( "
004474:  000005300010                           ;"  %8 ("
004475:  000566742000                           ;" %V\0 "
004476:  001724002010                           ;" /4 0("
004477:  006764020000                           ;" WT"  "
004500:  000065042000                           ;"  U$0 "
004501:  000014062016                           ;"  ,&0."
004502:  700015022010  blki     apr, 22010(15)  ;"X -"0("
004503:  000005141000                           ;"  %,( "
004504:  000067560010                           ;"  WN ("
004505:  005004041000                           ;" H$$( "
004506:  002404020000                           ;" 4$"  "
004507:  002504040000                           ;" 5$$  "
004510:  001204000000                           ;" *$   "
004511:  001705417010                           ;" /%AX("
004512:  005275422014                           ;" J]B0,"
004513:  161004042000                           ;".($$0 "
004514:  002444000000                           ;" 4D   "
004515:  001745417010                           ;" /EAX("
004516:  005275002016                           ;" J] 0."
004517:  200012342000  move     0, 342000(12)   ;"0 *<0 "
004520:  002465300000                           ;" 4U8  "
004521:  002401741000                           ;" 4!\( "
004522:  002445477000                           ;" 4EGX "
004523:  000007200360                           ;"  '0#P"
004524:  000005477000                           ;"  %GX "
004525:  000004122010                           ;"  $*0("
004526:  400004620000  setz     0, 620000(4)    ;"@ $R  "
004527:  000125121016                           ;" !5*(."
004530:  777726521010  consz    774, @521010(6) ;"__6J(("
004531:  005275602010                           ;" J]P0("
004532:  006765477000                           ;" WUGX "
004533:  000005417010                           ;"  %AX("
004534:  003565417010                           ;" =UAX("
004535:  001204000010                           ;" *$  ("
004536:  006405417010                           ;" T%AX("
004537:  005605417010                           ;" N%AX("
004540:  003565417010                           ;" =UAX("
004541:  001204000010                           ;" *$  ("
004542:  006445417010                           ;" TEAX("
004543:  005610040000                           ;" N($  "
004544:  001753620016                           ;" /KR ."
004545:  777464040000  datai    774, @40000(4)  ;"_\T$  "
004546:  002367200000                           ;" 3W0  "
004547:  001747220000                           ;" /G2  "
004550:  002365300010                           ;" 3U8 ("
004551:  004545417010                           ;" EEAX("
004552:  004765300010                           ;" GU8 ("
004553:  005465417010                           ;" LUAX("
004554:  005647201000                           ;" NG0( "
004555:  010746061000                           ;"!'F&( "
004556:  000665417010                           ;" &UAX("
004557:  003665300010                           ;" >U8 ("
004560:  005462701000                           ;" LRX( "
004561:  000002741100                           ;"  "\) "
004562:  000006541010                           ;"  &L(("
004563:  005605300010                           ;" N%8 ("
004564:  003105417010                           ;" 9%AX("
004565:  003565417010                           ;" =UAX("
004566:  001204000000                           ;" *$   "
004567:  001745417010                           ;" /EAX("
004570:  006524220000                           ;" U42  "
004571:  000124021000                           ;" !4"( "
004572:  000402741100                           ;" $"\) "
004573:  000007020010                           ;"  '" ("
004574:  005733000000                           ;" O;   "
004575:  002470120000                           ;" 4X*  "
004576:  077764620000                           ;"'_TR  "
004577:  000364040000                           ;" #T$  "
004600:  000024000000                           ;"  4   "
004601:  000005620000                           ;"  %R  "
004602:  000005417010                           ;"  %AX("
004603:  006524000000                           ;" U4   "
004604:  000024620000                           ;"  4R  "
004605:  000144002010                           ;" !D 0("
004606:  006225602000                           ;" R5P0 "
004607:  000013623016                           ;"  +R8."
004610:  777722701000  consz    774, @701000(2) ;"__2X( "
004611:  000022741100                           ;"  2\) "
004612:  000007023010                           ;"  '"8("
004613:  006105620000                           ;" Q%R  "
004614:  001005417010                           ;" (%AX("
004615:  006524020000                           ;" U4"  "
004616:  000142740100                           ;" !B\! "
004617:  000004020000                           ;"  $"  "
004620:  000122740100                           ;" !2\! "
004621:  000005300010                           ;"  %8 ("
004622:  003100216010                           ;" 9 1P("
004623:  006225545202                           ;" R5LJ""
004624:  471325543212  orcbi    6, @543212(5)   ;"G+5L:*" "N--FE"
004625:  411325546602  andcai   6, @546602(5)   ;"A+5LV"" "B--MA"
004626:  511325540640  hllzi    6, @540640(5)   ;"I+5L&@" "R--AP"
004627:  511325546602  hllzi    6, @546602(5)   ;"I+5LV"" "R--MA"
004630:  545325545252  hlri     6, @545252(5)   ;"LK5LJJ" "Y--JU"
004631:  471325545252  orcbi    6, @545252(5)   ;"G+5LJJ" "N--JU"
004632:  461325540652  setcmi   6, @540652(5)   ;"F+5L&J" "L--AU"
004633:  435325551612  ori      6, @551612(5)   ;"CK5M.*" "G--SE"
004634:  501325547606                           ;"H+5L^&" "P--OC"
004635:  521325547236  hlloi    6, @547236(5)   ;"J+5LZ>" "T--NO"
004636:  531325542212  hllei    6, @542212(5)   ;"K+5L2*" "V--DE"
004637:  415320216010                           ;"AK01P("
004640:  006404020100                           ;" T$"! "
004641:  202232442632  movem    4, @442632(12)  ;"02:D6:" " ITEM"
004642:  266311151650  jsa      6, 151650(11)   ;"6S)-.H" "-LIST"
004643:  050000000000                           ;"%     " "\n\0\0\0\0"
004644:  000043402002                           ;"  C@0""
004645:  512232442632  hllzm    4, @442632(12)  ;"I2:D6:" "RITEM"
004646:  201004020100  movei    0, 20100(4)     ;"0($"! " "     "
004647:  201004020210  movei    0, 20210(4)     ;"0($""(" "    D"
004650:  406510505000  andm     12, 505000(10)  ;"@U(HH " "ATE\n\0"
004651:  231000000012  idivi    0, 12           ;"3(   *"
004652:  271040000060  addi     1, 60           ;"7(@  P"
004653:  261740000000  push     17, 0           ;"6/@   " ",>\0\0\0"
004654:  326000400660  jumpn    0, 400660       ;":P @&P"
004655:  201000000040  movei    0, 40           ;"0(   @"
004656:  261740000000  push     17, 0           ;"6/@   " ",>\0\0\0"
004657:  254000400664  jrst     400664          ;"5@ @&T"
004660:  231000000012  idivi    0, 12           ;"3(   *"
004661:  271040000060  addi     1, 60           ;"7(@  P"
004662:  261740000000  push     17, 0           ;"6/@   " ",>\0\0\0"
004663:  262740000000  pop      17, 0           ;"67@   " ",^\0\0\0"
004664:  136004000000  idpb     0, (4)          ;"+P$   "
004665:  262740000000  pop      17, 0           ;"67@   " ",^\0\0\0"
004666:  136004000000  idpb     0, (4)          ;"+P$   "
004667:  263740000000  popj     17,             ;"6?@   "
004670:  556364515544  hlrzm    7, @515544(4)   ;"MSTIMD" "[O%\0332"
004671:  435762450000  ori      17, @450000(2)  ;"CORE  "
004672:  010700000274                           ;"!'  "\"
004673:  100700000316                           ;"('  #."
004674:  000021000272                           ;"  1 "Z"
004675:  422471300000  andcmm   11, @300000(11) ;"B4Y8  " "DSK\0\0"
004676:  202020202020  movem    0, @202020      ;"000000"
004677:  254200400700  halt     400700          ;"5B @' "
004700:  264000000456  jsr      456             ;"6@  $N"
004701:  322200400706  jumpe    4, 400706       ;":2 @'&"
004702:  327040400710  jumpg    1, 400710       ;":X@@'("
004703:  200040000004  move     1, 4            ;"0 @  $"
004704:  200100000004  move     2, 4            ;"0!   $"
004705:  200140000006  move     3, 6            ;"0!@  &"
004706:  254120000460  jrstf    @460            ;"5A0 $P"
004707:  317140000006  camg     3, 6            ;"9Y@  &"
004710:  254000400756  jrst     400756          ;"5@ @'N"
004711:  312100000004  came     2, 4            ;"91   $"
004712:  213000000004  movns    0, 4            ;"18   $"
004713:  276140000006  subm     3, 6            ;"7Q@  &"
004714:  303300000012  caile    6, 12           ;"8;   *"
004715:  254000400706  jrst     400706          ;"5@ @'&"
004716:  546100000160  hlrm     2, 160          ;"LQ  !P"
004717:  240200000000  ash      4, 0            ;"4"    "
004720:  240040000000  ash      1, 0            ;"4 @   "
004721:  224046402616  mul      1, 402616(6)    ;"2@F@6."
004722:  255400400724  jov      400724          ;"5L @'4"
004723:  270100000004  add      2, 4            ;"7!   $"
004724:  255400400766  jov      400766          ;"5L @'V"
004725:  623100400000  tlze     2, 400000       ;"R9 @  "
004726:  275040000000  subi     1, 0            ;"7H@   " "/\"\0\0\0"
004727:  234046402616  div      1, 402616(6)    ;"3@F@6."
004730:  322040400770  jumpe    1, 400770       ;":0@@'X"
004731:  311040400774  caml     1, 400774       ;"9(@@'\"
004732:  254000400746  jrst     400746          ;"5@ @'F"
004733:  200200000002  move     4, 2            ;"0"   ""
004734:  225200000012  muli     4, 12           ;"2J   *"
004735:  234206402616  div      4, 402616(6)    ;"3B&@6."
004736:  221040000012  imuli    1, 12           ;"2(@  *"
004737:  270040000004  add      1, 4            ;"7 @  $"
004740:  370000000002  sos      0, 2            ;"?    ""
004741:  311040400774  caml     1, 400774       ;"9(@@'\"
004742:  254000400746  jrst     400746          ;"5@ @'F"
004743:  221040000012  imuli    1, 12           ;"2(@  *"
004744:  254000400740  jrst     400740          ;"5@ @'@"
004745:  315040400776  camge    1, 400776       ;"9H@@'^"
004746:  254000400752  jrst     400752          ;"5@ @'J"
004747:  350000000002  aos      0, 2            ;"=    ""
004750:  231040000012  idivi    1, 12           ;"3(@  *"
004751:  350000000000  aos      0, 0            ;"=     " ":\0\0\0\0"
004752:  240040777776  ash      1, 777776       ;"4 @__^"
004753:  256000000160  xct      160             ;"5P  !P"
004754:  254120000460  jrstf    @460            ;"5A0 $P"
004755:  311140000006  caml     3, 6            ;"9)@  &"
004756:  254000400764  jrst     400764          ;"5@ @'T"
004757:  250100000004  exch     2, 4            ;"5!   $"
004760:  250140000006  exch     3, 6            ;"5!@  &"
004761:  250040000004  exch     1, 4            ;"5 @  $"
004762:  254000400712  jrst     400712          ;"5@ @'*"
004763:  315040000004  camge    1, 4            ;"9H@  $"
004764:  254000400760  jrst     400760          ;"5@ @'P"
004765:  254000400712  jrst     400712          ;"5@ @'*"
004766:  621100400000  tlz      2, 400000       ;"R) @  "
004767:  344040400730  aoja     1, 400730       ;"<@@@'8"
004770:  326100400732  jumpn    2, 400732       ;":Q @':"
004771:  403040000002  setzb    1, 2            ;"@8@  ""
004772:  201100000000  movei    2, 0            ;"0)    " " $\0\0\0"
004773:  254000400706  jrst     400706          ;"5@ @'&"
004774:  001372741000                           ;" +Z\( "
004775:  016715311776                           ;"!W-9/^"
004776:  322200401002  jumpe    4, 401002       ;":2 @(""
004777:  641200400000  tlc      4, 400000       ;"T* @  "
005000:  264000000460  jsr      460             ;"6@  $P"
005001:  254120000502  jrstf    @502            ;"5A0 %""
005002:  402000000002  setzm    2               ;"@0   ""
005003:  623040400000  tlze     1, 400000       ;"R8@@  "
005004:  661100400000  tlo      2, 400000       ;"V) @  "
005005:  254120000502  jrstf    @502            ;"5A0 %""
005006:  264000000456  jsr      456             ;"6@  $N"
005007:  326200401014  jumpn    4, 401014       ;":R @(,"
005010:  201040000000  movei    1, 0            ;"0(@   " " \"\0\0\0"
005011:  403100000002  setzb    2, 2            ;"@9   ""
005012:  254120000466  jrstf    @466            ;"5A0 $V"
005013:  322040401012  jumpe    1, 401012       ;":0@@(*"
005014:  430100000004  xor      2, 4            ;"C!   $"
005015:  270140000006  add      3, 6            ;"7!@  &"
005016:  240200000000  ash      4, 0            ;"4"    "
005017:  224200000000  mul      4, 0            ;"2B    "
005020:  541300000010  hrri     6, 10           ;"L+   ("
005021:  311200401036  caml     4, 401036       ;"9* @(>"
005022:  254000401030  jrst     401030          ;"5@ @(8"
005023:  234206402616  div      4, 402616(6)    ;"3B&@6."
005024:  271200000000  addi     4, 0            ;"7*    " ".(\0\0\0"
005025:  240200777776  ash      4, 777776       ;"4" __^"
005026:  200040000004  move     1, 4            ;"0 @  $"
005027:  254000401012  jrst     401012          ;"5@ @(*"
005030:  312200401036  came     4, 401036       ;"92 @(>"
005031:  254000401034  jrst     401034          ;"5@ @(<"
005032:  315240401040  camge    5, 401040       ;"9J@@(@"
005033:  254000401024  jrst     401024          ;"5@ @(4"
005034:  541300000010  hrri     6, 10           ;"L+   ("
005035:  344140401024  aoja     3, 401024       ;"<A@@(4"
005036:  000026150536                           ;"  6-%>"
005037:  026507417400                           ;""U'A\ "
005040:  264000000456  jsr      456             ;"6@  $N"
005041:  326200401044  jumpn    4, 401044       ;":R @(D"
005042:  254120000462  jrstf    @462            ;"5A0 $R"
005043:  326040401046  jumpn    1, 401046       ;":P@@(F"
005044:  350000000462  aos      0, 462          ;"=   $R"
005045:  254120000462  jrstf    @462            ;"5A0 $R"
005046:  430100000004  xor      2, 4            ;"C!   $"
005047:  274140000006  sub      3, 6            ;"7A@  &"
005050:  201240000010  movei    5, 10           ;"0*@  ("
005051:  315040000004  camge    1, 4            ;"9H@  $"
005052:  254000401064  jrst     401064          ;"5@ @(T"
005053:  200245402616  move     5, 402616(5)    ;"0"E@6."
005054:  240040000000  ash      1, 0            ;"4 @   "
005055:  224240000000  mul      5, 0            ;"2B@   " "%\n\0\0\0"
005056:  234240000004  div      5, 4            ;"3B@  $"
005057:  271240000000  addi     5, 0            ;"7*@   " ".*\0\0\0"
005060:  240240777776  ash      5, 777776       ;"4"@__^"
005061:  200040000004  move     1, 4            ;"0 @  $"
005062:  254000401044  jrst     401044          ;"5@ @(D"
005063:  541240000010  hrri     5, 10           ;"L*@  ("
005064:  364140401054  soja     3, 401054       ;">A@@(L"
005065:  264000000456  jsr      456             ;"6@  $N"
005066:  254000401110  jrst     401110          ;"5@ @)("
005067:  250040001012  exch     1, 1012         ;"5 @ (*"
005070:  271040000002  addi     1, 2            ;"7(@  ""
005071:  250040001012  exch     1, 1012         ;"5 @ (*"
005072:  254000401102  jrst     401102          ;"5@ @)""
005073:  250040001012  exch     1, 1012         ;"5 @ (*"
005074:  271040000002  addi     1, 2            ;"7(@  ""
005075:  250040001012  exch     1, 1012         ;"5 @ (*"
005076:  254000401102  jrst     401102          ;"5@ @)""
005077:  350000001012  aos      0, 1012         ;"=   (*"
005100:  254000401102  jrst     401102          ;"5@ @)""
005101:  254000401102  jrst     401102          ;"5@ @)""
005102:  200340000522  move     7, 522          ;"0#@ %2"
005103:  200400000522  move     10, 522         ;"0$  %2"
005104:  200440000524  move     11, 524         ;"0$@ %4"
005105:  200000000524  move     0, 524          ;"0   %4"
005106:  254120001012  jrstf    @1012           ;"5A0 (*"
005107:  202340000522  movem    7, 522          ;"03@ %2"
005110:  202400000522  movem    10, 522         ;"04  %2"
005111:  202440000524  movem    11, 524         ;"04@ %4"
005112:  202000000524  movem    0, 524          ;"00  %4"
005113:  326200401120  jumpn    4, 401120       ;":R @)0"
005114:  403100000002  setzb    2, 2            ;"@9   ""
005115:  200040402626  move     1, 402626       ;"0 @@66"
005116:  254000401070  jrst     401070          ;"5@ @(X"
005117:  326040401222  jumpn    1, 401222       ;":P@@*2"
005120:  326240401074  jumpn    5, 401074       ;":R@@(\"
005121:  254000401070  jrst     401070          ;"5@ @(X"
005122:  202100000520  movem    2, 520          ;"01  %0"
005123:  321300401200  jumpl    6, 401200       ;":+ @* "
005124:  303300000010  caile    6, 10           ;"8;   ("
005125:  254000401230  jrst     401230          ;"5@ @*8"
005126:  202200000516  movem    4, 516          ;"02  %."
005127:  202240000516  movem    5, 516          ;"02@ %."
005130:  202300000520  movem    6, 520          ;"03  %0"
005131:  211306777770  movni    6, 777770(6)    ;"1+&__X"
005132:  230206402616  idiv     4, 402616(6)    ;"3"&@6."
005133:  326240401162  jumpn    5, 401162       ;":R@@)R"
005134:  302200000000  caie     4, 0            ;"82    " "0H\0\0\0"
005135:  254000401152  jrst     401152          ;"5@ @)J"
005136:  336000000516  skipn    0, 516          ;";P  %."
005137:  254000401070  jrst     401070          ;"5@ @(X"
005140:  200200402626  move     4, 402626       ;"0" @66"
005141:  403240000006  setzb    5, 6            ;"@:@  &"
005142:  250040000004  exch     1, 4            ;"5 @  $"
005143:  250100000004  exch     2, 4            ;"5!   $"
005144:  250140000006  exch     3, 6            ;"5!@  &"
005145:  434040000002  or       1, 2            ;"C@@  ""
005146:  434200000004  or       4, 4            ;"CB   $"
005147:  264000000462  jsr      462             ;"6@  $R"
005150:  254000401100  jrst     401100          ;"5@ @) "
005151:  254000401070  jrst     401070          ;"5@ @(X"
005152:  316040402626  camn     1, 402626       ;"9P@@66"
005153:  254000401232  jrst     401232          ;"5@ @*:"
005154:  307200000034  caig     4, 34           ;"8Z   <"
005155:  254000401240  jrst     401240          ;"5@ @*@"
005156:  627100400000  tlzn     2, 400000       ;"RY @  "
005157:  254000401162  jrst     401162          ;"5@ @)R"
005160:  606200000000  trnn     4, 0            ;"PR    " "aH\0\0\0"
005161:  202100000520  movem    2, 520          ;"01  %0"
005162:  200200000516  move     4, 516          ;"0"  %."
005163:  200240000516  move     5, 516          ;"0"@ %."
005164:  200300000520  move     6, 520          ;"0#  %0"
005165:  434040000002  or       1, 2            ;"C@@  ""
005166:  264000000464  jsr      464             ;"6@  $T"
005167:  254000401102  jrst     401102          ;"5@ @)""
005170:  434040000002  or       1, 2            ;"C@@  ""
005171:  434200000004  or       4, 4            ;"CB   $"
005172:  264000000466  jsr      466             ;"6@  $V"
005173:  434040000002  or       1, 2            ;"C@@  ""
005174:  264000000470  jsr      470             ;"6@  $X"
005175:  254000401100  jrst     401100          ;"5@ @) "
005176:  200100000520  move     2, 520          ;"0!  %0"
005177:  254000401070  jrst     401070          ;"5@ @(X"
005200:  326100401102  jumpn    2, 401102       ;":Q @)""
005201:  312300401316  came     6, 401316       ;"93 @+."
005202:  254000401166  jrst     401166          ;"5@ @)V"
005203:  312200401316  came     4, 401316       ;"92 @+."
005204:  254000401166  jrst     401166          ;"5@ @)V"
005205:  434040000002  or       1, 2            ;"C@@  ""
005206:  264000000472  jsr      472             ;"6@  $Z"
005207:  254000401102  jrst     401102          ;"5@ @)""
005210:  322240401070  jumpe    5, 401070       ;":2@@(X"
005211:  200200402626  move     4, 402626       ;"0" @66"
005212:  403240000006  setzb    5, 6            ;"@:@  &"
005213:  250040000004  exch     1, 4            ;"5 @  $"
005214:  250140000006  exch     3, 6            ;"5!@  &"
005215:  434040000002  or       1, 2            ;"C@@  ""
005216:  434200000004  or       4, 4            ;"CB   $"
005217:  264000000462  jsr      462             ;"6@  $R"
005220:  254000401100  jrst     401100          ;"5@ @) "
005221:  254000401070  jrst     401070          ;"5@ @(X"
005222:  326100401122  jumpn    2, 401122       ;":Q @)2"
005223:  326140401122  jumpn    3, 401122       ;":Q@@)2"
005224:  312040402626  came     1, 402626       ;"90@@66"
005225:  254000401122  jrst     401122          ;"5@ @)2"
005226:  254000401070  jrst     401070          ;"5@ @(X"
005227:  201100000000  movei    2, 0            ;"0)    " " $\0\0\0"
005230:  202100000520  movem    2, 520          ;"01  %0"
005231:  254000401166  jrst     401166          ;"5@ @)V"
005232:  606200000000  trnn     4, 0            ;"PR    " "aH\0\0\0"
005233:  201100000000  movei    2, 0            ;"0)    " " $\0\0\0"
005234:  332000000516  skipe    0, 516          ;";0  %."
005235:  213000000004  movns    0, 4            ;"18   $"
005236:  220140000004  imul     3, 4            ;"2!@  $"
005237:  254000401070  jrst     401070          ;"5@ @(X"
005240:  200240000516  move     5, 516          ;"0"@ %."
005241:  200340402626  move     7, 402626       ;"0#@@66"
005242:  403440000010  setzb    11, 10          ;"@<@  ("
005243:  200000000004  move     0, 4            ;"0    $"
005244:  321240401302  jumpl    5, 401302       ;":*@@+""
005245:  202040000516  movem    1, 516          ;"00@ %."
005246:  202100000516  movem    2, 516          ;"01  %."
005247:  202140000520  movem    3, 520          ;"01@ %0"
005250:  606000000000  trnn     0, 0            ;"PP    " "a@\0\0\0"
005251:  254000401300  jrst     401300          ;"5@ @+ "
005252:  200200000006  move     4, 6            ;"0"   &"
005253:  200240000010  move     5, 10           ;"0"@  ("
005254:  200300000010  move     6, 10           ;"0#   ("
005255:  434040000002  or       1, 2            ;"C@@  ""
005256:  434200000004  or       4, 4            ;"CB   $"
005257:  264000000466  jsr      466             ;"6@  $V"
005260:  200340000000  move     7, 0            ;"0#@   "
005261:  200400000002  move     10, 2           ;"0$   ""
005262:  200440000002  move     11, 2           ;"0$@  ""
005263:  240000777776  ash      0, 777776       ;"4  __^"
005264:  322000401070  jumpe    0, 401070       ;":0 @(X"
005265:  200040000516  move     1, 516          ;"0 @ %."
005266:  200100000516  move     2, 516          ;"0!  %."
005267:  200140000520  move     3, 520          ;"0!@ %0"
005270:  200200000000  move     4, 0            ;"0"    "
005271:  200240000002  move     5, 2            ;"0"@  ""
005272:  200300000002  move     6, 2            ;"0#   ""
005273:  434040000002  or       1, 2            ;"C@@  ""
005274:  434200000004  or       4, 4            ;"CB   $"
005275:  264000000466  jsr      466             ;"6@  $V"
005276:  254000401246  jrst     401246          ;"5@ @*F"
005277:  240000777776  ash      0, 777776       ;"4  __^"
005300:  254000401270  jrst     401270          ;"5@ @*X"
005301:  200200000000  move     4, 0            ;"0"    "
005302:  200240000002  move     5, 2            ;"0"@  ""
005303:  200300000002  move     6, 2            ;"0#   ""
005304:  200040000006  move     1, 6            ;"0 @  &"
005305:  200100000010  move     2, 10           ;"0!   ("
005306:  200140000010  move     3, 10           ;"0!@  ("
005307:  434040000002  or       1, 2            ;"C@@  ""
005310:  434200000004  or       4, 4            ;"CB   $"
005311:  264000000462  jsr      462             ;"6@  $R"
005312:  254000401100  jrst     401100          ;"5@ @) "
005313:  254000401246  jrst     401246          ;"5@ @*F"
005314:  001556273514                           ;" -N7=,"
005315:  777777777776  conso    774, @777776(17);"_____^"
005316:  003563262400                           ;" =S64 "
005317:  264000000474  jsr      474             ;"6@  $\"
005320:  326040401324  jumpn    1, 401324       ;":P@@+4"
005321:  350000000472  aos      0, 472          ;"=   $Z"
005322:  254120000472  jrstf    @472            ;"5A0 $Z"
005323:  322100401326  jumpe    2, 401326       ;":1 @+6"
005324:  254120000472  jrstf    @472            ;"5A0 $Z"
005325:  202200000526  movem    4, 526          ;"02  %6"
005326:  202240000526  movem    5, 526          ;"02@ %6"
005327:  202300000530  movem    6, 530          ;"03  %8"
005330:  200300000000  move     6, 0            ;"0#    " " \f\0\0\0"
005331:  606140000000  trnn     3, 0            ;"PQ@   " "aF\0\0\0"
005332:  254000401366  jrst     401366          ;"5@ @+V"
005333:  221300000012  imuli    6, 12           ;"2+   *"
005334:  200040402626  move     1, 402626       ;"0 @@66"
005335:  240140777776  ash      3, 777776       ;"4!@__^"
005336:  200200000006  move     4, 6            ;"0"   &"
005337:  224200402626  mul      4, 402626       ;"2B @66"
005340:  234200000000  div      4, 0            ;"3B    "
005341:  276040000004  subm     1, 4            ;"7P@  $"
005342:  240040000000  ash      1, 0            ;"4 @   "
005343:  274040000004  sub      1, 4            ;"7@@  $"
005344:  240040777776  ash      1, 777776       ;"4 @__^"
005345:  301200023420  cail     4, 23420        ;"8* "<0"
005346:  254000401336  jrst     401336          ;"5@ @+>"
005347:  200200000006  move     4, 6            ;"0"   &"
005350:  224200402626  mul      4, 402626       ;"2B @66"
005351:  234200000000  div      4, 0            ;"3B    "
005352:  274200000000  sub      4, 0            ;"7B    "
005353:  305200000000  caige    4, 0            ;"8J    " "1(\0\0\0"
005354:  254000401360  jrst     401360          ;"5@ @+P"
005355:  307200000000  caig     4, 0            ;"8Z    " "1h\0\0\0"
005356:  322240401360  jumpe    5, 401360       ;":2@@+P"
005357:  350000000000  aos      0, 0            ;"=     " ":\0\0\0\0"
005360:  200200000526  move     4, 526          ;"0"  %6"
005361:  200240000526  move     5, 526          ;"0"@ %6"
005362:  200300000530  move     6, 530          ;"0#  %8"
005363:  350000000472  aos      0, 472          ;"=   $Z"
005364:  254120000472  jrstf    @472            ;"5A0 $Z"
005365:  200040401370  move     1, 401370       ;"0 @@+X"
005366:  254000401336  jrst     401336          ;"5@ @+>"
005367:  002266240330                           ;" 2V4#8"
005370:  264000000474  jsr      474             ;"6@  $\"
005371:  326040401376  jumpn    1, 401376       ;":P@@+^"
005372:  200040402626  move     1, 402626       ;"0 @@66"
005373:  350000000470  aos      0, 470          ;"=   $X"
005374:  254120000470  jrstf    @470            ;"5A0 $X"
005375:  202200000530  movem    4, 530          ;"02  %8"
005376:  202240000532  movem    5, 532          ;"02@ %:"
005377:  202300000532  movem    6, 532          ;"03  %:"
005400:  402000000534  setzm    534             ;"@0  %<"
005401:  301140000002  cail     3, 2            ;"8)@  ""
005402:  254000401506  jrst     401506          ;"5@ @-&"
005403:  306140000002  cain     3, 2            ;"8Q@  ""
005404:  254000401512  jrst     401512          ;"5@ @-*"
005405:  315140401526  camge    3, 401526       ;"9I@@-6"
005406:  254000401516  jrst     401516          ;"5@ @-."
005407:  623100400000  tlze     2, 400000       ;"R9 @  "
005410:  350000000534  aos      0, 534          ;"=   %<"
005411:  200200000000  move     4, 0            ;"0"    "
005412:  201240000000  movei    5, 0            ;"0*@   " " *\0\0\0"
005413:  321140401500  jumpl    3, 401500       ;":)@@- "
005414:  240200000004  ash      4, 4            ;"4"   $"
005415:  224203401532  mul      4, 401532(3)    ;"2B#@-:"
005416:  234200401530  div      4, 401530       ;"3B @-8"
005417:  201300000000  movei    6, 0            ;"0+    " " ,\0\0\0"
005420:  234240401530  div      5, 401530       ;"3B@@-8"
005421:  200140000004  move     3, 4            ;"0!@  $"
005422:  224240401530  mul      5, 401530       ;"2B@@-8"
005423:  244240000000  ashc     5, 0            ;"4B@   " ")\n\0\0\0"
005424:  200200000004  move     4, 4            ;"0"   $"
005425:  515040300000  hrlzi    1, 300000       ;"IH@8  "
005426:  515240200000  hrlzi    5, 200000       ;"IJ@0  "
005427:  224240000004  mul      5, 4            ;"2B@  $"
005430:  244240777774  ashc     5, 777774       ;"4B@__\"
005431:  234240000000  div      5, 0            ;"3B@   " "'\n\0\0\0"
005432:  270240401542  add      5, 401542       ;"7"@@-B"
005433:  274040401544  sub      1, 401544       ;"7@@@-D"
005434:  313040403436  camle    1, 403436       ;"98@@<>"
005435:  254000401430  jrst     401430          ;"5@ @,8"
005436:  224240000004  mul      5, 4            ;"2B@  $"
005437:  321240401442  jumpl    5, 401442       ;":*@@,B"
005440:  354000000004  aosa     0, 4            ;"=@   $"
005441:  370000000004  sos      0, 4            ;"?    $"
005442:  240240777776  ash      5, 777776       ;"4"@__^"
005443:  270240401542  add      5, 401542       ;"7"@@-B"
005444:  224240000004  mul      5, 4            ;"2B@  $"
005445:  244240000000  ashc     5, 0            ;"4B@   " ")\n\0\0\0"
005446:  321240401450  jumpl    5, 401450       ;":*@@,H"
005447:  354000000004  aosa     0, 4            ;"=@   $"
005450:  370000000004  sos      0, 4            ;"?    $"
005451:  240240777776  ash      5, 777776       ;"4"@__^"
005452:  270240401542  add      5, 401542       ;"7"@@-B"
005453:  224240000004  mul      5, 4            ;"2B@  $"
005454:  603300200000  tlne     6, 200000       ;"P; 0  "
005455:  350000000004  aos      0, 4            ;"=    $"
005456:  224240000004  mul      5, 4            ;"2B@  $"
005457:  603300200000  tlne     6, 200000       ;"P; 0  "
005460:  350000000004  aos      0, 4            ;"=    $"
005461:  200040000004  move     1, 4            ;"0 @  $"
005462:  376000000534  sosn     0, 534          ;"?P  %<"
005463:  254000401474  jrst     401474          ;"5@ @,\"
005464:  201100000004  movei    2, 4            ;"0)   $"
005465:  264000000476  jsr      476             ;"6@  $^"
005466:  201100000000  movei    2, 0            ;"0)    " " $\0\0\0"
005467:  200200000530  move     4, 530          ;"0"  %8"
005470:  200240000532  move     5, 532          ;"0"@ %:"
005471:  200300000532  move     6, 532          ;"0#  %:"
005472:  254000401374  jrst     401374          ;"5@ @+\"
005473:  515040001000  hrlzi    1, 1000         ;"IH@ ( "
005474:  201100000000  movei    2, 0            ;"0)    " " $\0\0\0"
005475:  234040000004  div      1, 4            ;"3@@  $"
005476:  213000000002  movns    0, 2            ;"18   ""
005477:  254000401464  jrst     401464          ;"5@ @,T"
005500:  217000000002  movms    0, 2            ;"1X   ""
005501:  244200777764  ashc     4, 777764       ;"4B __T"
005502:  234203401534  div      4, 401534(3)    ;"3B#@-<"
005503:  201140000000  movei    3, 0            ;"0)@   " " &\0\0\0"
005504:  254000401426  jrst     401426          ;"5@ @,6"
005505:  321100401510  jumpl    2, 401510       ;":) @-("
005506:  254120000470  jrstf    @470            ;"5A0 $X"
005507:  201040000000  movei    1, 0            ;"0(@   " " \"\0\0\0"
005510:  403100000002  setzb    2, 2            ;"@9   ""
005511:  254000401374  jrst     401374          ;"5@ @+\"
005512:  313040401532  camle    1, 401532       ;"98@@-:"
005513:  254000401506  jrst     401506          ;"5@ @-&"
005514:  254000401410  jrst     401410          ;"5@ @,("
005515:  403240000006  setzb    5, 6            ;"@:@  &"
005516:  200200402626  move     4, 402626       ;"0" @66"
005517:  434040000002  or       1, 2            ;"C@@  ""
005520:  434200000004  or       4, 4            ;"CB   $"
005521:  264000000460  jsr      460             ;"6@  $P"
005522:  200200000530  move     4, 530          ;"0"  %8"
005523:  200240000532  move     5, 532          ;"0"@ %:"
005524:  200300000532  move     6, 532          ;"0#  %:"
005525:  254000401374  jrst     401374          ;"5@ @+\"
005526:  777777777772  conso    774, @777772(17);"_____Z"
005527:  333456723246  skiple   11, 723246(16)  ;";<NZ:F" "6rw&S"
005530:  111535433566                           ;")-=C=V"
005531:  001556273514                           ;" -N7=,"
005532:  000000000010                           ;"     ("
005533:  000000000120                           ;"    !0"
005534:  000000001440                           ;"    ,@"
005535:  000007346544                           ;"  '<UD"
005536:  000112402762                           ;" !*@7R"
005537:  001351035564                           ;" +I#MT"
005540:  016432451210                           ;"!T:E*("
005541:  221411634520  imuli    10, 634520(11)  ;"2,)SE0" "$0N9("
005542:  200000000000  move     0, 0            ;"0     " " \0\0\0\0"
005543:  020000000000                           ;""     "
005544:  264000000474  jsr      474             ;"6@  $\"
005545:  321100401550  jumpl    2, 401550       ;":) @-H"
005546:  327040401550  jumpg    1, 401550       ;":X@@-H"
005547:  254120000464  jrstf    @464            ;"5A0 $T"
005550:  202200000534  movem    4, 534          ;"02  %<"
005551:  202240000536  movem    5, 536          ;"02@ %>"
005552:  202300000536  movem    6, 536          ;"03  %>"
005553:  327140401556  jumpg    3, 401556       ;":Y@@-N"
005554:  311140403436  caml     3, 403436       ;"9)@@<>"
005555:  254000401640  jrst     401640          ;"5@ @.@"
005556:  201300000002  movei    6, 2            ;"0+   ""
005557:  311040401724  caml     1, 401724       ;"9(@@/4"
005560:  254000401564  jrst     401564          ;"5@ @-T"
005561:  240040000000  ash      1, 0            ;"4 @   "
005562:  364300401560  soja     6, 401560       ;">C @-P"
005563:  200200401724  move     4, 401724       ;"0" @/4"
005564:  270200000000  add      4, 0            ;"7"    "
005565:  274040401724  sub      1, 401724       ;"7@@@/4"
005566:  240040000002  ash      1, 2            ;"4 @  ""
005567:  234040000004  div      1, 4            ;"3@@  $"
005570:  202040000542  movem    1, 542          ;"00@ %B"
005571:  224040000000  mul      1, 0            ;"2@@   "
005572:  271040000010  addi     1, 10           ;"7(@  ("
005573:  240040777774  ash      1, 777774       ;"4 @__\"
005574:  200200401726  move     4, 401726       ;"0" @/6"
005575:  571100777772  hrrei    2, 777772       ;"O) __Z"
005576:  224200000000  mul      4, 0            ;"2B    "
005577:  270202401734  add      4, 401734(2)    ;"7""@/<"
005600:  341100401576  aojl     2, 401576       ;"<) @-^"
005601:  224040000004  mul      1, 4            ;"2@@  $"
005602:  224040000542  mul      1, 542          ;"2@@ %B"
005603:  321040401606  jumpl    1, 401606       ;":(@@.&"
005604:  354000000000  aosa     0, 0            ;"=@    " ";\0\0\0\0"
005605:  370000000000  sos      0, 0            ;"?     " ">\0\0\0\0"
005606:  240040777776  ash      1, 777776       ;"4 @__^"
005607:  270040000542  add      1, 542          ;"7 @ %B"
005610:  200240401734  move     5, 401734       ;"0"@@/<"
005611:  224240000006  mul      5, 6            ;"2B@  &"
005612:  240140000002  ash      3, 2            ;"4!@  ""
005613:  224140401734  mul      3, 401734       ;"2A@@/<"
005614:  264000000500  jsr      500             ;"6@  % "
005615:  201140000002  movei    3, 2            ;"0)@  ""
005616:  305240000144  caige    5, 144          ;"8J@ !D"
005617:  240140777776  ash      3, 777776       ;"4!@__^"
005620:  305240000012  caige    5, 12           ;"8J@  *"
005621:  240140777776  ash      3, 777776       ;"4!@__^"
005622:  307240000000  caig     5, 0            ;"8Z@   " "1j\0\0\0"
005623:  571140777776  hrrei    3, 777776       ;"O)@__^"
005624:  234243402616  div      5, 402616(3)    ;"3BC@6."
005625:  350000000002  aos      0, 2            ;"=    ""
005626:  200040000004  move     1, 4            ;"0 @  $"
005627:  201100000000  movei    2, 0            ;"0)    " " $\0\0\0"
005630:  264000000476  jsr      476             ;"6@  $^"
005631:  322040401634  jumpe    1, 401634       ;":0@@.<"
005632:  200100000004  move     2, 4            ;"0!   $"
005633:  200200000534  move     4, 534          ;"0"  %<"
005634:  200240000536  move     5, 536          ;"0"@ %>"
005635:  200300000536  move     6, 536          ;"0#  %>"
005636:  350000000464  aos      0, 464          ;"=   $T"
005637:  254120000464  jrstf    @464            ;"5A0 $T"
005640:  322140401644  jumpe    3, 401644       ;":1@@.D"
005641:  315040403440  camge    1, 403440       ;"9H@@<@"
005642:  254000401556  jrst     401556          ;"5@ @-N"
005643:  254000401650  jrst     401650          ;"5@ @.H"
005644:  316040402626  camn     1, 402626       ;"9P@@66"
005645:  254000401722  jrst     401722          ;"5@ @/2"
005646:  313040403440  camle    1, 403440       ;"98@@<@"
005647:  254000401556  jrst     401556          ;"5@ @-N"
005650:  200200402626  move     4, 402626       ;"0" @66"
005651:  403240000006  setzb    5, 6            ;"@:@  &"
005652:  434040000002  or       1, 2            ;"C@@  ""
005653:  434200000004  or       4, 4            ;"CB   $"
005654:  264000000502  jsr      502             ;"6@  %""
005655:  202040000540  movem    1, 540          ;"00@ %@"
005656:  202100000540  movem    2, 540          ;"01  %@"
005657:  202140000542  movem    3, 542          ;"01@ %B"
005660:  224040000000  mul      1, 0            ;"2@@   "
005661:  234040402626  div      1, 402626       ;"3@@@66"
005662:  240140000000  ash      3, 0            ;"4!@   "
005663:  350000000002  aos      0, 2            ;"=    ""
005664:  200200000000  move     4, 0            ;"0"    "
005665:  200300000002  move     6, 2            ;"0#   ""
005666:  270300000542  add      6, 542          ;"7#  %B"
005667:  224200000540  mul      4, 540          ;"2B  %@"
005670:  234200402626  div      4, 402626       ;"3B @66"
005671:  350000000000  aos      0, 0            ;"=     " ":\0\0\0\0"
005672:  240040777776  ash      1, 777776       ;"4 @__^"
005673:  224200403442  mul      4, 403442       ;"2B @<B"
005674:  234200402626  div      4, 402626       ;"3B @66"
005675:  311040402626  caml     1, 402626       ;"9(@@66"
005676:  254000401702  jrst     401702          ;"5@ @/""
005677:  221040000012  imuli    1, 12           ;"2(@  *"
005700:  370000000002  sos      0, 2            ;"?    ""
005701:  311200402626  caml     4, 402626       ;"9* @66"
005702:  254000401706  jrst     401706          ;"5@ @/&"
005703:  221200000012  imuli    4, 12           ;"2*   *"
005704:  370000000006  sos      0, 6            ;"?    &"
005705:  515100400000  hrlzi    2, 400000       ;"II @  "
005706:  200240000540  move     5, 540          ;"0"@ %@"
005707:  434040000002  or       1, 2            ;"C@@  ""
005710:  434200000004  or       4, 4            ;"CB   $"
005711:  264000000460  jsr      460             ;"6@  $P"
005712:  200200000540  move     4, 540          ;"0"  %@"
005713:  200240000540  move     5, 540          ;"0"@ %@"
005714:  200300000542  move     6, 542          ;"0#  %B"
005715:  434040000002  or       1, 2            ;"C@@  ""
005716:  434200000004  or       4, 4            ;"CB   $"
005717:  264000000460  jsr      460             ;"6@  $P"
005720:  254000401634  jrst     401634          ;"5@ @.<"
005721:  402000000000  setzm    0               ;"@0    " "@@\0\0\0"
005722:  254000401634  jrst     401634          ;"5@ @.<"
005723:  004155726260                           ;" AMZRP"
005724:  005753604000                           ;" OKP@ "
005725:  047304730472  .access  6, 730472(4)    ;"$[$[$Z"
005726:  056427213506                           ;"%T71=&"
005727:  070707070706                           ;"'''''&"
005730:  111111111110                           ;")))))("
005731:  146314631462  fadrm    6, 631462(14)   ;",S,S,R"
005732:  252525252524  aobjp    12, @252524(5)  ;"555554" "*U*U*"
005733:  261344137676  push     7, 137676(4)    ;"6+D+^^" ",.!?_"
005734:  223273067354  imulb    5, @67354(13)   ;"2:[&[L" "$kXnv"
005735:  240040777776  ash      1, 777776       ;"4 @__^"
005736:  322200401742  jumpe    4, 401742       ;":2 @/B"
005737:  325140401742  jumpge   3, 401742       ;":I@@/B"
005740:  350000000002  aos      0, 2            ;"=    ""
005741:  255400401742  jov      401742          ;"5L @/B"
005742:  270300000000  add      6, 0            ;"7#    " ".\f\0\0\0"
005743:  255400401746  jov      401746          ;"5L @/F"
005744:  254000401750  jrst     401750          ;"5@ @/H"
005745:  641300400000  tlc      6, 400000       ;"T+ @  "
005746:  350000000004  aos      0, 4            ;"=    $"
005747:  270300000004  add      6, 4            ;"7#   $"
005750:  255400401752  jov      401752          ;"5L @/J"
005751:  254000401756  jrst     401756          ;"5@ @/N"
005752:  643300400000  tlce     6, 400000       ;"T; @  "
005753:  354000000004  aosa     0, 4            ;"=@   $"
005754:  370000000004  sos      0, 4            ;"?    $"
005755:  270240000002  add      5, 2            ;"7"@  ""
005756:  201200000000  movei    4, 0            ;"0*    " " (\0\0\0"
005757:  326240401764  jumpn    5, 401764       ;":R@@/T"
005760:  325320000500  jumpge   6, @500         ;":K0 % "
005761:  641200400000  tlc      4, 400000       ;"T* @  "
005762:  213000000006  movns    0, 6            ;"18   &"
005763:  254020000500  jrst     @500            ;"5@0 % "
005764:  327240401774  jumpg    5, 401774       ;":Z@@/\"
005765:  641200400000  tlc      4, 400000       ;"T* @  "
005766:  213000000004  movns    0, 4            ;"18   $"
005767:  213000000006  movns    0, 6            ;"18   &"
005770:  321300401772  jumpl    6, 401772       ;":+ @/Z"
005771:  254020000500  jrst     @500            ;"5@0 % "
005772:  364260000500  soja     5, @500         ;">BP % "
005773:  325320000500  jumpge   6, @500         ;":K0 % "
005774:  364260000500  soja     5, @500         ;">BP % "
005775:  264000000474  jsr      474             ;"6@  $\"
005776:  202200000546  movem    4, 546          ;"02  %F"
005777:  202240000550  movem    5, 550          ;"02@ %H"
006000:  202300000550  movem    6, 550          ;"03  %H"
006001:  200200001014  move     4, 1014         ;"0"  (,"
006002:  202200001016  movem    4, 1016         ;"02  (."
006003:  322040402010  jumpe    1, 402010       ;":0@@0("
006004:  200240000002  move     5, 2            ;"0"@  ""
006005:  551300000012  hrrzi    6, 12           ;"M+   *"
006006:  254000402032  jrst     402032          ;"5@ @0:"
006007:  200200000546  move     4, 546          ;"0"  %F"
006010:  200240000550  move     5, 550          ;"0"@ %H"
006011:  200300000550  move     6, 550          ;"0#  %H"
006012:  350000001016  aos      0, 1016         ;"=   (."
006013:  254120001016  jrstf    @1016           ;"5A0 (."
006014:  200200000546  move     4, 546          ;"0"  %F"
006015:  200240000550  move     5, 550          ;"0"@ %H"
006016:  200300000550  move     6, 550          ;"0#  %H"
006017:  254120001016  jrstf    @1016           ;"5A0 (."
006020:  264000000474  jsr      474             ;"6@  $\"
006021:  326040402024  jumpn    1, 402024       ;":P@@04"
006022:  200040402626  move     1, 402626       ;"0 @@66"
006023:  254000402012  jrst     402012          ;"5@ @0*"
006024:  202200000546  movem    4, 546          ;"02  %F"
006025:  202240000550  movem    5, 550          ;"02@ %H"
006026:  202300000550  movem    6, 550          ;"03  %H"
006027:  201300000012  movei    6, 12           ;"0+   *"
006030:  201240000000  movei    5, 0            ;"0*@   " " *\0\0\0"
006031:  301140000002  cail     3, 2            ;"8)@  ""
006032:  254000402014  jrst     402014          ;"5@ @0,"
006033:  327140402106  jumpg    3, 402106       ;":Y@@1&"
006034:  306300000012  cain     6, 12           ;"8S   *"
006035:  254000402040  jrst     402040          ;"5@ @0@"
006036:  317140402222  camg     3, 402222       ;"9Y@@22"
006037:  254000402146  jrst     402146          ;"5@ @1F"
006040:  201100000000  movei    2, 0            ;"0)    " " $\0\0\0"
006041:  244040777774  ashc     1, 777774       ;"4@@__\"
006042:  234040402626  div      1, 402626       ;"3@@@66"
006043:  322140402062  jumpe    3, 402062       ;":1@@0R"
006044:  213000000002  movns    0, 2            ;"18   ""
006045:  201100000000  movei    2, 0            ;"0)    " " $\0\0\0"
006046:  244040777740  ashc     1, 777740       ;"4@@__@"
006047:  234043402616  div      1, 402616(3)    ;"3@C@6."
006050:  313040402176  camle    1, 402176       ;"98@@1^"
006051:  254000402054  jrst     402054          ;"5@ @0L"
006052:  240040000000  ash      1, 0            ;"4 @   "
006053:  254000402116  jrst     402116          ;"5@ @1."
006054:  213000000000  movns    0, 0            ;"18    " "\"`\0\0\0"
006055:  270040402174  add      1, 402174       ;"7 @@1\"
006056:  240040000000  ash      1, 0            ;"4 @   "
006057:  302300000012  caie     6, 12           ;"83   *"
006060:  344300402116  aoja     6, 402116       ;"<C @1."
006061:  364300402116  soja     6, 402116       ;">C @1."
006062:  201100000000  movei    2, 0            ;"0)    " " $\0\0\0"
006063:  244040777736  ashc     1, 777736       ;"4@@__>"
006064:  234040402174  div      1, 402174       ;"3@@@1\"
006065:  200040000002  move     1, 2            ;"0 @  ""
006066:  317040402176  camg     1, 402176       ;"9X@@1^"
006067:  254000402074  jrst     402074          ;"5@ @0\"
006070:  213000000000  movns    0, 0            ;"18    " "\"`\0\0\0"
006071:  270040402174  add      1, 402174       ;"7 @@1\"
006072:  306300000012  cain     6, 12           ;"8S   *"
006073:  641240400000  tlc      5, 400000       ;"T*@@  "
006074:  240040000000  ash      1, 0            ;"4 @   "
006075:  317040402176  camg     1, 402176       ;"9X@@1^"
006076:  254000402104  jrst     402104          ;"5@ @1$"
006077:  213000000000  movns    0, 0            ;"18    " "\"`\0\0\0"
006100:  270040402174  add      1, 402174       ;"7 @@1\"
006101:  302300000012  caie     6, 12           ;"83   *"
006102:  641240400000  tlc      5, 400000       ;"T*@@  "
006103:  240040000000  ash      1, 0            ;"4 @   "
006104:  254000402050  jrst     402050          ;"5@ @0H"
006105:  221040000012  imuli    1, 12           ;"2(@  *"
006106:  201100000000  movei    2, 0            ;"0)    " " $\0\0\0"
006107:  244040777770  ashc     1, 777770       ;"4@@__X"
006110:  234040402626  div      1, 402626       ;"3@@@66"
006111:  201100000000  movei    2, 0            ;"0)    " " $\0\0\0"
006112:  244040777740  ashc     1, 777740       ;"4@@__@"
006113:  234040402174  div      1, 402174       ;"3@@@1\"
006114:  254000402066  jrst     402066          ;"5@ @0V"
006115:  200100000000  move     2, 0            ;"0!    "
006116:  224100000000  mul      2, 0            ;"2A    "
006117:  603140200000  tlne     3, 200000       ;"P9@0  "
006120:  350000000002  aos      0, 2            ;"=    ""
006121:  213000000002  movns    0, 2            ;"18   ""
006122:  200146402176  move     3, 402176(6)    ;"0!F@1^"
006123:  275300000002  subi     6, 2            ;"7K   ""
006124:  224140000002  mul      3, 2            ;"2A@  ""
006125:  224146402210  mul      3, 402210(6)    ;"2AF@2("
006126:  270146402176  add      3, 402176(6)    ;"7!F@1^"
006127:  303300000002  caile    6, 2            ;"8;   ""
006130:  254000402124  jrst     402124          ;"5@ @14"
006131:  302300000002  caie     6, 2            ;"83   ""
006132:  254000402144  jrst     402144          ;"5@ @1D"
006133:  224140000002  mul      3, 2            ;"2A@  ""
006134:  270140402176  add      3, 402176       ;"7!@@1^"
006135:  200040000002  move     1, 2            ;"0 @  ""
006136:  403100000002  setzb    2, 2            ;"@9   ""
006137:  264000000476  jsr      476             ;"6@  $^"
006140:  322040402010  jumpe    1, 402010       ;":0@@0("
006141:  200100000004  move     2, 4            ;"0!   $"
006142:  254000402010  jrst     402010          ;"5@ @0("
006143:  224040000002  mul      1, 2            ;"2@@  ""
006144:  254000402136  jrst     402136          ;"5@ @1>"
006145:  312140402222  came     3, 402222       ;"91@@22"
006146:  254000402152  jrst     402152          ;"5@ @1J"
006147:  313040000152  camle    1, 152          ;"98@ !J"
006150:  254000402040  jrst     402040          ;"5@ @0@"
006151:  202040000544  movem    1, 544          ;"00@ %D"
006152:  202100000544  movem    2, 544          ;"01  %D"
006153:  202140000546  movem    3, 546          ;"01@ %F"
006154:  224040000000  mul      1, 0            ;"2@@   "
006155:  234040403442  div      1, 403442       ;"3@@@<B"
006156:  240140000000  ash      3, 0            ;"4!@   "
006157:  515100400000  hrlzi    2, 400000       ;"II @  "
006160:  200200402626  move     4, 402626       ;"0" @66"
006161:  403240000006  setzb    5, 6            ;"@:@  &"
006162:  434040000002  or       1, 2            ;"C@@  ""
006163:  434200000004  or       4, 4            ;"CB   $"
006164:  264000000460  jsr      460             ;"6@  $P"
006165:  200200000544  move     4, 544          ;"0"  %D"
006166:  200240000544  move     5, 544          ;"0"@ %D"
006167:  200300000546  move     6, 546          ;"0#  %F"
006170:  434040000002  or       1, 2            ;"C@@  ""
006171:  434200000004  or       4, 4            ;"CB   $"
006172:  264000000466  jsr      466             ;"6@  $V"
006173:  254000402010  jrst     402010          ;"5@ @0("
006174:  311037552420  caml     0, @552420(17)  ;"9(?M40"
006175:  144417665210  fadr     10, 665210(17)  ;",D/VJ("
006176:  377777777776  sosg     17, @777776(17) ;"?____^"
006177:  200000000000  move     0, 0            ;"0     " " \0\0\0\0"
006200:  125252525252                           ;"*JJJJJ"
006201:  100000000000                           ;"(     "
006202:  063146314632                           ;"&9F9F:"
006203:  052525252524                           ;"%55554" "\nU*U*"
006204:  044444444444  .uset    11, 444444(4)   ;"$DDDDD"
006205:  040000000000  .iot     0, 0            ;"$     "
006206:  034343434344                           ;"#CCCCD"
006207:  031463146314                           ;"#,S,S,"
006210:  027213505642                           ;""Z+HNB"
006211:  200000000000  move     0, 0            ;"0     " " \0\0\0\0"
006212:  052525252524                           ;"%55554" "\nU*U*"
006213:  025252525252                           ;""JJJJJ"
006214:  014631463146                           ;"!F9F9F"
006215:  010421042104                           ;"!$1$1$"
006216:  006060606060                           ;" PPPPP"
006217:  004444444444                           ;" DDDDD"
006220:  003434343434                           ;" <<<<<"
006221:  002660266026                           ;" 6P6P6"
006222:  777777777776  conso    774, @777776(17);"_____^"
006223:  264000000456  jsr      456             ;"6@  $N"
006224:  254000402226  jrst     402226          ;"5@ @26"
006225:  254120001020  jrstf    @1020           ;"5A0 (0"
006226:  326040402234  jumpn    1, 402234       ;":P@@2<"
006227:  322200402226  jumpe    4, 402226       ;":2 @26"
006230:  200040402504  move     1, 402504       ;"0 @@5$"
006231:  201140000000  movei    3, 0            ;"0)@   " " &\0\0\0"
006232:  200100000004  move     2, 4            ;"0!   $"
006233:  254000402226  jrst     402226          ;"5@ @26"
006234:  326200402242  jumpn    4, 402242       ;":R @2B"
006235:  403140000000  setzb    3, 0            ;"@9@   " "@f\0\0\0"
006236:  322100402226  jumpe    2, 402226       ;":1 @26"
006237:  201100000000  movei    2, 0            ;"0)    " " $\0\0\0"
006240:  200040402502  move     1, 402502       ;"0 @@5""
006241:  254000402226  jrst     402226          ;"5@ @26"
006242:  430100000004  xor      2, 4            ;"C!   $"
006243:  322100402252  jumpe    2, 402252       ;":1 @2J"
006244:  322240402250  jumpe    5, 402250       ;":2@@2H"
006245:  201240000002  movei    5, 2            ;"0*@  ""
006246:  254000402256  jrst     402256          ;"5@ @2N"
006247:  201240000000  movei    5, 0            ;"0*@   " " *\0\0\0"
006250:  254000402256  jrst     402256          ;"5@ @2N"
006251:  322240402254  jumpe    5, 402254       ;":2@@2L"
006252:  201240000002  movei    5, 2            ;"0*@  ""
006253:  254000402256  jrst     402256          ;"5@ @2N"
006254:  201240000000  movei    5, 0            ;"0*@   " " *\0\0\0"
006255:  202140000552  movem    3, 552          ;"01@ %J"
006256:  274140000006  sub      3, 6            ;"7A@  &"
006257:  305140000006  caige    3, 6            ;"8I@  &"
006260:  254000402306  jrst     402306          ;"5@ @3&"
006261:  202240000552  movem    5, 552          ;"02@ %J"
006262:  200140000006  move     3, 6            ;"0!@  &"
006263:  200300000552  move     6, 552          ;"0#  %J"
006264:  250040000004  exch     1, 4            ;"5 @  $"
006265:  403240000002  setzb    5, 2            ;"@:@  ""
006266:  434040000002  or       1, 2            ;"C@@  ""
006267:  434200000004  or       4, 4            ;"CB   $"
006270:  264000000462  jsr      462             ;"6@  $R"
006271:  254000402272  jrst     402272          ;"5@ @2Z"
006272:  200240000552  move     5, 552          ;"0"@ %J"
006273:  256005402442  xct      402442(5)       ;"5P%@4B"
006274:  256005402446  xct      402446(5)       ;"5P%@4F"
006275:  322200402226  jumpe    4, 402226       ;":2 @26"
006276:  403300000004  setzb    6, 4            ;"@;   $"
006277:  327200402302  jumpg    4, 402302       ;":Z @3""
006300:  515240400000  hrlzi    5, 400000       ;"IJ@@  "
006301:  213000000004  movns    0, 4            ;"18   $"
006302:  434040000002  or       1, 2            ;"C@@  ""
006303:  434200000004  or       4, 4            ;"CB   $"
006304:  264000000460  jsr      460             ;"6@  $P"
006305:  254000402226  jrst     402226          ;"5@ @26"
006306:  213000000002  movns    0, 2            ;"18   ""
006307:  305140000006  caige    3, 6            ;"8I@  &"
006310:  254000402316  jrst     402316          ;"5@ @3."
006311:  200140000552  move     3, 552          ;"0!@ %J"
006312:  271240000010  addi     5, 10           ;"7*@  ("
006313:  202240000552  movem    5, 552          ;"02@ %J"
006314:  254000402266  jrst     402266          ;"5@ @2V"
006315:  200140000552  move     3, 552          ;"0!@ %J"
006316:  313140000006  camle    3, 6            ;"99@  &"
006317:  254000402350  jrst     402350          ;"5@ @3H"
006320:  312140000006  came     3, 6            ;"91@  &"
006321:  254000402344  jrst     402344          ;"5@ @3D"
006322:  313040000004  camle    1, 4            ;"98@  $"
006323:  254000402350  jrst     402350          ;"5@ @3H"
006324:  312040000004  came     1, 4            ;"90@  $"
006325:  254000402344  jrst     402344          ;"5@ @3D"
006326:  200040402464  move     1, 402464       ;"0 @@4T"
006327:  256005402422  xct      402422(5)       ;"5P%@42"
006330:  256005402426  xct      402426(5)       ;"5P%@46"
006331:  201240000000  movei    5, 0            ;"0*@   " " *\0\0\0"
006332:  325040402336  jumpge   1, 402336       ;":H@@3>"
006333:  210040000000  movn     1, 0            ;"1 @   "
006334:  641240400000  tlc      5, 400000       ;"T*@@  "
006335:  201100000002  movei    2, 2            ;"0)   ""
006336:  201140000000  movei    3, 0            ;"0)@   " " &\0\0\0"
006337:  264000000476  jsr      476             ;"6@  $^"
006340:  322040402226  jumpe    1, 402226       ;":0@@26"
006341:  200100000004  move     2, 4            ;"0!   $"
006342:  254000402226  jrst     402226          ;"5@ @26"
006343:  271240000010  addi     5, 10           ;"7*@  ("
006344:  202240000552  movem    5, 552          ;"02@ %J"
006345:  264000000506  jsr      506             ;"6@  %&"
006346:  200240000552  move     5, 552          ;"0"@ %J"
006347:  254000402330  jrst     402330          ;"5@ @38"
006350:  250040000004  exch     1, 4            ;"5 @  $"
006351:  250140000006  exch     3, 6            ;"5!@  &"
006352:  254000402344  jrst     402344          ;"5@ @3D"
006353:  274300000002  sub      6, 2            ;"7C   ""
006354:  201100000000  movei    2, 0            ;"0)    " " $\0\0\0"
006355:  244040777774  ashc     1, 777774       ;"4@@__\"
006356:  270100000004  add      2, 4            ;"7!   $"
006357:  244040777776  ashc     1, 777776       ;"4@@__^"
006360:  234040000004  div      1, 4            ;"3@@  $"
006361:  230046402616  idiv     1, 402616(6)    ;"3 F@6."
006362:  230106402616  idiv     2, 402616(6)    ;"3!&@6."
006363:  244040000004  ashc     1, 4            ;"4@@  $"
006364:  201300000000  movei    6, 0            ;"0+    " " ,\0\0\0"
006365:  313046402470  camle    1, 402470(6)    ;"98F@4X"
006366:  344300402366  aoja     6, 402366       ;"<C @3V"
006367:  210206402470  movn     4, 402470(6)    ;"1"&@4X"
006370:  200246402470  move     5, 402470(6)    ;"0"F@4X"
006371:  270200000000  add      4, 0            ;"7"    "
006372:  274240000000  sub      5, 0            ;"7B@   " "/\n\0\0\0"
006373:  313200000004  camle    4, 4            ;"9:   $"
006374:  254000402420  jrst     402420          ;"5@ @40"
006375:  224046402470  mul      1, 402470(6)    ;"2@F@4X"
006376:  240040777776  ash      1, 777776       ;"4 @__^"
006377:  661040200000  tlo      1, 200000       ;"V(@0  "
006400:  201240000000  movei    5, 0            ;"0*@   " " *\0\0\0"
006401:  234200000000  div      4, 0            ;"3B    "
006402:  240200777776  ash      4, 777776       ;"4" __^"
006403:  210240000004  movn     5, 4            ;"1"@  $"
006404:  224240000004  mul      5, 4            ;"2B@  $"
006405:  201300000004  movei    6, 4            ;"0+   $"
006406:  200100402500  move     2, 402500       ;"0! @5 "
006407:  224100000004  mul      2, 4            ;"2A   $"
006410:  270106402474  add      2, 402474(6)    ;"7!&@4\"
006411:  365300402410  sojge    6, 402410       ;">K @4("
006412:  224100000004  mul      2, 4            ;"2A   $"
006413:  270040000002  add      1, 2            ;"7 @  ""
006414:  240040777776  ash      1, 777776       ;"4 @__^"
006415:  350000000000  aos      0, 0            ;"=     " ":\0\0\0\0"
006416:  240040777776  ash      1, 777776       ;"4 @__^"
006417:  254020000506  jrst     @506            ;"5@0 %&"
006420:  210200000004  movn     4, 4            ;"1"   $"
006421:  344300402376  aoja     6, 402376       ;"<C @3^"
006422:  505240000000  hrli     5, 0            ;"HJ@   " "Q*\0\0\0"
006423:  213000000000  movns    0, 0            ;"18    " "\"`\0\0\0"
006424:  505240000000  hrli     5, 0            ;"HJ@   " "Q*\0\0\0"
006425:  213000000000  movns    0, 0            ;"18    " "\"`\0\0\0"
006426:  505240000000  hrli     5, 0            ;"HJ@   " "Q*\0\0\0"
006427:  270040402466  add      1, 402466       ;"7 @@4V"
006430:  274040402466  sub      1, 402466       ;"7@@@4V"
006431:  505240000000  hrli     5, 0            ;"HJ@   " "Q*\0\0\0"
006432:  213000000000  movns    0, 0            ;"18    " "\"`\0\0\0"
006433:  505240000000  hrli     5, 0            ;"HJ@   " "Q*\0\0\0"
006434:  213000000000  movns    0, 0            ;"18    " "\"`\0\0\0"
006435:  505240000000  hrli     5, 0            ;"HJ@   " "Q*\0\0\0"
006436:  270040402464  add      1, 402464       ;"7 @@4T"
006437:  270040402464  add      1, 402464       ;"7 @@4T"
006440:  274040402464  sub      1, 402464       ;"7@@@4T"
006441:  274040402464  sub      1, 402464       ;"7@@@4T"
006442:  515100000000  hrlzi    2, 0            ;"II    " "S$\0\0\0"
006443:  515100400000  hrlzi    2, 400000       ;"II @  "
006444:  515100000000  hrlzi    2, 0            ;"II    " "S$\0\0\0"
006445:  515100400000  hrlzi    2, 400000       ;"II @  "
006446:  515200000000  hrlzi    4, 0            ;"IJ    " "S(\0\0\0"
006447:  200200402502  move     4, 402502       ;"0" @5""
006450:  210200402502  movn     4, 402502       ;"1" @5""
006451:  515200000000  hrlzi    4, 0            ;"IJ    " "S(\0\0\0"
006452:  515100400000  hrlzi    2, 400000       ;"II @  "
006453:  515100000000  hrlzi    2, 0            ;"II    " "S$\0\0\0"
006454:  515100400000  hrlzi    2, 400000       ;"II @  "
006455:  515100000000  hrlzi    2, 0            ;"II    " "S$\0\0\0"
006456:  200200402504  move     4, 402504       ;"0" @5$"
006457:  200200402504  move     4, 402504       ;"0" @5$"
006460:  210200402504  movn     4, 402504       ;"1" @5$"
006461:  210200402504  movn     4, 402504       ;"1" @5$"
006462:  000000000000                           ;"      "
006463:  062207732504                           ;"&2'[5$" "\fH?5\""
006464:  144417665210  fadr     10, 665210(17)  ;",D/VJ("
006465:  226627617714  mulm     14, @617714(7)  ;"2V7Q_,"
006466:  311037552420  caml     0, @552420(17)  ;"9(?M40"
006467:  000000000000                           ;"      "
006470:  062727657004                           ;"&77UX$"
006471:  152023631500  fsbm     0, @631500(3)   ;"-03S- "
006472:  253033405256  aobjn    0, @405256(13)  ;"58;@JN" "*a\\\nW"
006473:  377777777776  sosg     17, @777776(17) ;"?____^"
006474:  125252525252                           ;"*JJJJJ"
006475:  063146314632                           ;"&9F9F:"
006476:  044444444444  .uset    11, 444444(4)   ;"$DDDDD"
006477:  034343434344                           ;"#CCCCD"
006500:  027213505642                           ;""Z+HNB"
006501:  002256330240                           ;" 2N;"@"
006502:  001602642170                           ;" ."T1X"
006503:  001127154120                           ;" )7-A0"
006504:  005664034622                           ;" NT#F2"
006505:  402000000002  setzm    2               ;"@0   ""
006506:  623040400000  tlze     1, 400000       ;"R8@@  "
006507:  661100400000  tlo      2, 400000       ;"V) @  "
006510:  322040402526  jumpe    1, 402526       ;":0@@56"
006511:  325140402516  jumpge   3, 402516       ;":I@@5."
006512:  201100000000  movei    2, 0            ;"0)    " " $\0\0\0"
006513:  403040000002  setzb    1, 2            ;"@8@  ""
006514:  254120001022  jrstf    @1022           ;"5A0 (2"
006515:  301140000010  cail     3, 10           ;"8)@  ("
006516:  254000402526  jrst     402526          ;"5@ @56"
006517:  546100000156  hlrm     2, 156          ;"LQ  !N"
006520:  542140000152  hrrm     3, 152          ;"L1@ !J"
006521:  211143777770  movni    3, 777770(3)    ;"1)C__X"
006522:  230043402616  idiv     1, 402616(3)    ;"3 C@6."
006523:  220043402616  imul     1, 402616(3)    ;"2 C@6."
006524:  256000000152  xct      152             ;"5P  !J"
006525:  256000000156  xct      156             ;"5P  !N"
006526:  254120001022  jrstf    @1022           ;"5A0 (2"
006527:  402000000002  setzm    2               ;"@0   ""
006530:  623040400000  tlze     1, 400000       ;"R8@@  "
006531:  661100400000  tlo      2, 400000       ;"V) @  "
006532:  322040402560  jumpe    1, 402560       ;":0@@5P"
006533:  321140402560  jumpl    3, 402560       ;":)@@5P"
006534:  305140000010  caige    3, 10           ;"8I@  ("
006535:  254000402542  jrst     402542          ;"5@ @5B"
006536:  201040000000  movei    1, 0            ;"0(@   " " \"\0\0\0"
006537:  403100000002  setzb    2, 2            ;"@9   ""
006540:  254000402560  jrst     402560          ;"5@ @5P"
006541:  546100000154  hlrm     2, 154          ;"LQ  !L"
006542:  542140000154  hrrm     3, 154          ;"L1@ !L"
006543:  211143777770  movni    3, 777770(3)    ;"1)C__X"
006544:  230043402616  idiv     1, 402616(3)    ;"3 C@6."
006545:  256000000154  xct      154             ;"5P  !L"
006546:  350000000002  aos      0, 2            ;"=    ""
006547:  220103402616  imul     2, 402616(3)    ;"2!#@6."
006550:  200040000002  move     1, 2            ;"0 @  ""
006551:  322040402540  jumpe    1, 402540       ;":0@@5@"
006552:  256000000154  xct      154             ;"5P  !L"
006553:  571140777776  hrrei    3, 777776       ;"O)@__^"
006554:  311040402626  caml     1, 402626       ;"9(@@66"
006555:  254000402560  jrst     402560          ;"5@ @5P"
006556:  221040000012  imuli    1, 12           ;"2(@  *"
006557:  364140402554  soja     3, 402554       ;">A@@5L"
006560:  254120001010  jrstf    @1010           ;"5A0 (("
006561:  402000000002  setzm    2               ;"@0   ""
006562:  623040400000  tlze     1, 400000       ;"R8@@  "
006563:  661100400000  tlo      2, 400000       ;"V) @  "
006564:  201140000000  movei    3, 0            ;"0)@   " " &\0\0\0"
006565:  254120000762  jrstf    @762            ;"5A0 'R"
006566:  326040402572  jumpn    1, 402572       ;":P@@5Z"
006567:  201100000000  movei    2, 0            ;"0)    " " $\0\0\0"
006570:  254120000764  jrstf    @764            ;"5A0 'T"
006571:  325140402576  jumpge   3, 402576       ;":I@@5^"
006572:  515100400000  hrlzi    2, 400000       ;"II @  "
006573:  210040000002  movn     1, 2            ;"1 @  ""
006574:  254000402600  jrst     402600          ;"5@ @6 "
006575:  201100000000  movei    2, 0            ;"0)    " " $\0\0\0"
006576:  200040000002  move     1, 2            ;"0 @  ""
006577:  551140000000  hrrzi    3, 0            ;"M)@   " "Z&\0\0\0"
006600:  301040000012  cail     1, 12           ;"8(@  *"
006601:  344140402604  aoja     3, 402604       ;"<A@@6$"
006602:  220040402626  imul     1, 402626       ;"2 @@66"
006603:  254000402606  jrst     402606          ;"5@ @6&"
006604:  220040402624  imul     1, 402624       ;"2 @@64"
006605:  254120000764  jrstf    @764            ;"5A0 'T"
006606:  402000000002  setzm    2               ;"@0   ""
006607:  623040400000  tlze     1, 400000       ;"R8@@  "
006610:  661100400000  tlo      2, 400000       ;"V) @  "
006611:  322040402614  jumpe    1, 402614       ;":0@@6,"
006612:  200040402626  move     1, 402626       ;"0 @@66"
006613:  201140000000  movei    3, 0            ;"0)@   " " &\0\0\0"
006614:  254120001024  jrstf    @1024           ;"5A0 (4"
006615:  000000000000                           ;"      "
006616:  000000000012                           ;"     *"
006617:  000000000144                           ;"    !D"
006620:  000000001750                           ;"    /H"
006621:  000000023420                           ;"   "<0"
006622:  000000303240                           ;"   8:@"
006623:  000003641100                           ;"  #T) "
006624:  000046113200                           ;"  F): "
006625:  000575360400                           ;" %]>$ "
006626:  007346545000                           ;" [FLH "
006627:  112402762000                           ;")4"^0 "
006630:  322040402662  jumpe    1, 402662       ;":0@@6R"
006631:  370000000002  sos      0, 2            ;"?    ""
006632:  542100000156  hrrm     2, 156          ;"L1  !N"
006633:  224040402664  mul      1, 402664       ;"2@@@6T"
006634:  256000000156  xct      156             ;"5P  !N"
006635:  311040402664  caml     1, 402664       ;"9(@@6T"
006636:  254000402652  jrst     402652          ;"5@ @6J"
006637:  202140000554  movem    3, 554          ;"01@ %L"
006640:  221040000012  imuli    1, 12           ;"2(@  *"
006641:  225100000012  muli     2, 12           ;"2I   *"
006642:  270040000002  add      1, 2            ;"7 @  ""
006643:  200140000554  move     3, 554          ;"0!@ %L"
006644:  370000000002  sos      0, 2            ;"?    ""
006645:  322040402662  jumpe    1, 402662       ;":0@@6R"
006646:  311040402664  caml     1, 402664       ;"9(@@6T"
006647:  254000402652  jrst     402652          ;"5@ @6J"
006650:  221040000012  imuli    1, 12           ;"2(@  *"
006651:  364140402646  soja     3, 402646       ;">A@@6F"
006652:  315040402666  camge    1, 402666       ;"9H@@6V"
006653:  254000402656  jrst     402656          ;"5@ @6N"
006654:  231040000012  idivi    1, 12           ;"3(@  *"
006655:  344140402652  aoja     3, 402652       ;"<A@@6J"
006656:  350000000000  aos      0, 0            ;"=     " ":\0\0\0\0"
006657:  240040777776  ash      1, 777776       ;"4 @__^"
006660:  254120000476  jrstf    @476            ;"5A0 $^"
006661:  403100000002  setzb    2, 2            ;"@9   ""
006662:  254120000476  jrstf    @476            ;"5A0 $^"
006663:  016715312000                           ;"!W-90 "
006664:  001372741000                           ;" +Z\( "
006665:  016715311776                           ;"!W-9/^"
006666:  201100000000  movei    2, 0            ;"0)    " " $\0\0\0"
006667:  322040402712  jumpe    1, 402712       ;":0@@7*"
006670:  322200402716  jumpe    4, 402716       ;":2 @7."
006671:  200100000000  move     2, 0            ;"0!    "
006672:  430100000004  xor      2, 4            ;"C!   $"
006673:  321100402706  jumpl    2, 402706       ;":) @7&"
006674:  201100000000  movei    2, 0            ;"0)    " " $\0\0\0"
006675:  315140000006  camge    3, 6            ;"9I@  &"
006676:  364100402710  soja     2, 402710       ;">A @7("
006677:  312140000006  came     3, 6            ;"91@  &"
006700:  344100402710  aoja     2, 402710       ;"<A @7("
006701:  315040000004  camge    1, 4            ;"9H@  $"
006702:  364100402710  soja     2, 402710       ;">A @7("
006703:  312040000004  came     1, 4            ;"90@  $"
006704:  344100402710  aoja     2, 402710       ;"<A @7("
006705:  254120001004  jrstf    @1004           ;"5A0 ($"
006706:  201100000000  movei    2, 0            ;"0)    " " $\0\0\0"
006707:  325040402706  jumpge   1, 402706       ;":H@@7&"
006710:  213000000002  movns    0, 2            ;"18   ""
006711:  254000402706  jrst     402706          ;"5@ @7&"
006712:  322200402706  jumpe    4, 402706       ;":2 @7&"
006713:  331000000004  skipl    0, 4            ;";(   $"
006714:  364100402706  soja     2, 402706       ;">A @7&"
006715:  344100402706  aoja     2, 402706       ;"<A @7&"
006716:  331000000000  skipl    0, 0            ;";(    " "6 \0\0\0"
006717:  344100402706  aoja     2, 402706       ;"<A @7&"
006720:  364100402706  soja     2, 402706       ;">A @7&"
006721:  322040402736  jumpe    1, 402736       ;":0@@7>"
006722:  321140402740  jumpl    3, 402740       ;":)@@7@"
006723:  301140000002  cail     3, 2            ;"8)@  ""
006724:  254000402740  jrst     402740          ;"5@ @7@"
006725:  623040400000  tlze     1, 400000       ;"R8@@  "
006726:  213000000000  movns    0, 0            ;"18    " "\"`\0\0\0"
006727:  211143777770  movni    3, 777770(3)    ;"1)C__X"
006730:  230043402616  idiv     1, 402616(3)    ;"3 C@6."
006731:  326100402740  jumpn    2, 402740       ;":Q @7@"
006732:  303040000372  caile    1, 372          ;"88@ #Z"
006733:  254000402740  jrst     402740          ;"5@ @7@"
006734:  315040403444  camge    1, 403444       ;"9H@@<D"
006735:  254000402740  jrst     402740          ;"5@ @7@"
006736:  350000001006  aos      0, 1006         ;"=   (&"
006737:  254120001006  jrstf    @1006           ;"5A0 (&"
006740:  254120001006  jrstf    @1006           ;"5A0 (&"
006741:  327040402744  jumpg    1, 402744       ;":X@@7D"
006742:  254120000774  jrstf    @774            ;"5A0 '\"
006743:  321140402742  jumpl    3, 402742       ;":)@@7B"
006744:  303140000010  caile    3, 10           ;"89@  ("
006745:  254000402742  jrst     402742          ;"5@ @7B"
006746:  211143777770  movni    3, 777770(3)    ;"1)C__X"
006747:  230043402616  idiv     1, 402616(3)    ;"3 C@6."
006750:  350000000774  aos      0, 774          ;"=   '\"
006751:  254120000774  jrstf    @774            ;"5A0 '\"
006752:  326040402756  jumpn    1, 402756       ;":P@@7N"
006753:  136040000002  idpb     1, 2            ;"+P@  ""
006754:  254120000512  jrstf    @512            ;"5A0 %*"
006755:  202100000560  movem    2, 560          ;"01  %P"
006756:  201100000140  movei    2, 140          ;"0)  !@"
006757:  623040400000  tlze     1, 400000       ;"R8@@  "
006760:  136100000560  idpb     2, 560          ;"+Q  %P"
006761:  200200000556  move     4, 556          ;"0"  %N"
006762:  201200000010  movei    4, 10           ;"0*   ("
006763:  321140403022  jumpl    3, 403022       ;":)@@82"
006764:  313140000150  camle    3, 150          ;"99@ !H"
006765:  254000402774  jrst     402774          ;"5@ @7\"
006766:  264000000504  jsr      504             ;"6@  %$"
006767:  365140402766  sojge    3, 402766       ;">I@@7V"
006770:  264000000510  jsr      510             ;"6@  %("
006771:  200200000556  move     4, 556          ;"0"  %N"
006772:  200100000560  move     2, 560          ;"0!  %P"
006773:  254120000512  jrstf    @512            ;"5A0 %*"
006774:  264000000504  jsr      504             ;"6@  %$"
006775:  264000000510  jsr      510             ;"6@  %("
006776:  201100000142  movei    2, 142          ;"0)  !B"
006777:  136100000560  idpb     2, 560          ;"+Q  %P"
007000:  201100000000  movei    2, 0            ;"0)    " " $\0\0\0"
007001:  136100000560  idpb     2, 560          ;"+Q  %P"
007002:  201100000000  movei    2, 0            ;"0)    " " $\0\0\0"
007003:  136100000560  idpb     2, 560          ;"+Q  %P"
007004:  201100000144  movei    2, 144          ;"0)  !D"
007005:  136100000560  idpb     2, 560          ;"+Q  %P"
007006:  321140403012  jumpl    3, 403012       ;":)@@8*"
007007:  264000000554  jsr      554             ;"6@  %L"
007010:  254000402772  jrst     402772          ;"5@ @7Z"
007011:  213000000002  movns    0, 2            ;"18   ""
007012:  201100000120  movei    2, 120          ;"0)  !0"
007013:  136100000560  idpb     2, 560          ;"+Q  %P"
007014:  201100000140  movei    2, 140          ;"0)  !@"
007015:  136100000560  idpb     2, 560          ;"+Q  %P"
007016:  264000000554  jsr      554             ;"6@  %L"
007017:  201100000120  movei    2, 120          ;"0)  !0"
007020:  136100000560  idpb     2, 560          ;"+Q  %P"
007021:  254000402772  jrst     402772          ;"5@ @7Z"
007022:  315140403054  camge    3, 403054       ;"9I@@8L"
007023:  254000402774  jrst     402774          ;"5@ @7\"
007024:  201100000160  movei    2, 160          ;"0)  !P"
007025:  136100000560  idpb     2, 560          ;"+Q  %P"
007026:  342140403032  aoje     3, 403032       ;"<1@@8:"
007027:  201100000000  movei    2, 0            ;"0)    " " $\0\0\0"
007030:  136100000560  idpb     2, 560          ;"+Q  %P"
007031:  254000403026  jrst     403026          ;"5@ @86"
007032:  264000000504  jsr      504             ;"6@  %$"
007033:  326040403032  jumpn    1, 403032       ;":P@@8:"
007034:  254000402772  jrst     402772          ;"5@ @7Z"
007035:  230044402616  idiv     1, 402616(4)    ;"3 D@6."
007036:  250040000002  exch     1, 2            ;"5 @  ""
007037:  136100000560  idpb     2, 560          ;"+Q  %P"
007040:  364220000504  soja     4, @504         ;">B0 %$"
007041:  322060000510  jumpe    1, @510         ;":0P %("
007042:  201100000160  movei    2, 160          ;"0)  !P"
007043:  136100000560  idpb     2, 560          ;"+Q  %P"
007044:  264000000504  jsr      504             ;"6@  %$"
007045:  326040403044  jumpn    1, 403044       ;":P@@8D"
007046:  254020000510  jrst     @510            ;"5@0 %("
007047:  231140000012  idivi    3, 12           ;"3)@  *"
007050:  322140403052  jumpe    3, 403052       ;":1@@8J"
007051:  136140000560  idpb     3, 560          ;"+Q@ %P"
007052:  136200000560  idpb     4, 560          ;"+R  %P"
007053:  254020000554  jrst     @554            ;"5@0 %L"
007054:  777777777774  conso    774, @777774(17);"_____\"
007055:  202100000562  movem    2, 562          ;"01  %R"
007056:  201100000004  movei    2, 4            ;"0)   $"
007057:  202100000150  movem    2, 150          ;"01  !H"
007060:  350000000002  aos      0, 2            ;"=    ""
007061:  607040400000  tlnn     1, 400000       ;"PX@@  "
007062:  350000000002  aos      0, 2            ;"=    ""
007063:  322040403074  jumpe    1, 403074       ;":0@@8\"
007064:  315140403054  camge    3, 403054       ;"9I@@8L"
007065:  254000403074  jrst     403074          ;"5@ @8\"
007066:  305140000000  caige    3, 0            ;"8I@   " "1&\0\0\0"
007067:  344100403074  aoja     2, 403074       ;"<A @8\"
007070:  313140000150  camle    3, 150          ;"99@ !H"
007071:  254000403074  jrst     403074          ;"5@ @8\"
007072:  274100000002  sub      2, 2            ;"7A   ""
007073:  274100000004  sub      2, 4            ;"7A   $"
007074:  323100403104  jumple   2, 403104       ;":9 @9$"
007075:  250040000560  exch     1, 560          ;"5 @ %P"
007076:  201040000166  movei    1, 166          ;"0(@ !V"
007077:  303100000010  caile    2, 10           ;"89   ("
007100:  254000403112  jrst     403112          ;"5@ @9*"
007101:  270040000002  add      1, 2            ;"7 @  ""
007102:  136040000562  idpb     1, 562          ;"+P@ %R"
007103:  250040000560  exch     1, 560          ;"5 @ %P"
007104:  200100000562  move     2, 562          ;"0!  %R"
007105:  264000000512  jsr      512             ;"6@  %*"
007106:  201040000010  movei    1, 10           ;"0(@  ("
007107:  202040000150  movem    1, 150          ;"00@ !H"
007110:  254120001026  jrstf    @1026           ;"5A0 (6"
007111:  271040000010  addi     1, 10           ;"7(@  ("
007112:  275100000010  subi     2, 10           ;"7I   ("
007113:  136040000562  idpb     1, 562          ;"+P@ %R"
007114:  254000403076  jrst     403076          ;"5@ @8^"
007115:  201100000000  movei    2, 0            ;"0)    " " $\0\0\0"
007116:  311042402616  caml     1, 402616(2)    ;"9(B@6."
007117:  344100403116  aoja     2, 403116       ;"<A @9."
007120:  370000000002  sos      0, 2            ;"?    ""
007121:  202100000562  movem    2, 562          ;"01  %R"
007122:  211102777770  movni    2, 777770(2)    ;"1)"__X"
007123:  220042402616  imul     1, 402616(2)    ;"2 B@6."
007124:  270040000002  add      1, 2            ;"7 @  ""
007125:  200140000562  move     3, 562          ;"0!@ %R"
007126:  254120001002  jrstf    @1002           ;"5A0 (""
007127:  202100000140  movem    2, 140          ;"01  !@"
007130:  202300000142  movem    6, 142          ;"03  !B"
007131:  402000000142  setzm    142             ;"@0  !B"
007132:  623040400000  tlze     1, 400000       ;"R8@@  "
007133:  350000000142  aos      0, 142          ;"=   !B"
007134:  326040403164  jumpn    1, 403164       ;":P@@9T"
007135:  322240403152  jumpe    5, 403152       ;":2@@9J"
007136:  200300000004  move     6, 4            ;"0#   $"
007137:  201100000170  movei    2, 170          ;"0)  !X"
007140:  264000000514  jsr      514             ;"6@  %,"
007141:  201100000160  movei    2, 160          ;"0)  !P"
007142:  136100000140  idpb     2, 140          ;"+Q  !@"
007143:  201100000000  movei    2, 0            ;"0)    " " $\0\0\0"
007144:  200300000004  move     6, 4            ;"0#   $"
007145:  264000000514  jsr      514             ;"6@  %,"
007146:  200100000140  move     2, 140          ;"0!  !@"
007147:  350000000776  aos      0, 776          ;"=   '^"
007150:  254120000776  jrstf    @776            ;"5A0 '^"
007151:  200300000004  move     6, 4            ;"0#   $"
007152:  370000000006  sos      0, 6            ;"?    &"
007153:  201100000170  movei    2, 170          ;"0)  !X"
007154:  264000000514  jsr      514             ;"6@  %,"
007155:  201100000000  movei    2, 0            ;"0)    " " $\0\0\0"
007156:  136100000140  idpb     2, 140          ;"+Q  !@"
007157:  336000000142  skipn    0, 142          ;";P  !B"
007160:  254000403146  jrst     403146          ;"5@ @9F"
007161:  201100000160  movei    2, 160          ;"0)  !P"
007162:  136100000140  idpb     2, 140          ;"+Q  !@"
007163:  254000403146  jrst     403146          ;"5@ @9F"
007164:  201100000002  movei    2, 2            ;"0)   ""
007165:  270100000004  add      2, 4            ;"7!   $"
007166:  270100000002  add      2, 2            ;"7!   ""
007167:  303100000010  caile    2, 10           ;"89   ("
007170:  254000403200  jrst     403200          ;"5@ @: "
007171:  305100000000  caige    2, 0            ;"8I    " "1$\0\0\0"
007172:  254000403136  jrst     403136          ;"5@ @9>"
007173:  211102777766  movni    2, 777766(2)    ;"1)"__V"
007174:  270042403310  add      1, 403310(2)    ;"7 B@;("
007175:  311040402626  caml     1, 402626       ;"9(@@66"
007176:  254000403302  jrst     403302          ;"5@ @;""
007177:  201100000010  movei    2, 10           ;"0)   ("
007200:  202100000144  movem    2, 144          ;"01  !D"
007201:  325140403232  jumpge   3, 403232       ;":I@@::"
007202:  213000000002  movns    0, 2            ;"18   ""
007203:  313140000004  camle    3, 4            ;"99@  $"
007204:  254000403136  jrst     403136          ;"5@ @9>"
007205:  200300000004  move     6, 4            ;"0#   $"
007206:  201100000170  movei    2, 170          ;"0)  !X"
007207:  336000000142  skipn    0, 142          ;";P  !B"
007210:  254000403230  jrst     403230          ;"5@ @:8"
007211:  327200403214  jumpg    4, 403214       ;":Z @:,"
007212:  200100000140  move     2, 140          ;"0!  !@"
007213:  254120000776  jrstf    @776            ;"5A0 '^"
007214:  370000000006  sos      0, 6            ;"?    &"
007215:  264000000514  jsr      514             ;"6@  %,"
007216:  201100000140  movei    2, 140          ;"0)  !@"
007217:  136100000140  idpb     2, 140          ;"+Q  !@"
007220:  201100000160  movei    2, 160          ;"0)  !P"
007221:  136100000140  idpb     2, 140          ;"+Q  !@"
007222:  200300000002  move     6, 2            ;"0#   ""
007223:  370000000006  sos      0, 6            ;"?    &"
007224:  274240000006  sub      5, 6            ;"7B@  &"
007225:  201100000000  movei    2, 0            ;"0)    " " $\0\0\0"
007226:  264000000514  jsr      514             ;"6@  %,"
007227:  254000403276  jrst     403276          ;"5@ @:^"
007230:  264000000514  jsr      514             ;"6@  %,"
007231:  254000403220  jrst     403220          ;"5@ @:0"
007232:  202140000144  movem    3, 144          ;"01@ !D"
007233:  350000000144  aos      0, 144          ;"=   !D"
007234:  332000000142  skipe    0, 142          ;";0  !B"
007235:  350000000144  aos      0, 144          ;"=   !D"
007236:  315200000144  camge    4, 144          ;"9J  !D"
007237:  254000403212  jrst     403212          ;"5@ @:*"
007240:  274200000144  sub      4, 144          ;"7B  !D"
007241:  200300000004  move     6, 4            ;"0#   $"
007242:  200200000002  move     4, 2            ;"0"   ""
007243:  350000000004  aos      0, 4            ;"=    $"
007244:  201100000170  movei    2, 170          ;"0)  !X"
007245:  264000000514  jsr      514             ;"6@  %,"
007246:  336000000142  skipn    0, 142          ;";P  !B"
007247:  254000403252  jrst     403252          ;"5@ @:J"
007250:  201100000140  movei    2, 140          ;"0)  !@"
007251:  136100000140  idpb     2, 140          ;"+Q  !@"
007252:  322200403266  jumpe    4, 403266       ;":2 @:V"
007253:  335000000144  skipge   0, 144          ;";H  !D"
007254:  254000403264  jrst     403264          ;"5@ @:T"
007255:  200100000144  move     2, 144          ;"0!  !D"
007256:  230042402616  idiv     1, 402616(2)    ;"3 B@6."
007257:  250040000002  exch     1, 2            ;"5 @  ""
007260:  370000000144  sos      0, 144          ;"?   !D"
007261:  136100000140  idpb     2, 140          ;"+Q  !@"
007262:  364200403252  soja     4, 403252       ;">B @:J"
007263:  201100000000  movei    2, 0            ;"0)    " " $\0\0\0"
007264:  136100000140  idpb     2, 140          ;"+Q  !@"
007265:  364200403252  soja     4, 403252       ;">B @:J"
007266:  326240403274  jumpn    5, 403274       ;":R@@:\"
007267:  336000000142  skipn    0, 142          ;";P  !B"
007270:  254000403146  jrst     403146          ;"5@ @9F"
007271:  201100000160  movei    2, 160          ;"0)  !P"
007272:  136100000140  idpb     2, 140          ;"+Q  !@"
007273:  254000403146  jrst     403146          ;"5@ @9F"
007274:  201100000160  movei    2, 160          ;"0)  !P"
007275:  136100000140  idpb     2, 140          ;"+Q  !@"
007276:  200200000004  move     4, 4            ;"0"   $"
007277:  201240000000  movei    5, 0            ;"0*@   " " *\0\0\0"
007300:  402000000142  setzm    142             ;"@0  !B"
007301:  254000403252  jrst     403252          ;"5@ @:J"
007302:  231040000012  idivi    1, 12           ;"3(@  *"
007303:  344140403200  aoja     3, 403200       ;"<A@@: "
007304:  323320000514  jumple   6, @514         ;":;0 %,"
007305:  136100000140  idpb     2, 140          ;"+Q  !@"
007306:  364300403304  soja     6, 403304       ;">C @;$"
007307:  000000000004                           ;"     $"
007310:  000000000062                           ;"     R"
007311:  000000000764                           ;"    'T"
007312:  000000011610                           ;"   !.("
007313:  000000141520                           ;"   ,-0"
007314:  000001720440                           ;"  !Z$@"
007315:  000023045500                           ;"  3$M "
007316:  000276570200                           ;" "^O" "
007317:  003563262400                           ;" =S64 "
007320:  305200000006  caige    4, 6            ;"8J   &"
007321:  254120001000  jrstf    @1000           ;"5A0 ( "
007322:  202100000146  movem    2, 146          ;"01  !F"
007323:  326040403340  jumpn    1, 403340       ;":P@@;@"
007324:  201100000170  movei    2, 170          ;"0)  !X"
007325:  136100000146  idpb     2, 146          ;"+Q  !F"
007326:  201100000000  movei    2, 0            ;"0)    " " $\0\0\0"
007327:  136100000146  idpb     2, 146          ;"+Q  !F"
007330:  275200000002  subi     4, 2            ;"7J   ""
007331:  201100000170  movei    2, 170          ;"0)  !X"
007332:  136100000146  idpb     2, 146          ;"+Q  !F"
007333:  367200403332  sojg     4, 403332       ;">Z @;:"
007334:  200100000146  move     2, 146          ;"0!  !F"
007335:  350000001000  aos      0, 1000         ;"=   ( "
007336:  254120001000  jrstf    @1000           ;"5A0 ( "
007337:  402000000146  setzm    146             ;"@0  !F"
007340:  623040400000  tlze     1, 400000       ;"R8@@  "
007341:  350000000146  aos      0, 146          ;"=   !F"
007342:  301200000016  cail     4, 16           ;"8*   ."
007343:  254000403354  jrst     403354          ;"5@ @;L"
007344:  201100000014  movei    2, 14           ;"0)   ,"
007345:  274100000004  sub      2, 4            ;"7A   $"
007346:  270042403414  add      1, 403414(2)    ;"7 B@<,"
007347:  315040402626  camge    1, 402626       ;"9H@@66"
007350:  254000403354  jrst     403354          ;"5@ @;L"
007351:  231040000012  idivi    1, 12           ;"3(@  *"
007352:  350000000002  aos      0, 2            ;"=    ""
007353:  336000000146  skipn    0, 146          ;";P  !F"
007354:  254000403360  jrst     403360          ;"5@ @;P"
007355:  201100000140  movei    2, 140          ;"0)  !@"
007356:  136100000146  idpb     2, 146          ;"+Q  !F"
007357:  254000403362  jrst     403362          ;"5@ @;R"
007360:  201100000170  movei    2, 170          ;"0)  !X"
007361:  136100000146  idpb     2, 146          ;"+Q  !F"
007362:  202140000152  movem    3, 152          ;"01@ !J"
007363:  201140000010  movei    3, 10           ;"0)@  ("
007364:  230043402616  idiv     1, 402616(3)    ;"3 C@6."
007365:  250040000002  exch     1, 2            ;"5 @  ""
007366:  136100000146  idpb     2, 146          ;"+Q  !F"
007367:  201100000160  movei    2, 160          ;"0)  !P"
007370:  136100000146  idpb     2, 146          ;"+Q  !F"
007371:  275200000006  subi     4, 6            ;"7J   &"
007372:  370000000002  sos      0, 2            ;"?    ""
007373:  230043402616  idiv     1, 402616(3)    ;"3 C@6."
007374:  250040000002  exch     1, 2            ;"5 @  ""
007375:  136100000146  idpb     2, 146          ;"+Q  !F"
007376:  367200403372  sojg     4, 403372       ;">Z @;Z"
007377:  200040000152  move     1, 152          ;"0 @ !J"
007400:  325040403406  jumpge   1, 403406       ;":H@@<&"
007401:  213000000000  movns    0, 0            ;"18    " "\"`\0\0\0"
007402:  201100000140  movei    2, 140          ;"0)  !@"
007403:  136100000146  idpb     2, 146          ;"+Q  !F"
007404:  254000403410  jrst     403410          ;"5@ @<("
007405:  201100000170  movei    2, 170          ;"0)  !X"
007406:  136100000146  idpb     2, 146          ;"+Q  !F"
007407:  231040000012  idivi    1, 12           ;"3(@  *"
007410:  136040000146  idpb     1, 146          ;"+P@ !F"
007411:  136100000146  idpb     2, 146          ;"+Q  !F"
007412:  200100000146  move     2, 146          ;"0!  !F"
007413:  254000403336  jrst     403336          ;"5@ @;>"
007414:  000000000004                           ;"     $"
007415:  000000000062                           ;"     R"
007416:  000000000764                           ;"    'T"
007417:  000000011610                           ;"   !.("
007420:  000000141520                           ;"   ,-0"
007421:  000001720440                           ;"  !Z$@"
007422:  000023045500                           ;"  3$M "
007423:  402000000004  setzm    4               ;"@0   $"
007424:  623200400000  tlze     4, 400000       ;"R: @  "
007425:  661240400000  tlo      5, 400000       ;"V*@@  "
007426:  264000000474  jsr      474             ;"6@  $\"
007427:  254120000456  jrstf    @456            ;"5A0 $N"
007430:  350000000160  aos      0, 160          ;"=   !P"
007431:  402000000002  setzm    2               ;"@0   ""
007432:  623040400000  tlze     1, 400000       ;"R8@@  "
007433:  661100400000  tlo      2, 400000       ;"V) @  "
007434:  254120000474  jrstf    @474            ;"5A0 $\"
007435:  040000000000  .iot     0, 0            ;"$     "
007436:  777777777776  conso    774, @777776(17);"_____^"
007437:  007336502512                           ;" [>H5*"
007440:  000576215422                           ;" %^1L2"
007441:  000177120124                           ;" !_*!4"
007442:  004360643000                           ;" CPT8 "
007443:  777777777406  conso    774, @777406(17);"____\&"
007444:  000000000000                           ;"      "
007445:  000000000000                           ;"      "
007446:  000000000000                           ;"      "
007447:  000000000000                           ;"      "
007450:  000000000000                           ;"      "
007451:  000000000000                           ;"      "
007452:  000000000000                           ;"      "
007453:  000000000000                           ;"      "
007454:  000000000000                           ;"      "
007455:  000000000000                           ;"      "
007456:  000000000000                           ;"      "
007457:  000000000000                           ;"      "
007460:  000000000000                           ;"      "
007461:  000000000000                           ;"      "
007462:  000000000000                           ;"      "
007463:  000000000000                           ;"      "
007464:  000000000000                           ;"      "
007465:  000000000000                           ;"      "
007466:  000000000000                           ;"      "
007467:  000000000000                           ;"      "
007470:  000000000000                           ;"      "
007471:  000000000000                           ;"      "
007472:  000000000000                           ;"      "
007473:  000000000000                           ;"      "
007474:  000000000000                           ;"      "
007475:  000000000000                           ;"      "
007476:  000000000000                           ;"      "
007477:  000000000000                           ;"      "
007500:  000000000000                           ;"      "
007501:  000000000000                           ;"      "
007502:  000000000000                           ;"      "
007503:  000000000000                           ;"      "
007504:  000000000000                           ;"      "
007505:  000000000000                           ;"      "
007506:  000000000000                           ;"      "
007507:  000000000000                           ;"      "
007510:  000000000000                           ;"      "
007511:  000000000000                           ;"      "
007512:  000000000000                           ;"      "
007513:  000000000000                           ;"      "
007514:  000000000000                           ;"      "
007515:  000000000000                           ;"      "
007516:  000000000000                           ;"      "
007517:  000000000000                           ;"      "
007520:  000000000000                           ;"      "
007521:  000000000000                           ;"      "
007522:  000000000000                           ;"      "
007523:  000000000000                           ;"      "
007524:  000000000000                           ;"      "
007525:  000000000000                           ;"      "
007526:  000000000000                           ;"      "
007527:  000000000000                           ;"      "
007530:  000000000000                           ;"      "
007531:  000000000000                           ;"      "
007532:  000000000000                           ;"      "
007533:  000000000000                           ;"      "
007534:  000000000000                           ;"      "
007535:  000000000000                           ;"      "
007536:  000000000000                           ;"      "
007537:  000000000000                           ;"      "
007540:  000000000000                           ;"      "
007541:  000000000000                           ;"      "
007542:  000000000000                           ;"      "
007543:  000000000000                           ;"      "
007544:  000000000000                           ;"      "
007545:  000000000000                           ;"      "
007546:  000000000000                           ;"      "
007547:  000000000000                           ;"      "
007550:  000000000000                           ;"      "
007551:  000000000000                           ;"      "
007552:  000000000000                           ;"      "
007553:  000000000000                           ;"      "
007554:  000000000000                           ;"      "
007555:  000000000000                           ;"      "
007556:  000000000000                           ;"      "
007557:  000000000000                           ;"      "
007560:  000000000000                           ;"      "
007561:  000000000000                           ;"      "
007562:  000000000000                           ;"      "
007563:  000000000000                           ;"      "
007564:  000000000000                           ;"      "
007565:  000000000000                           ;"      "
007566:  000000000000                           ;"      "
007567:  000000000000                           ;"      "
007570:  000000000000                           ;"      "
007571:  000000000000                           ;"      "
007572:  000000000000                           ;"      "
007573:  000000000000                           ;"      "
007574:  541100403600  hrri     2, 403600       ;"L) @> "
007575:  552100001066  hrrzm    2, 1066         ;"M1  (V"
007576:  552100001050  hrrzm    2, 1050         ;"M1  (H"
007577:  402000001070  setzm    1070            ;"@0  (X"
007600:  550740001070  hrrz     17, 1070        ;"M'@ (X"
007601:  201000000736  movei    0, 736          ;"0(  '>"
007602:  322740403610  jumpe    17, 403610      ;":7@@>("
007603:  307740403600  caig     17, 403600      ;"8_@@> "
007604:  260000400050  pushj    0, 400050       ;"6  @ H"
007605:  301740416760  cail     17, 416760      ;"8/@AWP"
007606:  260000400050  pushj    0, 400050       ;"6  @ H"
007607:  254017000000  jrst     (17)            ;"5@/   "
007610:  554740001066  hlrz     17, 1066        ;"MG@ (V"
007611:  303740000002  caile    17, 2           ;"8?@  ""
007612:  260000400050  pushj    0, 400050       ;"6  @ H"
007613:  254017403614  jrst     403614(17)      ;"5@/@>,"
007614:  254000404512  jrst     404512          ;"5@ @E*"
007615:  254000404564  jrst     404564          ;"5@ @ET"
007616:  254000404564  jrst     404564          ;"5@ @ET"
007617:  254000404564  jrst     404564          ;"5@ @ET"
007620:  254000403574  jrst     403574          ;"5@ @=\"
007621:  254000403600  jrst     403600          ;"5@ @> "
007622:  403040001316  setzb    1, 1316         ;"@8@ +."
007623:  402000001064  setzm    1064            ;"@0  (T"
007624:  254000400052  jrst     400052          ;"5@ @ J"
007625:  201040000002  movei    1, 2            ;"0(@  ""
007626:  200200001066  move     4, 1066         ;"0"  (V"
007627:  254000400052  jrst     400052          ;"5@ @ J"
007630:  201040000012  movei    1, 12           ;"0(@  *"
007631:  200200001066  move     4, 1066         ;"0"  (V"
007632:  254000400052  jrst     400052          ;"5@ @ J"
007633:  201040000000  movei    1, 0            ;"0(@   " " \"\0\0\0"
007634:  254000400052  jrst     400052          ;"5@ @ J"
007635:  201040000002  movei    1, 2            ;"0(@  ""
007636:  200200001066  move     4, 1066         ;"0"  (V"
007637:  254000400052  jrst     400052          ;"5@ @ J"
007640:  201040000010  movei    1, 10           ;"0(@  ("
007641:  254000400052  jrst     400052          ;"5@ @ J"
007642:  201040000012  movei    1, 12           ;"0(@  *"
007643:  254000400052  jrst     400052          ;"5@ @ J"
007644:  201200000000  movei    4, 0            ;"0*    " " (\0\0\0"
007645:  201040000014  movei    1, 14           ;"0(@  ,"
007646:  254000400052  jrst     400052          ;"5@ @ J"
007647:  336000001064  skipn    0, 1064         ;";P  (T"
007650:  254000403654  jrst     403654          ;"5@ @>L"
007651:  264000000770  jsr      770             ;"6@  'X"
007652:  254000404702  jrst     404702          ;"5@ @G""
007653:  514040001070  hrlz     1, 1070         ;"I@@ (X"
007654:  541040403660  hrri     1, 403660       ;"L(@@>P"
007655:  202040001070  movem    1, 1070         ;"00@ (X"
007656:  201040000006  movei    1, 6            ;"0(@  &"
007657:  254000400052  jrst     400052          ;"5@ @ J"
007660:  554040001070  hlrz     1, 1070         ;"M@@ (X"
007661:  202040001070  movem    1, 1070         ;"00@ (X"
007662:  336000001064  skipn    0, 1064         ;";P  (T"
007663:  254000403600  jrst     403600          ;"5@ @> "
007664:  336000001062  skipn    0, 1062         ;";P  (R"
007665:  254000403652  jrst     403652          ;"5@ @>J"
007666:  254000403600  jrst     403600          ;"5@ @> "
007667:  505100000000  hrli     2, 0            ;"HI    " "Q$\0\0\0"
007670:  254000403672  jrst     403672          ;"5@ @>Z"
007671:  550100000002  hrrz     2, 2            ;"M!   ""
007672:  202100000170  movem    2, 170          ;"01  !X"
007673:  552100001330  hrrzm    2, 1330         ;"M1  +8"
007674:  200100001332  move     2, 1332         ;"0!  +:"
007675:  202100000170  movem    2, 170          ;"01  !X"
007676:  200100001054  move     2, 1054         ;"0!  (L"
007677:  202100000176  movem    2, 176          ;"01  !^"
007700:  200100001334  move     2, 1334         ;"0!  +<"
007701:  202100000172  movem    2, 172          ;"01  !Z"
007702:  200100001334  move     2, 1334         ;"0!  +<"
007703:  202100000174  movem    2, 174          ;"01  !\"
007704:  200100001336  move     2, 1336         ;"0!  +>"
007705:  202100000174  movem    2, 174          ;"01  !\"
007706:  201040000006  movei    1, 6            ;"0(@  &"
007707:  254000400052  jrst     400052          ;"5@ @ J"
007710:  201040000010  movei    1, 10           ;"0(@  ("
007711:  254000400052  jrst     400052          ;"5@ @ J"
007712:  505000420134  hrli     0, 420134       ;"HH B!<"
007713:  254000404444  jrst     404444          ;"5@ @DD"
007714:  505000420136  hrli     0, 420136       ;"HH B!>"
007715:  254000404444  jrst     404444          ;"5@ @DD"
007716:  350000001072  aos      0, 1072         ;"=   (Z"
007717:  264000000766  jsr      766             ;"6@  'V"
007720:  201240403724  movei    5, 403724       ;"0*@@?4"
007721:  202240001070  movem    5, 1070         ;"02@ (X"
007722:  254000403640  jrst     403640          ;"5@ @>@"
007723:  202040001104  movem    1, 1104         ;"00@ )$"
007724:  264000000770  jsr      770             ;"6@  'X"
007725:  326040404034  jumpn    1, 404034       ;":P@@@<"
007726:  402000001120  setzm    1120            ;"@0  )0"
007727:  335000001316  skipge   0, 1316         ;";H  +."
007730:  213000001316  movns    0, 1316         ;"18  +."
007731:  402000001252  setzm    1252            ;"@0  *J"
007732:  336000001330  skipn    0, 1330         ;";P  +8"
007733:  254000403744  jrst     403744          ;"5@ @?D"
007734:  265240404672  jsp      5, 404672       ;"6J@@FZ"
007735:  403737403710  setzb    16, @403710(17) ;"@??@?("
007736:  402000001330  setzm    1330            ;"@0  +8"
007737:  264000000770  jsr      770             ;"6@  'X"
007740:  505740041000  hrli     17, 41000       ;"HO@$( "
007741:  541740417736  hrri     17, 417736      ;"L/@A_>"
007742:  202740001250  movem    17, 1250        ;"07@ *H"
007743:  254000403756  jrst     403756          ;"5@ @?N"
007744:  200740001316  move     17, 1316        ;"0'@ +."
007745:  505000404004  hrli     0, 404004       ;"HH @@$"
007746:  332000000016  skipe    0, 16           ;";0   ."
007747:  505000404006  hrli     0, 404006       ;"HH @@&"
007750:  264000000772  jsr      772             ;"6@  'Z"
007751:  254000403770  jrst     403770          ;"5@ @?X"
007752:  260000404346  pushj    0, 404346       ;"6  @CF"
007753:  200740001316  move     17, 1316        ;"0'@ +."
007754:  305740000002  caige    17, 2           ;"8O@  ""
007755:  254000403766  jrst     403766          ;"5@ @?V"
007756:  265240404740  jsp      5, 404740       ;"6J@@G@"
007757:  041000404010  .open    0, 404010       ;"$( @@("
007760:  041000404014  .open    0, 404014       ;"$( @@,"
007761:  000000001250                           ;"    *H"
007762:  576701513520  hlrem    16, 513520(1)   ;"OW!I=0"
007763:  777777777776  conso    774, @777776(17);"_____^"
007764:  402000001316  setzm    1316            ;"@0  +."
007765:  254000405324  jrst     405324          ;"5@ @K4"
007766:  201740404020  movei    17, 404020      ;"0/@@@0"
007767:  336000001252  skipn    0, 1252         ;";P  *J"
007770:  201740404022  movei    17, 404022      ;"0/@@@2"
007771:  505740041000  hrli     17, 41000       ;"HO@$( "
007772:  202740001250  movem    17, 1250        ;"07@ *H"
007773:  265240404740  jsp      5, 404740       ;"6J@@G@"
007774:  000000001252                           ;"    *J"
007775:  576701703520  hlrem    16, 703520(1)   ;"OW!X=0"
007776:  041000404022  .open    0, 404022       ;"$( @@2"
007777:  041000404014  .open    0, 404014       ;"$( @@,"
010000:  000000001250                           ;"    *H"
010001:  576701513520  hlrem    16, 513520(1)   ;"OW!I=0"
010002:  777777777776  conso    774, @777776(17);"_____^"
010003:  402000001316  setzm    1316            ;"@0  +."
010004:  254000405324  jrst     405324          ;"5@ @K4"
010005:  066240711440                           ;"&R@Y,@"
010006:  134240473520  ildb     5, 473520       ;"+B@G=0"
010007:  176025701760  fdvrm    0, @701760(5)   ;"/P5X/P"
010010:  022724000000                           ;""74   "
010011:  044654711200  .uset    15, 711200(14)  ;"$FLY* "
010012:  360324701420  soj      6, @701420(4)   ;">#4X,0"
010013:  352000000000  aose     0, 0            ;"=0    " ":@\0\0\0"
010014:  360310701560  soj      6, 701560(10)   ;">#(X-P"
010015:  360310513600  soj      6, 513600(10)   ;">#(I> "
010016:  154314441140  fsbr     6, 441140(14)   ;"-C,D)@" "\033\fdB0"
010017:  120724000000                           ;"*'4   "
010020:  360500770600  soj      12, 770600      ;">% _& "
010021:  176145213520  fdvrm    3, 213520(5)    ;"/QE1=0"
010022:  352000000000  aose     0, 0            ;"=0    " ":@\0\0\0"
010023:  044740651100  .uset    17, 651100      ;"$G@U) "
010024:  142724000000  fadm     16, @(4)        ;",74   "
010025:  265240404740  jsp      5, 404740       ;"6J@@G@"
010026:  041000404010  .open    0, 404010       ;"$( @@("
010027:  041000404014  .open    0, 404014       ;"$( @@,"
010030:  576701513520  hlrem    16, 513520(1)   ;"OW!I=0"
010031:  777777777776  conso    774, @777776(17);"_____^"
010032:  402000001316  setzm    1316            ;"@0  +."
010033:  254000405324  jrst     405324          ;"5@ @K4"
010034:  200240001120  move     5, 1120         ;"0"@ )0"
010035:  202240001120  movem    5, 1120         ;"02@ )0"
010036:  260000414406  pushj    0, 414406       ;"6  AD&"
010037:  200240001072  move     5, 1072         ;"0"@ (Z"
010040:  270240417104  add      5, 417104       ;"7"@AY$"
010041:  552345777776  hrrzm    7, 777776(5)    ;"M3E__^"
010042:  350000001072  aos      0, 1072         ;"=   (Z"
010043:  275240000002  subi     5, 2            ;"7J@  ""
010044:  316240001072  camn     5, 1072         ;"9R@ (Z"
010045:  254000404050  jrst     404050          ;"5@ @@H"
010046:  552245777776  hrrzm    5, 777776(5)    ;"M2E__^"
010047:  254000404042  jrst     404042          ;"5@ @@B"
010050:  200340000004  move     7, 4            ;"0#@  $"
010051:  270240417104  add      5, 417104       ;"7"@AY$"
010052:  202240001072  movem    5, 1072         ;"02@ (Z"
010053:  202340001112  movem    7, 1112         ;"03@ )*"
010054:  200240001120  move     5, 1120         ;"0"@ )0"
010055:  202240001120  movem    5, 1120         ;"02@ )0"
010056:  321240407454  jumpl    5, 407454       ;":*@@\L"
010057:  332000001330  skipe    0, 1330         ;";0  +8"
010060:  254000404066  jrst     404066          ;"5@ @@V"
010061:  336000001316  skipn    0, 1316         ;";P  +."
010062:  254000404066  jrst     404066          ;"5@ @@V"
010063:  135740417134  ldb      17, 417134      ;"+O@AY<"
010064:  322740405352  jumpe    17, 405352      ;":7@@KJ"
010065:  254000405450  jrst     405450          ;"5@ @LH"
010066:  200040001132  move     1, 1132         ;"0 @ ):"
010067:  201740000014  movei    17, 14          ;"0/@  ,"
010070:  137740000000  dpb      17, 0           ;"+_@   "
010071:  402000001254  setzm    1254            ;"@0  *L"
010072:  200100001070  move     2, 1070         ;"0!  (X"
010073:  306100000110  cain     2, 110          ;"8Q  !("
010074:  476000001254  setom    1254            ;"GP  *L"
010075:  254000416640  jrst     416640          ;"5@ AV@"
010076:  260000413250  pushj    0, 413250       ;"6  A:H"
010077:  505000420256  hrli     0, 420256       ;"HH B"N"
010100:  254000404442  jrst     404442          ;"5@ @DB"
010101:  202100000624  movem    2, 624          ;"01  &4"
010102:  402000000664  setzm    664             ;"@0  &T"
010103:  265240412204  jsp      5, 412204       ;"6J@A2$"
010104:  554740000016  hlrz     17, 16          ;"MG@  ."
010105:  322740404100  jumpe    17, 404100      ;":7@@A "
010106:  316740417016  camn     17, 417016      ;"9W@AX."
010107:  254000404100  jrst     404100          ;"5@ @A "
010110:  200740000624  move     17, 624         ;"0'@ &4"
010111:  200100001154  move     2, 1154         ;"0!  )L"
010112:  260000415454  pushj    0, 415454       ;"6  ALL"
010113:  264000000772  jsr      772             ;"6@  'Z"
010114:  254000404136  jrst     404136          ;"5@ @A>"
010115:  260000404346  pushj    0, 404346       ;"6  @CF"
010116:  332000001330  skipe    0, 1330         ;";0  +8"
010117:  260000404346  pushj    0, 404346       ;"6  @CF"
010120:  265240404740  jsp      5, 404740       ;"6J@@G@"
010121:  041000417726  .open    0, 417726       ;"$( A_6"
010122:  000000001250                           ;"    *H"
010123:  576715650000  hlrem    16, 650000(15)  ;"OW-U  " "_\\nP\0"
010124:  000000000000                           ;"      "
010125:  576745650000  hlrem    17, 650000(5)   ;"OWEU  " "_^.P\0"
010126:  000000001154                           ;"    )L"
010127:  000000000000                           ;"      "
010130:  000000417070                           ;"   AXX"
010131:  576721643500  hlrem    16, @643500(1)  ;"OW1T= "
010132:  322724000000  jumpe    16, @(4)        ;":74   " "4] \0\0"
010133:  777777777776  conso    774, @777776(17);"_____^"
010134:  254000404462  jrst     404462          ;"5@ @DR"
010135:  201240404126  movei    5, 404126       ;"0*@@A6"
010136:  254000404740  jrst     404740          ;"5@ @G@"
010137:  260000413250  pushj    0, 413250       ;"6  A:H"
010140:  254000403716  jrst     403716          ;"5@ @?."
010141:  505000420262  hrli     0, 420262       ;"HH B"R"
010142:  254000404444  jrst     404444          ;"5@ @DD"
010143:  505000420156  hrli     0, 420156       ;"HH B!N"
010144:  254000404444  jrst     404444          ;"5@ @DD"
010145:  505000420034  hrli     0, 420034       ;"HH B <"
010146:  254000404444  jrst     404444          ;"5@ @DD"
010147:  505000420040  hrli     0, 420040       ;"HH B @"
010150:  254000404444  jrst     404444          ;"5@ @DD"
010151:  505000420072  hrli     0, 420072       ;"HH B Z"
010152:  254000404444  jrst     404444          ;"5@ @DD"
010153:  505000420104  hrli     0, 420104       ;"HH B!$"
010154:  254000404444  jrst     404444          ;"5@ @DD"
010155:  505000420056  hrli     0, 420056       ;"HH B N"
010156:  254000404444  jrst     404444          ;"5@ @DD"
010157:  505000420064  hrli     0, 420064       ;"HH B T"
010160:  254000404444  jrst     404444          ;"5@ @DD"
010161:  505000420212  hrli     0, 420212       ;"HH B"*"
010162:  254000404444  jrst     404444          ;"5@ @DD"
010163:  505000420232  hrli     0, 420232       ;"HH B":"
010164:  254000404444  jrst     404444          ;"5@ @DD"
010165:  505000420252  hrli     0, 420252       ;"HH B"J"
010166:  254000404444  jrst     404444          ;"5@ @DD"
010167:  135140417132  ldb      3, 417132       ;"+I@AY:"
010170:  505000420176  hrli     0, 420176       ;"HH B!^"
010171:  306140000000  cain     3, 0            ;"8Q@   " "1F\0\0\0"
010172:  505000420172  hrli     0, 420172       ;"HH B!Z"
010173:  254000404444  jrst     404444          ;"5@ @DD"
010174:  505000420246  hrli     0, 420246       ;"HH B"F"
010175:  254000404444  jrst     404444          ;"5@ @DD"
010176:  505000420166  hrli     0, 420166       ;"HH B!V"
010177:  254000404444  jrst     404444          ;"5@ @DD"
010200:  505000420176  hrli     0, 420176       ;"HH B!^"
010201:  254000404444  jrst     404444          ;"5@ @DD"
010202:  135140417132  ldb      3, 417132       ;"+I@AY:"
010203:  505000420150  hrli     0, 420150       ;"HH B!H"
010204:  306140000000  cain     3, 0            ;"8Q@   " "1F\0\0\0"
010205:  505000420152  hrli     0, 420152       ;"HH B!J"
010206:  254000404444  jrst     404444          ;"5@ @DD"
010207:  550740000660  hrrz     17, 660         ;"M'@ &P"
010210:  274740417070  sub      17, 417070      ;"7G@AXX"
010211:  504017404214  hrl      0, 404214(17)   ;"H@/@B,"
010212:  254000404444  jrst     404444          ;"5@ @DD"
010213:  000000420256                           ;"   B"N"
010214:  000000420144                           ;"   B!D"
010215:  000000420142                           ;"   B!B"
010216:  000000420146                           ;"   B!F"
010217:  550740000660  hrrz     17, 660         ;"M'@ &P"
010220:  274740417070  sub      17, 417070      ;"7G@AXX"
010221:  504017404224  hrl      0, 404224(17)   ;"H@/@B4"
010222:  254000404444  jrst     404444          ;"5@ @DD"
010223:  000000420256                           ;"   B"N"
010224:  000000420172                           ;"   B!Z"
010225:  000000420176                           ;"   B!^"
010226:  000000420166                           ;"   B!V"
010227:  505000420270  hrli     0, 420270       ;"HH B"X"
010230:  254000404444  jrst     404444          ;"5@ @DD"
010231:  505000420256  hrli     0, 420256       ;"HH B"N"
010232:  254000404444  jrst     404444          ;"5@ @DD"
010233:  505000420120  hrli     0, 420120       ;"HH B!0"
010234:  254000404444  jrst     404444          ;"5@ @DD"
010235:  505000420302  hrli     0, 420302       ;"HH B#""
010236:  254000404444  jrst     404444          ;"5@ @DD"
010237:  505000420114  hrli     0, 420114       ;"HH B!,"
010240:  254000404444  jrst     404444          ;"5@ @DD"
010241:  505000420224  hrli     0, 420224       ;"HH B"4"
010242:  254000404444  jrst     404444          ;"5@ @DD"
010243:  505000420310  hrli     0, 420310       ;"HH B#("
010244:  254000404444  jrst     404444          ;"5@ @DD"
010245:  200240001154  move     5, 1154         ;"0"@ )L"
010246:  554200001066  hlrz     4, 1066         ;"MB  (V"
010247:  367200404252  sojg     4, 404252       ;">Z @BJ"
010250:  505240141000  hrli     5, 141000       ;"HJ@,( "
010251:  271240000000  addi     5, 0            ;"7*@   " ".*\0\0\0"
010252:  202240001252  movem    5, 1252         ;"02@ *J"
010253:  332000001330  skipe    0, 1330         ;";0  +8"
010254:  254000404346  jrst     404346          ;"5@ @CF"
010255:  265240404740  jsp      5, 404740       ;"6J@@G@"
010256:  000000001252                           ;"    *J"
010257:  576645650000  hlrem    15, 650000(5)   ;"OVEU  " "_Z.P\0"
010260:  777777777776  conso    774, @777776(17);"_____^"
010261:  265240404740  jsp      5, 404740       ;"6J@@G@"
010262:  576160621520  hlrem    3, @621520      ;"OQPR-0"
010263:  152361603600  fsbm     7, @603600(1)   ;"-3QP> "
010264:  070220743600                           ;"'"0\> "
010265:  110250441300                           ;")"HD+ "
010266:  142715513520  fadm     16, 513520(15)  ;",7-I=0"
010267:  777777777776  conso    774, @777776(17);"_____^"
010270:  264000000766  jsr      766             ;"6@  'V"
010271:  402000001070  setzm    1070            ;"@0  (X"
010272:  331000001120  skipl    0, 1120         ;";(  )0"
010273:  254000403622  jrst     403622          ;"5@ @>2"
010274:  254000407410  jrst     407410          ;"5@ @\("
010275:  505000420322  hrli     0, 420322       ;"HH B#2"
010276:  254000404444  jrst     404444          ;"5@ @DD"
010277:  350000001072  aos      0, 1072         ;"=   (Z"
010300:  200711000000  move     16, (11)        ;"0')   "
010301:  250351000000  exch     7, (11)         ;"5#I   "
010302:  250340000010  exch     7, 10           ;"5#@  ("
010303:  250700001120  exch     16, 1120        ;"5'  )0"
010304:  200100001154  move     2, 1154         ;"0!  )L"
010305:  201740000266  movei    17, 266         ;"0/@ "V"
010306:  136740000002  idpb     17, 2           ;"+W@  ""
010307:  135740001120  ldb      17, 1120        ;"+O@ )0"
010310:  136740000002  idpb     17, 2           ;"+W@  ""
010311:  260000413724  pushj    0, 413724       ;"6  A?4"
010312:  136740000002  idpb     17, 2           ;"+W@  ""
010313:  312700001120  came     16, 1120        ;"97  )0"
010314:  254000404312  jrst     404312          ;"5@ @C*"
010315:  201740000164  movei    17, 164         ;"0/@ !T"
010316:  136740000002  idpb     17, 2           ;"+W@  ""
010317:  254000404114  jrst     404114          ;"5@ @A,"
010320:  200200417116  move     4, 417116       ;"0" AY."
010321:  200100001202  move     2, 1202         ;"0!  *""
010322:  260000414634  pushj    0, 414634       ;"6  AF<"
010323:  201740000164  movei    17, 164         ;"0/@ !T"
010324:  136740000002  idpb     17, 2           ;"+W@  ""
010325:  505000420352  hrli     0, 420352       ;"HH B#J"
010326:  254000404444  jrst     404444          ;"5@ @DD"
010327:  505000420334  hrli     0, 420334       ;"HH B#<"
010330:  254000404444  jrst     404444          ;"5@ @DD"
010331:  201740420330  movei    17, 420330      ;"0/@B#8"
010332:  275740000000  subi     17, 0           ;"7O@   " "/>\0\0\0"
010333:  202740001252  movem    17, 1252        ;"07@ *J"
010334:  260000414406  pushj    0, 414406       ;"6  AD&"
010335:  336000001330  skipn    0, 1330         ;";P  +8"
010336:  254000404344  jrst     404344          ;"5@ @CD"
010337:  265240404672  jsp      5, 404672       ;"6J@@FZ"
010340:  404342403710  and      7, 403710(2)    ;"@CB@?("
010341:  264000000770  jsr      770             ;"6@  'X"
010342:  402000001330  setzm    1330            ;"@0  +8"
010343:  504000001252  hrl      0, 1252         ;"H@  *J"
010344:  254000404444  jrst     404444          ;"5@ @DD"
010345:  201740420406  movei    17, 420406      ;"0/@B$&"
010346:  254000404332  jrst     404332          ;"5@ @C:"
010347:  201740420416  movei    17, 420416      ;"0/@B$."
010350:  254000404332  jrst     404332          ;"5@ @C:"
010351:  200200417116  move     4, 417116       ;"0" AY."
010352:  200100001202  move     2, 1202         ;"0!  *""
010353:  260000414634  pushj    0, 414634       ;"6  AF<"
010354:  201740000164  movei    17, 164         ;"0/@ !T"
010355:  136740000002  idpb     17, 2           ;"+W@  ""
010356:  505000420356  hrli     0, 420356       ;"HH B#N"
010357:  254000404444  jrst     404444          ;"5@ @DD"
010360:  505000420360  hrli     0, 420360       ;"HH B#P"
010361:  254000404444  jrst     404444          ;"5@ @DD"
010362:  201740420372  movei    17, 420372      ;"0/@B#Z"
010363:  254000404332  jrst     404332          ;"5@ @C:"
010364:  201740420332  movei    17, 420332      ;"0/@B#:"
010365:  254000404332  jrst     404332          ;"5@ @C:"
010366:  201740420422  movei    17, 420422      ;"0/@B$2"
010367:  254000404332  jrst     404332          ;"5@ @C:"
010370:  505000420434  hrli     0, 420434       ;"HH B$<"
010371:  254000404444  jrst     404444          ;"5@ @DD"
010372:  202740001232  movem    17, 1232        ;"07@ *:"
010373:  554740000000  hlrz     17, 0           ;"MG@   "
010374:  505740041000  hrli     17, 41000       ;"HO@$( "
010375:  202740001252  movem    17, 1252        ;"07@ *J"
010376:  200740001316  move     17, 1316        ;"0'@ +."
010377:  325740404402  jumpge   17, 404402      ;":O@@D""
010400:  201740000000  movei    17, 0           ;"0/@   " " >\0\0\0"
010401:  335000001120  skipge   0, 1120         ;";H  )0"
010402:  403740001316  setzb    17, 1316        ;"@?@ +."
010403:  551000000736  hrrzi    0, 736          ;"M(  '>"
010404:  620740777774  trz      17, 777774      ;"R'@__\"
010405:  201100404474  movei    2, 404474       ;"0) @D\"
010406:  270100000016  add      2, 16           ;"7!   ."
010407:  505100041000  hrli     2, 41000        ;"HI $( "
010410:  202100001250  movem    2, 1250         ;"01  *H"
010411:  260000414704  pushj    0, 414704       ;"6  AG$"
010412:  254017404424  jrst     404424(17)      ;"5@/@D4"
010413:  303740000000  caile    17, 0           ;"8?@   " "0~\0\0\0"
010414:  254017404424  jrst     404424(17)      ;"5@/@D4"
010415:  201100404504  movei    2, 404504       ;"0) @E$"
010416:  542100001250  hrrm     2, 1250         ;"L1  *H"
010417:  322740404440  jumpe    17, 404440      ;":7@@D@"
010420:  201100404506  movei    2, 404506       ;"0) @E&"
010421:  542100001250  hrrm     2, 1250         ;"L1  *H"
010422:  254000404434  jrst     404434          ;"5@ @D<"
010423:  254020000772  jrst     @772            ;"5@0 'Z"
010424:  254000404434  jrst     404434          ;"5@ @D<"
010425:  254000404440  jrst     404440          ;"5@ @D@"
010426:  200100001320  move     2, 1320         ;"0!  +0"
010427:  200102000000  move     2, (2)          ;"0!"   "
010430:  200042000000  move     1, (2)          ;"0 B   "
010431:  200102000000  move     2, (2)          ;"0!"   "
010432:  200142000000  move     3, (2)          ;"0!B   "
010433:  254000404436  jrst     404436          ;"5@ @D>"
010434:  200040001324  move     1, 1324         ;"0 @ +4"
010435:  200140001326  move     3, 1326         ;"0!@ +6"
010436:  260000414676  pushj    0, 414676       ;"6  AF^"
010437:  550240000772  hrrz     5, 772          ;"M"@ 'Z"
010440:  254005000002  jrst     2(5)            ;"5@%  ""
010441:  200740404504  move     17, 404504      ;"0'@@E$"
010442:  334000000000  skipa    0, 0            ;";@    " "7\0\0\0\0"
010443:  200740404502  move     17, 404502      ;"0'@@E""
010444:  332000001330  skipe    0, 1330         ;";0  +8"
010445:  254000404346  jrst     404346          ;"5@ @CF"
010446:  264000000772  jsr      772             ;"6@  'Z"
010447:  254000404470  jrst     404470          ;"5@ @DX"
010450:  260000404346  pushj    0, 404346       ;"6  @CF"
010451:  265240404740  jsp      5, 404740       ;"6J@@G@"
010452:  041000417726  .open    0, 417726       ;"$( A_6"
010453:  000000001250                           ;"    *H"
010454:  576715650000  hlrem    16, 650000(15)  ;"OW-U  " "_\\nP\0"
010455:  000000000000                           ;"      "
010456:  576745650000  hlrem    17, 650000(5)   ;"OWEU  " "_^.P\0"
010457:  000000001252                           ;"    *J"
010460:  000000001232                           ;"    *:"
010461:  777777777776  conso    774, @777776(17);"_____^"
010462:  331000001120  skipl    0, 1120         ;";(  )0"
010463:  254000404466  jrst     404466          ;"5@ @DV"
010464:  254000407410  jrst     407410          ;"5@ @\("
010465:  402000001316  setzm    1316            ;"@0  +."
010466:  254000405324  jrst     405324          ;"5@ @K4"
010467:  265240404740  jsp      5, 404740       ;"6J@@G@"
010470:  000000001252                           ;"    *J"
010471:  000000001232                           ;"    *:"
010472:  777777777776  conso    774, @777776(17);"_____^"
010473:  254000404462  jrst     404462          ;"5@ @DR"
010474:  352000000000  aose     0, 0            ;"=0    " ":@\0\0\0"
010475:  176011650000  fdvrm    0, 650000(11)   ;"/P)U  "
010476:  176015650000  fdvrm    0, 650000(15)   ;"/P-U  "
010477:  176021650000  fdvrm    0, @650000(1)   ;"/P1U  "
010500:  176050770260  fdvrm    1, 770260(10)   ;"/PH_"P"
010501:  352000000000  aose     0, 0            ;"=0    " ":@\0\0\0"
010502:  340645650000  aoj      15, 650000(5)   ;"<&EU  "
010503:  350645650000  aos      15, 650000(5)   ;"=&EU  "
010504:  360374301760  soj      7, @301760(14)  ;">#\8/P"
010505:  062724000000                           ;"&74   " "\f] \0\0"
010506:  176011702400  fdvrm    0, 702400(11)   ;"/P)X4 "
010507:  176140770620  fdvrm    3, 770620       ;"/Q@_&0"
010510:  242724000000  lsh      16, @(4)        ;"474   " "(] \0\0"
010511:  200100417104  move     2, 417104       ;"0! AY$"
010512:  271100001050  addi     2, 1050         ;"7)  (H"
010513:  202100001072  movem    2, 1072         ;"01  (Z"
010514:  275100000000  subi     2, 0            ;"7I    " "/$\0\0\0"
010515:  402002000000  setzm    (2)             ;"@0"   "
010516:  302100001074  caie     2, 1074         ;"81  (\"
010517:  364100404516  soja     2, 404516       ;">A @E."
010520:  264000000770  jsr      770             ;"6@  'X"
010521:  260000415022  pushj    0, 415022       ;"6  AH2"
010522:  201100000000  movei    2, 0            ;"0)    " " $\0\0\0"
010523:  202102001306  movem    2, 1306(2)      ;"01" +&"
010524:  202102001310  movem    2, 1310(2)      ;"01" +("
010525:  200100417060  move     2, 417060       ;"0! AXP"
010526:  202100001306  movem    2, 1306         ;"01  +&"
010527:  476000001312  setom    1312            ;"GP  +*"
010530:  476000001314  setom    1314            ;"GP  +,"
010531:  505100041000  hrli     2, 41000        ;"HI $( "
010532:  541100001154  hrri     2, 1154         ;"L)  )L"
010533:  202100001154  movem    2, 1154         ;"01  )L"
010534:  541100001202  hrri     2, 1202         ;"L)  *""
010535:  202100001202  movem    2, 1202         ;"01  *""
010536:  541100001232  hrri     2, 1232         ;"L)  *:"
010537:  202100001232  movem    2, 1232         ;"01  *:"
010540:  541100001240  hrri     2, 1240         ;"L)  *@"
010541:  202100001240  movem    2, 1240         ;"01  *@"
010542:  515100172006  hrlzi    2, 172006       ;"II /0&"
010543:  201040000146  movei    1, 146          ;"0(@ !F"
010544:  202101001336  movem    2, 1336(1)      ;"01! +>"
010545:  274100404562  sub      2, 404562       ;"7A @ER"
010546:  275040000002  subi     1, 2            ;"7H@  ""
010547:  325040404544  jumpge   1, 404544       ;":H@@ED"
010550:  264000000770  jsr      770             ;"6@  'X"
010551:  200100000166  move     2, 166          ;"0!  !V"
010552:  202100001102  movem    2, 1102         ;"01  )""
010553:  260000414772  pushj    0, 414772       ;"6  AGZ"
010554:  265240404740  jsp      5, 404740       ;"6J@@G@"
010555:  000000000000                           ;"      "
010556:  402000001070  setzm    1070            ;"@0  (X"
010557:  201100000000  movei    2, 0            ;"0)    " " $\0\0\0"
010560:  506100001066  hrlm     2, 1066         ;"HQ  (V"
010561:  254000403622  jrst     403622          ;"5@ @>2"
010562:  002000000000                           ;" 0    "
010563:  550100000004  hrrz     2, 4            ;"M!   $"
010564:  202100001066  movem    2, 1066         ;"01  (V"
010565:  202100001104  movem    2, 1104         ;"01  )$"
010566:  264000000770  jsr      770             ;"6@  'X"
010567:  402000001254  setzm    1254            ;"@0  *L"
010570:  200042000002  move     1, 2(2)         ;"0 B  ""
010571:  603040400000  tlne     1, 400000       ;"P8@@  "
010572:  476000001254  setom    1254            ;"GP  *L"
010573:  201040000116  movei    1, 116          ;"0(@ !."
010574:  332000001254  skipe    0, 1254         ;";0  *L"
010575:  201040000110  movei    1, 110          ;"0(@ !("
010576:  202040001070  movem    1, 1070         ;"00@ (X"
010577:  200042000000  move     1, (2)          ;"0 B   "
010600:  271100000002  addi     2, 2            ;"7)   ""
010601:  505100010700  hrli     2, 10700        ;"HI !' "
010602:  200240001154  move     5, 1154         ;"0"@ )L"
010603:  476000001330  setom    1330            ;"GP  +8"
010604:  554200001066  hlrz     4, 1066         ;"MB  (V"
010605:  306200000002  cain     4, 2            ;"8R   ""
010606:  254000404614  jrst     404614          ;"5@ @F,"
010607:  402000001330  setzm    1330            ;"@0  +8"
010610:  367200404614  sojg     4, 404614       ;">Z @F,"
010611:  505240141000  hrli     5, 141000       ;"HJ@,( "
010612:  271240000000  addi     5, 0            ;"7*@   " ".*\0\0\0"
010613:  402005000000  setzm    (5)             ;"@0%   " "@@(\0\0"
010614:  260000413744  pushj    0, 413744       ;"6  A?D"
010615:  200100001066  move     2, 1066         ;"0!  (V"
010616:  271100000002  addi     2, 2            ;"7)   ""
010617:  505100010700  hrli     2, 10700        ;"HI !' "
010620:  134140000002  ildb     3, 2            ;"+A@  ""
010621:  201100404664  movei    2, 404664       ;"0) @FT"
010622:  306140000024  cain     3, 24           ;"8Q@  4"
010623:  201100404636  movei    2, 404636       ;"0) @F>"
010624:  202100001070  movem    2, 1070         ;"01  (X"
010625:  331000001074  skipl    0, 1074         ;";(  (\"
010626:  254000403636  jrst     403636          ;"5@ @>>"
010627:  200740417074  move     17, 417074      ;"0'@AX\"
010630:  202740001074  movem    17, 1074        ;"07@ (\"
010631:  135740000000  ldb      17, 0           ;"+O@   "
010632:  306740000014  cain     17, 14          ;"8W@  ,"
010633:  563000001066  hrros    0, 1066         ;"N8  (V"
010634:  254000403630  jrst     403630          ;"5@ @>8"
010635:  264000000770  jsr      770             ;"6@  'X"
010636:  332000001330  skipe    0, 1330         ;";0  +8"
010637:  254000404346  jrst     404346          ;"5@ @CF"
010640:  265240404740  jsp      5, 404740       ;"6J@@G@"
010641:  576374253520  hlrem    7, @253520(14)  ;"OS\5=0" "_ObW("
010642:  576274541420  hlrem    5, @541420(14)  ;"OR\L,0"
010643:  120331701560                           ;"*#9X-P"
010644:  352000000000  aose     0, 0            ;"=0    " ":@\0\0\0"
010645:  576311700160  hlrem    6, 700160(11)   ;"OS)X!P"
010646:  020740661560                           ;""'@V-P"
010647:  152310561200  fsbm     6, 561200(10)   ;"-3(N* "
010650:  154701703520  fsbr     16, 703520(1)   ;"-G!X=0"
010651:  576160441700  hlrem    3, @441700      ;"OQPD/ "
010652:  360220521100  soj      4, @521100      ;">"0J) "
010653:  130305633220                           ;"+#%S:0"
010654:  352000000000  aose     0, 0            ;"=0    " ":@\0\0\0"
010655:  777777777776  conso    774, @777776(17);"_____^"
010656:  264000000766  jsr      766             ;"6@  'V"
010657:  402000001070  setzm    1070            ;"@0  (X"
010660:  554040001066  hlrz     1, 1066         ;"M@@ (V"
010661:  302040000002  caie     1, 2            ;"80@  ""
010662:  254000403622  jrst     403622          ;"5@ @>2"
010663:  254000407410  jrst     407410          ;"5@ @\("
010664:  264000000770  jsr      770             ;"6@  'X"
010665:  554200001066  hlrz     4, 1066         ;"MB  (V"
010666:  362200405006  soje     4, 405006       ;">2 @H&"
010667:  362200407534  soje     4, 407534       ;">2 @]<"
010670:  254000407426  jrst     407426          ;"5@ @\6"
010671:  500245000000  hll      5, (5)          ;"H"E   " "P\n(\0\0"
010672:  556240001070  hlrzm    5, 1070         ;"MR@ (X"
010673:  550245000000  hrrz     5, (5)          ;"M"E   " "Z\n(\0\0"
010674:  254005000000  jrst     (5)             ;"5@%   "
010675:  336000001064  skipn    0, 1064         ;";P  (T"
010676:  254000404724  jrst     404724          ;"5@ @G4"
010677:  332000001330  skipe    0, 1330         ;";0  +8"
010700:  254005000000  jrst     (5)             ;"5@%   "
010701:  402000001064  setzm    1064            ;"@0  (T"
010702:  332000001316  skipe    0, 1316         ;";0  +."
010703:  254000404712  jrst     404712          ;"5@ @G*"
010704:  265240404740  jsp      5, 404740       ;"6J@@G@"
010705:  576374073540  hlrem    7, @73540(14)   ;"OS\'=@" "_O`w0"
010706:  322724000000  jumpe    16, @(4)        ;":74   " "4] \0\0"
010707:  777777777776  conso    774, @777776(17);"_____^"
010710:  254000405324  jrst     405324          ;"5@ @K4"
010711:  200040001324  move     1, 1324         ;"0 @ +4"
010712:  200140001326  move     3, 1326         ;"0!@ +6"
010713:  260000414676  pushj    0, 414676       ;"6  AF^"
010714:  265240404740  jsp      5, 404740       ;"6J@@G@"
010715:  576374053600  hlrem    7, @53600(14)   ;"OS\%> " "_O`W@"
010716:  352000000000  aose     0, 0            ;"=0    " ":@\0\0\0"
010717:  000000001240                           ;"    *@"
010720:  576731513520  hlrem    16, @513520(11) ;"OW9I=0"
010721:  777777777776  conso    774, @777776(17);"_____^"
010722:  402000001316  setzm    1316            ;"@0  +."
010723:  254000405324  jrst     405324          ;"5@ @K4"
010724:  336000000162  skipn    0, 162          ;";P  !R"
010725:  254005000000  jrst     (5)             ;"5@%   "
010726:  264000000766  jsr      766             ;"6@  'V"
010727:  504245000000  hrl      5, (5)          ;"HBE   " "Q\n(\0\0"
010730:  541240404736  hrri     5, 404736       ;"L*@@G>"
010731:  202240001070  movem    5, 1070         ;"02@ (X"
010732:  402000000162  setzm    162             ;"@0  !R"
010733:  201040000004  movei    1, 4            ;"0(@  $"
010734:  254000400052  jrst     400052          ;"5@ @ J"
010735:  264000000770  jsr      770             ;"6@  'X"
010736:  254000404676  jrst     404676          ;"5@ @F^"
010737:  264000000766  jsr      766             ;"6@  'V"
010740:  332000001330  skipe    0, 1330         ;";0  +8"
010741:  254000416070  jrst     416070          ;"5@ APX"
010742:  200205000000  move     4, (5)          ;"0"%   "
010743:  326200404746  jumpn    4, 404746       ;":R @GF"
010744:  476000001074  setom    1074            ;"GP  (\"
010745:  201200404750  movei    4, 404750       ;"0* @GH"
010746:  202200001070  movem    4, 1070         ;"02  (X"
010747:  254000403634  jrst     403634          ;"5@ @><"
010750:  550300000004  hrrz     6, 4            ;"M#   $"
010751:  202300001066  movem    6, 1066         ;"03  (V"
010752:  271300000002  addi     6, 2            ;"7+   ""
010753:  505300010700  hrli     6, 10700        ;"HK !' "
010754:  201000000736  movei    0, 736          ;"0(  '>"
010755:  200240001110  move     5, 1110         ;"0"@ )("
010756:  331000001074  skipl    0, 1074         ;";(  (\"
010757:  254000404766  jrst     404766          ;"5@ @GV"
010760:  201200404764  movei    4, 404764       ;"0* @GT"
010761:  202200001070  movem    4, 1070         ;"02  (X"
010762:  254000403630  jrst     403630          ;"5@ @>8"
010763:  200200417074  move     4, 417074       ;"0" AX\"
010764:  202200001074  movem    4, 1074         ;"02  (\"
010765:  254000405002  jrst     405002          ;"5@ @H""
010766:  260000414100  pushj    0, 414100       ;"6  AA "
010767:  202240001110  movem    5, 1110         ;"02@ )("
010770:  350000001074  aos      0, 1074         ;"=   (\"
010771:  201740405000  movei    17, 405000      ;"0/@@H "
010772:  200205000000  move     4, (5)          ;"0"%   "
010773:  312200417066  came     4, 417066       ;"92 AXV"
010774:  201740404746  movei    17, 404746      ;"0/@@GF"
010775:  202740001070  movem    17, 1070        ;"07@ (X"
010776:  254000403626  jrst     403626          ;"5@ @>6"
010777:  200100001074  move     2, 1074         ;"0!  (\"
011000:  313100417066  camle    2, 417066       ;"99 AXV"
011001:  254000404744  jrst     404744          ;"5@ @GD"
011002:  264000000770  jsr      770             ;"6@  'X"
011003:  402000001070  setzm    1070            ;"@0  (X"
011004:  254005000000  jrst     (5)             ;"5@%   "
011005:  336000001254  skipn    0, 1254         ;";P  *L"
011006:  254000405550  jrst     405550          ;"5@ @MH"
011007:  332000001256  skipe    0, 1256         ;";0  *N"
011010:  260000404246  pushj    0, 404246       ;"6  @BF"
011011:  200100001256  move     2, 1256         ;"0!  *N"
011012:  135740000002  ldb      17, 2           ;"+O@  ""
011013:  201200000166  movei    4, 166          ;"0*  !V"
011014:  302740000160  caie     17, 160         ;"87@ !P"
011015:  254000405020  jrst     405020          ;"5@ @H0"
011016:  137200000002  dpb      4, 2            ;"+Z   ""
011017:  201200000164  movei    4, 164          ;"0*  !T"
011020:  136200000002  idpb     4, 2            ;"+R   ""
011021:  200200001154  move     4, 1154         ;"0"  )L"
011022:  505200141000  hrli     4, 141000       ;"HJ ,( "
011023:  271200000000  addi     4, 0            ;"7*    " ".(\0\0\0"
011024:  202200000604  movem    4, 604          ;"02  &$"
011025:  202200001120  movem    4, 1120         ;"02  )0"
011026:  260000414246  pushj    0, 414246       ;"6  ABF"
011027:  200300000600  move     6, 600          ;"0#  & "
011030:  322300405036  jumpe    6, 405036       ;":3 @H>"
011031:  271300000002  addi     6, 2            ;"7+   ""
011032:  137300000604  dpb      6, 604          ;"+[  &$"
011033:  201300000256  movei    6, 256          ;"0+  "N"
011034:  136300000576  idpb     6, 576          ;"+S  %^"
011035:  200200000604  move     4, 604          ;"0"  &$"
011036:  202200001120  movem    4, 1120         ;"02  )0"
011037:  265240412204  jsp      5, 412204       ;"6J@A2$"
011040:  554300000016  hlrz     6, 16           ;"MC   ."
011041:  312300417016  came     6, 417016       ;"93 AX."
011042:  254000405134  jrst     405134          ;"5@ @I<"
011043:  200057000000  move     1, (17)         ;"0 O   "
011044:  200157000000  move     3, (17)         ;"0!O   "
011045:  265240412204  jsp      5, 412204       ;"6J@A2$"
011046:  312740420636  came     17, 420636      ;"97@B&>"
011047:  254000405054  jrst     405054          ;"5@ @HL"
011050:  265240412204  jsp      5, 412204       ;"6J@A2$"
011051:  316740420636  camn     17, 420636      ;"9W@B&>"
011052:  254000405050  jrst     405050          ;"5@ @HH"
011053:  474200000000  seto     4,              ;"GB    "
011054:  312740420746  came     17, 420746      ;"97@B'F"
011055:  254000405060  jrst     405060          ;"5@ @HP"
011056:  201740000276  movei    17, 276         ;"0/@ "^"
011057:  137740000604  dpb      17, 604         ;"+_@ &$"
011060:  316740420654  camn     17, 420654      ;"9W@B&L"
011061:  254000405066  jrst     405066          ;"5@ @HV"
011062:  326200405066  jumpn    4, 405066       ;":R @HV"
011063:  312740420654  came     17, 420654      ;"97@B&L"
011064:  260000404100  pushj    0, 404100       ;"6  @A "
011065:  325040405070  jumpge   1, 405070       ;":H@@HX"
011066:  260000404174  pushj    0, 404174       ;"6  @A\"
011067:  264000000774  jsr      774             ;"6@  '\"
011070:  260000404200  pushj    0, 404200       ;"6  @B "
011071:  260000412356  pushj    0, 412356       ;"6  A3N"
011072:  260000412436  pushj    0, 412436       ;"6  A4>"
011073:  200140000000  move     3, 0            ;"0!@   "
011074:  200300000002  move     6, 2            ;"0#   ""
011075:  551040001312  hrrzi    1, 1312         ;"M(@ +*"
011076:  260000413406  pushj    0, 413406       ;"6  A<&"
011077:  254000405110  jrst     405110          ;"5@ @I("
011100:  200140000006  move     3, 6            ;"0!@  &"
011101:  200040000002  move     1, 2            ;"0 @  ""
011102:  260000413420  pushj    0, 413420       ;"6  A<0"
011103:  254000405120  jrst     405120          ;"5@ @I0"
011104:  554242000000  hlrz     5, (2)          ;"MBB   "
011105:  260000412712  pushj    0, 412712       ;"6  A7*"
011106:  254000405124  jrst     405124          ;"5@ @I4"
011107:  370000001072  sos      0, 1072         ;"?   (Z"
011110:  250100000006  exch     2, 6            ;"5!   &"
011111:  506101000000  hrlm     2, (1)          ;"HQ!   "
011112:  202142000000  movem    3, (2)          ;"01B   "
011113:  250342000000  exch     7, (2)          ;"5#B   "
011114:  517002000000  hrlzs    0, (2)          ;"IX"   "
011115:  550040000002  hrrz     1, 2            ;"M @  ""
011116:  400100000000  setz     2,              ;"@!    "
011117:  370000001072  sos      0, 1072         ;"?   (Z"
011120:  250100000006  exch     2, 6            ;"5!   &"
011121:  542101000000  hrrm     2, (1)          ;"L1!   "
011122:  202302000000  movem    6, (2)          ;"03"   "
011123:  250342000000  exch     7, (2)          ;"5#B   "
011124:  506342000000  hrlm     7, (2)          ;"HSB   "
011125:  200100000006  move     2, 6            ;"0!   &"
011126:  200040001154  move     1, 1154         ;"0 @ )L"
011127:  202040001120  movem    1, 1120         ;"00@ )0"
011130:  260000414142  pushj    0, 414142       ;"6  AAB"
011131:  550342000000  hrrz     7, (2)          ;"M#B   "
011132:  513002000000  hllzs    0, (2)          ;"I8"   "
011133:  254000405550  jrst     405550          ;"5@ @MH"
011134:  200040001154  move     1, 1154         ;"0 @ )L"
011135:  202040001116  movem    1, 1116         ;"00@ )."
011136:  200140000604  move     3, 604          ;"0!@ &$"
011137:  312740420636  came     17, 420636      ;"97@B&>"
011140:  254000405144  jrst     405144          ;"5@ @ID"
011141:  200140001120  move     3, 1120         ;"0!@ )0"
011142:  265240412204  jsp      5, 412204       ;"6J@A2$"
011143:  254000405140  jrst     405140          ;"5@ @I@"
011144:  402000001124  setzm    1124            ;"@0  )4"
011145:  261000000002  push     0, 2            ;"6(   ""
011146:  260000414772  pushj    0, 414772       ;"6  AGZ"
011147:  262000000002  pop      0, 2            ;"60   ""
011150:  554300000016  hlrz     6, 16           ;"MC   ."
011151:  316300417016  camn     6, 417016       ;"9S AX."
011152:  260000404100  pushj    0, 404100       ;"6  @A "
011153:  316740420724  camn     17, 420724      ;"9W@B'4"
011154:  254000407472  jrst     407472          ;"5@ @\Z"
011155:  316740420746  camn     17, 420746      ;"9W@B'F"
011156:  260000404100  pushj    0, 404100       ;"6  @A "
011157:  135040001256  ldb      1, 1256         ;"+H@ *N"
011160:  326300405174  jumpn    6, 405174       ;":S @I\"
011161:  200300000600  move     6, 600          ;"0#  & "
011162:  322300405164  jumpe    6, 405164       ;":3 @IT"
011163:  260000404100  pushj    0, 404100       ;"6  @A "
011164:  202140001120  movem    3, 1120         ;"01@ )0"
011165:  200740420654  move     17, 420654      ;"0'@B&L"
011166:  306040000166  cain     1, 166          ;"8P@ !V"
011167:  200740420654  move     17, 420654      ;"0'@B&L"
011170:  202740001122  movem    17, 1122        ;"07@ )2"
011171:  402000001120  setzm    1120            ;"@0  )0"
011172:  254000405556  jrst     405556          ;"5@ @MN"
011173:  302300000002  caie     6, 2            ;"83   ""
011174:  254000405240  jrst     405240          ;"5@ @J@"
011175:  200317421060  move     6, 421060(17)   ;"0#/B(P"
011176:  312301420466  came     6, 420466(1)    ;"93!B$V" "2L\f!\033"
011177:  254000405240  jrst     405240          ;"5@ @J@"
011200:  201740000170  movei    17, 170         ;"0/@ !X"
011201:  137740001120  dpb      17, 1120        ;"+_@ )0"
011202:  137740001256  dpb      17, 1256        ;"+_@ *N"
011203:  265240412204  jsp      5, 412204       ;"6J@A2$"
011204:  312740420710  came     17, 420710      ;"97@B'("
011205:  254000405210  jrst     405210          ;"5@ @J("
011206:  201740000260  movei    17, 260         ;"0/@ "P"
011207:  254000405214  jrst     405214          ;"5@ @J,"
011210:  312740420716  came     17, 420716      ;"97@B'."
011211:  260000404100  pushj    0, 404100       ;"6  @A "
011212:  201740000262  movei    17, 262         ;"0/@ "R"
011213:  137740001120  dpb      17, 1120        ;"+_@ )0"
011214:  400100000000  setz     2,              ;"@!    "
011215:  260000413724  pushj    0, 413724       ;"6  A?4"
011216:  306740000164  cain     17, 164         ;"8W@ !T"
011217:  254000405230  jrst     405230          ;"5@ @J8"
011220:  302740000160  caie     17, 160         ;"87@ !P"
011221:  254000405224  jrst     405224          ;"5@ @J4"
011222:  200100001120  move     2, 1120         ;"0!  )0"
011223:  254000405216  jrst     405216          ;"5@ @J."
011224:  200757420466  move     17, 420466(17)  ;"0'OB$V"
011225:  312740417064  came     17, 417064      ;"97@AXT"
011226:  254000405214  jrst     405214          ;"5@ @J,"
011227:  254000405216  jrst     405216          ;"5@ @J."
011230:  326100405232  jumpn    2, 405232       ;":Q @J:"
011231:  260000404100  pushj    0, 404100       ;"6  @A "
011232:  201740000166  movei    17, 166         ;"0/@ !V"
011233:  137740000002  dpb      17, 2           ;"+_@  ""
011234:  202100001256  movem    2, 1256         ;"01  *N"
011235:  201740000164  movei    17, 164         ;"0/@ !T"
011236:  136740000002  idpb     17, 2           ;"+W@  ""
011237:  254000405244  jrst     405244          ;"5@ @JD"
011240:  306040000166  cain     1, 166          ;"8P@ !V"
011241:  254000405244  jrst     405244          ;"5@ @JD"
011242:  260000404100  pushj    0, 404100       ;"6  @A "
011243:  260000414772  pushj    0, 414772       ;"6  AGZ"
011244:  200240001116  move     5, 1116         ;"0"@ )."
011245:  505240141000  hrli     5, 141000       ;"HJ@,( "
011246:  271240000000  addi     5, 0            ;"7*@   " ".*\0\0\0"
011247:  135200000004  ldb      4, 4            ;"+J   $"
011250:  306200000276  cain     4, 276          ;"8R  "^"
011251:  260000404100  pushj    0, 404100       ;"6  @A "
011252:  402000001124  setzm    1124            ;"@0  )4"
011253:  200740420654  move     17, 420654      ;"0'@B&L"
011254:  202740001122  movem    17, 1122        ;"07@ )2"
011255:  322200405302  jumpe    4, 405302       ;":2 @K""
011256:  332000001330  skipe    0, 1330         ;";0  +8"
011257:  254000405302  jrst     405302          ;"5@ @K""
011260:  200300001116  move     6, 1116         ;"0#  )."
011261:  260000414200  pushj    0, 414200       ;"6  AB "
011262:  202300001120  movem    6, 1120         ;"03  )0"
011263:  265240412204  jsp      5, 412204       ;"6J@A2$"
011264:  312740420746  came     17, 420746      ;"97@B'F"
011265:  260000404100  pushj    0, 404100       ;"6  @A "
011266:  326200405270  jumpn    4, 405270       ;":R @JX"
011267:  260000404100  pushj    0, 404100       ;"6  @A "
011270:  202740001122  movem    17, 1122        ;"07@ )2"
011271:  260000414546  pushj    0, 414546       ;"6  AEF"
011272:  260000404100  pushj    0, 404100       ;"6  @A "
011273:  265240407620  jsp      5, 407620       ;"6J@@^0"
011274:  265240412452  jsp      5, 412452       ;"6J@A4J"
011275:  254000405300  jrst     405300          ;"5@ @K "
011276:  260000417152  pushj    0, 417152       ;"6  AYJ"
011277:  312740420654  came     17, 420654      ;"97@B&L"
011300:  260000404100  pushj    0, 404100       ;"6  @A "
011301:  322040405324  jumpe    1, 405324       ;":0@@K4"
011302:  200300001116  move     6, 1116         ;"0#  )."
011303:  505300141000  hrli     6, 141000       ;"HK ,( "
011304:  271300000000  addi     6, 0            ;"7+    " ".,\0\0\0"
011305:  202300001120  movem    6, 1120         ;"03  )0"
011306:  202300001266  movem    6, 1266         ;"03  *V"
011307:  265240412204  jsp      5, 412204       ;"6J@A2$"
011310:  316740420636  camn     17, 420636      ;"9W@B&>"
011311:  254000405310  jrst     405310          ;"5@ @K("
011312:  554300000016  hlrz     6, 16           ;"MC   ."
011313:  312300417020  came     6, 417020       ;"93 AX0"
011314:  260000404100  pushj    0, 404100       ;"6  @A "
011315:  552740001120  hrrzm    17, 1120        ;"M7@ )0"
011316:  260000414546  pushj    0, 414546       ;"6  AEF"
011317:  316740001122  camn     17, 1122        ;"9W@ )2"
011320:  254000405322  jrst     405322          ;"5@ @K2"
011321:  260000404100  pushj    0, 404100       ;"6  @A "
011322:  200040001120  move     1, 1120         ;"0 @ )0"
011323:  254001421174  jrst     421174(1)       ;"5@!B)\"
011324:  476000000656  setom    656             ;"GP  &N"
011325:  260000414406  pushj    0, 414406       ;"6  AD&"
011326:  350000000162  aos      0, 162          ;"=   !R"
011327:  332000001316  skipe    0, 1316         ;";0  +."
011330:  254000405336  jrst     405336          ;"5@ @K>"
011331:  201100000000  movei    2, 0            ;"0)    " " $\0\0\0"
011332:  506100001066  hrlm     2, 1066         ;"HQ  (V"
011333:  402000001070  setzm    1070            ;"@0  (X"
011334:  254000403622  jrst     403622          ;"5@ @>2"
011335:  135100417132  ldb      2, 417132       ;"+I AY:"
011336:  322100405332  jumpe    2, 405332       ;":1 @K:"
011337:  306100000002  cain     2, 2            ;"8Q   ""
011340:  254000405422  jrst     405422          ;"5@ @L2"
011341:  200100000656  move     2, 656          ;"0!  &N"
011342:  322100405346  jumpe    2, 405346       ;":1 @KF"
011343:  137100417136  dpb      2, 417136       ;"+Y AY>"
011344:  260000413670  pushj    0, 413670       ;"6  A>X"
011345:  254000405422  jrst     405422          ;"5@ @L2"
011346:  400100000000  setz     2,              ;"@!    "
011347:  137100417136  dpb      2, 417136       ;"+Y AY>"
011350:  137100417134  dpb      2, 417134       ;"+Y AY<"
011351:  476000001316  setom    1316            ;"GP  +."
011352:  265240404676  jsp      5, 404676       ;"6J@@F^"
011353:  000000000004                           ;"     $"
011354:  476000001316  setom    1316            ;"GP  +."
011355:  260000413670  pushj    0, 413670       ;"6  A>X"
011356:  254000405370  jrst     405370          ;"5@ @KX"
011357:  400100000000  setz     2,              ;"@!    "
011360:  137100417136  dpb      2, 417136       ;"+Y AY>"
011361:  200100001326  move     2, 1326         ;"0!  +6"
011362:  554102000000  hlrz     2, (2)          ;"MA"   "
011363:  275100000000  subi     2, 0            ;"7I    " "/$\0\0\0"
011364:  505100041000  hrli     2, 41000        ;"HI $( "
011365:  202100001116  movem    2, 1116         ;"01  )."
011366:  254000405244  jrst     405244          ;"5@ @JD"
011367:  135100417132  ldb      2, 417132       ;"+I AY:"
011370:  306100000000  cain     2, 0            ;"8Q    " "1D\0\0\0"
011371:  254000405344  jrst     405344          ;"5@ @KD"
011372:  135100417140  ldb      2, 417140       ;"+I AY@"
011373:  326100405414  jumpn    2, 405414       ;":Q @L,"
011374:  260000413552  pushj    0, 413552       ;"6  A=J"
011375:  336000001316  skipn    0, 1316         ;";P  +."
011376:  254000405404  jrst     405404          ;"5@ @L$"
011377:  400100000000  setz     2,              ;"@!    "
011400:  137100417134  dpb      2, 417134       ;"+Y AY<"
011401:  137100417136  dpb      2, 417136       ;"+Y AY>"
011402:  505000420142  hrli     0, 420142       ;"HH B!B"
011403:  254000404444  jrst     404444          ;"5@ @DD"
011404:  265240404740  jsp      5, 404740       ;"6J@@G@"
011405:  576374001760  hlrem    7, @1760(14)    ;"OS\ /P"
011406:  002715713520                           ;" 7-Y=0"
011407:  041000420142  .open    0, 420142       ;"$( B!B"
011410:  576701513520  hlrem    16, 513520(1)   ;"OW!I=0"
011411:  777777777776  conso    774, @777776(17);"_____^"
011412:  254000405324  jrst     405324          ;"5@ @K4"
011413:  201040000000  movei    1, 0            ;"0(@   " " \"\0\0\0"
011414:  137040417134  dpb      1, 417134       ;"+X@AY<"
011415:  135040417134  ldb      1, 417134       ;"+H@AY<"
011416:  271040000002  addi     1, 2            ;"7(@  ""
011417:  202040001316  movem    1, 1316         ;"00@ +."
011420:  260000404202  pushj    0, 404202       ;"6  @B""
011421:  135100417140  ldb      2, 417140       ;"+I AY@"
011422:  322100405456  jumpe    2, 405456       ;":1 @LN"
011423:  202100000650  movem    2, 650          ;"01  &H"
011424:  201040000000  movei    1, 0            ;"0(@   " " \"\0\0\0"
011425:  137040417134  dpb      1, 417134       ;"+X@AY<"
011426:  400040000000  setz     1,              ;"@ @   "
011427:  137040417136  dpb      1, 417136       ;"+X@AY>"
011430:  135040417134  ldb      1, 417134       ;"+H@AY<"
011431:  202040001316  movem    1, 1316         ;"00@ +."
011432:  260000413430  pushj    0, 413430       ;"6  A<8"
011433:  550120000650  hrrz     2, @650         ;"M!0 &H"
011434:  322100405456  jumpe    2, 405456       ;":1 @LN"
011435:  350000001316  aos      0, 1316         ;"=   +."
011436:  350000001316  aos      0, 1316         ;"=   +."
011437:  260000413642  pushj    0, 413642       ;"6  A>B"
011440:  254000405442  jrst     405442          ;"5@ @LB"
011441:  540041000000  hrr      1, (1)          ;"L A   "
011442:  552040001326  hrrzm    1, 1326         ;"M0@ +6"
011443:  200141000000  move     3, (1)          ;"0!A   "
011444:  202140001326  movem    3, 1326         ;"01@ +6"
011445:  200140000642  move     3, 642          ;"0!@ &B"
011446:  202140001324  movem    3, 1324         ;"01@ +4"
011447:  135100417140  ldb      2, 417140       ;"+I AY@"
011450:  322100405346  jumpe    2, 405346       ;":1 @KF"
011451:  260000414462  pushj    0, 414462       ;"6  ADR"
011452:  260000413042  pushj    0, 413042       ;"6  A8B"
011453:  260000403720  pushj    0, 403720       ;"6  @?0"
011454:  254000405346  jrst     405346          ;"5@ @KF"
011455:  260000413552  pushj    0, 413552       ;"6  A=J"
011456:  135100417132  ldb      2, 417132       ;"+I AY:"
011457:  326100405462  jumpn    2, 405462       ;":Q @LR"
011460:  402000001316  setzm    1316            ;"@0  +."
011461:  254000405326  jrst     405326          ;"5@ @K6"
011462:  332000001316  skipe    0, 1316         ;";0  +."
011463:  254000405324  jrst     405324          ;"5@ @K4"
011464:  200040001324  move     1, 1324         ;"0 @ +4"
011465:  200140001326  move     3, 1326         ;"0!@ +6"
011466:  135100417134  ldb      2, 417134       ;"+I AY<"
011467:  322100405504  jumpe    2, 405504       ;":1 @M$"
011470:  200100001320  move     2, 1320         ;"0!  +0"
011471:  200102000000  move     2, (2)          ;"0!"   "
011472:  200042000000  move     1, (2)          ;"0 B   "
011473:  200102000000  move     2, (2)          ;"0!"   "
011474:  200142000000  move     3, (2)          ;"0!B   "
011475:  135100417134  ldb      2, 417134       ;"+I AY<"
011476:  326100405504  jumpn    2, 405504       ;":Q @M$"
011477:  265240404740  jsp      5, 404740       ;"6J@@G@"
011500:  041000420010  .open    0, 420010       ;"$( B ("
011501:  576701513520  hlrem    16, 513520(1)   ;"OW!I=0"
011502:  777777777776  conso    774, @777776(17);"_____^"
011503:  254000405326  jrst     405326          ;"5@ @K6"
011504:  202040001254  movem    1, 1254         ;"00@ *L"
011505:  202140001256  movem    3, 1256         ;"01@ *N"
011506:  260000414676  pushj    0, 414676       ;"6  AF^"
011507:  551040001312  hrrzi    1, 1312         ;"M(@ +*"
011510:  200140001254  move     3, 1254         ;"0!@ *L"
011511:  260000413406  pushj    0, 413406       ;"6  A<&"
011512:  254000405520  jrst     405520          ;"5@ @M0"
011513:  200040000002  move     1, 2            ;"0 @  ""
011514:  200140001256  move     3, 1256         ;"0!@ *N"
011515:  260000413420  pushj    0, 413420       ;"6  A<0"
011516:  254000405520  jrst     405520          ;"5@ @M0"
011517:  254000405522  jrst     405522          ;"5@ @M2"
011520:  201100420002  movei    2, 420002       ;"0) B ""
011521:  254000405524  jrst     405524          ;"5@ @M4"
011522:  201100404474  movei    2, 404474       ;"0) @D\"
011523:  505100041000  hrli     2, 41000        ;"HI $( "
011524:  202100001250  movem    2, 1250         ;"01  *H"
011525:  135100417134  ldb      2, 417134       ;"+I AY<"
011526:  242100000000  lsh      2, 0            ;"41    " "(D\0\0\0"
011527:  135040417136  ldb      1, 417136       ;"+H@AY>"
011530:  322040405532  jumpe    1, 405532       ;":0@@M:"
011531:  660100000000  tro      2, 0            ;"V!    "
011532:  200102405544  move     2, 405544(2)    ;"0!"@MD"
011533:  202100001252  movem    2, 1252         ;"01  *J"
011534:  265240404740  jsp      5, 404740       ;"6J@@G@"
011535:  000000001252                           ;"    *J"
011536:  576740770220  hlrem    17, 770220      ;"OW@_"0"
011537:  352000000000  aose     0, 0            ;"=0    " ":@\0\0\0"
011540:  000000001250                           ;"    *H"
011541:  576701513520  hlrem    16, 513520(1)   ;"OW!I=0"
011542:  777777777776  conso    774, @777776(17);"_____^"
011543:  254000405326  jrst     405326          ;"5@ @K6"
011544:  041000417774  .open    0, 417774       ;"$( A_\"
011545:  041000417776  .open    0, 417776       ;"$( A_^"
011546:  041000420000  .open    0, 420000       ;"$( B  "
011547:  041000420000  .open    0, 420000       ;"$( B  "
011550:  402000001330  setzm    1330            ;"@0  +8"
011551:  336000001330  skipn    0, 1330         ;";P  +8"
011552:  254000405324  jrst     405324          ;"5@ @K4"
011553:  260000414406  pushj    0, 414406       ;"6  AD&"
011554:  254000416624  jrst     416624          ;"5@ AV4"
011555:  265240410446  jsp      5, 410446       ;"6J@A$F"
011556:  260000404100  pushj    0, 404100       ;"6  @A "
011557:  312740420616  came     17, 420616      ;"97@B&."
011560:  260000404100  pushj    0, 404100       ;"6  @A "
011561:  265240407620  jsp      5, 407620       ;"6J@@^0"
011562:  312740001122  came     17, 1122        ;"97@ )2"
011563:  260000404100  pushj    0, 404100       ;"6  @A "
011564:  265240412452  jsp      5, 412452       ;"6J@A4J"
011565:  260000417166  pushj    0, 417166       ;"6  AYV"
011566:  135100417126  ldb      2, 417126       ;"+I AY6"
011567:  202100000636  movem    2, 636          ;"01  &>"
011570:  202040000640  movem    1, 640          ;"00@ &@"
011571:  202140000640  movem    3, 640          ;"01@ &@"
011572:  260000413014  pushj    0, 413014       ;"6  A8,"
011573:  260000413042  pushj    0, 413042       ;"6  A8B"
011574:  260000403720  pushj    0, 403720       ;"6  @?0"
011575:  254000405550  jrst     405550          ;"5@ @MH"
011576:  265240412204  jsp      5, 412204       ;"6J@A2$"
011577:  603740777776  tlne     17, 777776      ;"P?@__^"
011600:  260000404100  pushj    0, 404100       ;"6  @A "
011601:  202740000646  movem    17, 646         ;"07@ &F"
011602:  260000414220  pushj    0, 414220       ;"6  AB0"
011603:  312740420616  came     17, 420616      ;"97@B&."
011604:  254000405710  jrst     405710          ;"5@ @O("
011605:  200300000664  move     6, 664          ;"0#  &T"
011606:  322300405630  jumpe    6, 405630       ;":3 @N8"
011607:  313300417076  camle    6, 417076       ;"9; AX^"
011610:  260000404230  pushj    0, 404230       ;"6  @B8"
011611:  200200000006  move     4, 6            ;"0"   &"
011612:  362200405620  soje     4, 405620       ;">2 @N0"
011613:  200746000664  move     17, 664(6)      ;"0'F &T"
011614:  316744000664  camn     17, 664(4)      ;"9WD &T"
011615:  260000404100  pushj    0, 404100       ;"6  @A "
011616:  367200405614  sojg     4, 405614       ;">Z @N,"
011617:  367300405612  sojg     6, 405612       ;">[ @N*"
011620:  200240001154  move     5, 1154         ;"0"@ )L"
011621:  201300000000  movei    6, 0            ;"0+    " " ,\0\0\0"
011622:  200206000664  move     4, 664(6)       ;"0"& &T"
011623:  136200000004  idpb     4, 4            ;"+R   $"
011624:  312300000664  came     6, 664          ;"93  &T"
011625:  344300405622  aoja     6, 405622       ;"<C @N2"
011626:  201200000164  movei    4, 164          ;"0*  !T"
011627:  136200000004  idpb     4, 4            ;"+R   $"
011630:  260000414720  pushj    0, 414720       ;"6  AG0"
011631:  200300001122  move     6, 1122         ;"0#  )2"
011632:  201200000166  movei    4, 166          ;"0*  !V"
011633:  312300420654  came     6, 420654       ;"93 B&L"
011634:  201200000256  movei    4, 256          ;"0*  "N"
011635:  200240001202  move     5, 1202         ;"0"@ *""
011636:  260000414164  pushj    0, 414164       ;"6  AAT"
011637:  307300000000  caig     6, 0            ;"8[    " "1l\0\0\0"
011640:  260000404100  pushj    0, 404100       ;"6  @A "
011641:  270300000664  add      6, 664          ;"7#  &T"
011642:  271300000006  addi     6, 6            ;"7+   &"
011643:  200200000006  move     4, 6            ;"0"   &"
011644:  260000412436  pushj    0, 412436       ;"6  A4>"
011645:  200100000646  move     2, 646          ;"0!  &F"
011646:  554042000000  hlrz     1, (2)          ;"M@B   "
011647:  312040001130  came     1, 1130         ;"90@ )8"
011650:  260000412612  pushj    0, 412612       ;"6  A6*"
011651:  260000412642  pushj    0, 412642       ;"6  A6B"
011652:  400040000000  setz     1,              ;"@ @   "
011653:  504140000664  hrl      3, 664          ;"HA@ &T"
011654:  541140000000  hrri     3, 0            ;"L)@   " "X&\0\0\0"
011655:  370000001072  sos      0, 1072         ;"?   (Z"
011656:  202047000000  movem    1, (7)          ;"00G   " " B8\0\0"
011657:  250147000000  exch     3, (7)          ;"5!G   "
011660:  250340000002  exch     7, 2            ;"5#@  ""
011661:  552140000646  hrrzm    3, 646          ;"M1@ &F"
011662:  500142000000  hll      3, (2)          ;"H!B   "
011663:  621140001776  tlz      3, 1776         ;"R)@ /^"
011664:  514040417006  hrlz     1, 417006       ;"I@@AX&"
011665:  434140000000  or       3, 0            ;"CA@   "
011666:  202142000000  movem    3, (2)          ;"01B   "
011667:  200100000006  move     2, 6            ;"0!   &"
011670:  336000000664  skipn    0, 664          ;";P  &T"
011671:  254000405702  jrst     405702          ;"5@ @O""
011672:  200040001154  move     1, 1154         ;"0 @ )L"
011673:  202040001120  movem    1, 1120         ;"00@ )0"
011674:  506360000646  hrlm     7, @646         ;"HSP &F"
011675:  260000414142  pushj    0, 414142       ;"6  AAB"
011676:  550342000000  hrrz     7, (2)          ;"M#B   "
011677:  513002000000  hllzs    0, (2)          ;"I8"   "
011700:  200100000006  move     2, 6            ;"0!   &"
011701:  200040001202  move     1, 1202         ;"0 @ *""
011702:  202040001120  movem    1, 1120         ;"00@ )0"
011703:  542360000646  hrrm     7, @646         ;"L3P &F"
011704:  260000414142  pushj    0, 414142       ;"6  AAB"
011705:  550342000000  hrrz     7, (2)          ;"M#B   "
011706:  513002000000  hllzs    0, (2)          ;"I8"   "
011707:  254000405550  jrst     405550          ;"5@ @MH"
011710:  312740420770  came     17, 420770      ;"97@B'X"
011711:  260000404100  pushj    0, 404100       ;"6  @A "
011712:  265240412204  jsp      5, 412204       ;"6J@A2$"
011713:  312740420772  came     17, 420772      ;"97@B'Z"
011714:  260000404100  pushj    0, 404100       ;"6  @A "
011715:  265240412204  jsp      5, 412204       ;"6J@A2$"
011716:  312740001122  came     17, 1122        ;"97@ )2"
011717:  260000404100  pushj    0, 404100       ;"6  @A "
011720:  332000000664  skipe    0, 664          ;";0  &T"
011721:  260000404100  pushj    0, 404100       ;"6  @A "
011722:  200740000646  move     17, 646         ;"0'@ &F"
011723:  200117000000  move     2, (17)         ;"0!/   "
011724:  202100000624  movem    2, 624          ;"01  &4"
011725:  554057000000  hlrz     1, (17)         ;"M@O   "
011726:  312040001130  came     1, 1130         ;"90@ )8"
011727:  260000404110  pushj    0, 404110       ;"6  @A("
011730:  135300417126  ldb      6, 417126       ;"+K AY6"
011731:  312300417006  came     6, 417006       ;"93 AX&"
011732:  254000405736  jrst     405736          ;"5@ @O>"
011733:  661100000020  tlo      2, 20           ;"V)   0"
011734:  202117000000  movem    2, (17)         ;"01/   " " Dx\0\0"
011735:  254000405550  jrst     405550          ;"5@ @MH"
011736:  200100000646  move     2, 646          ;"0!  &F"
011737:  260000412642  pushj    0, 412642       ;"6  A6B"
011740:  510142000000  hllz     3, (2)          ;"I!B   "
011741:  621140001776  tlz      3, 1776         ;"R)@ /^"
011742:  514040417010  hrlz     1, 417010       ;"I@@AX("
011743:  661040000020  tlo      1, 20           ;"V(@  0"
011744:  434040000002  or       1, 2            ;"C@@  ""
011745:  202042000000  movem    1, (2)          ;"00B   "
011746:  254000405550  jrst     405550          ;"5@ @MH"
011747:  200100001120  move     2, 1120         ;"0!  )0"
011750:  265240410664  jsp      5, 410664       ;"6J@A&T"
011751:  254000406600  jrst     406600          ;"5@ @V "
011752:  312740420642  came     17, 420642      ;"97@B&B"
011753:  254000405776  jrst     405776          ;"5@ @O^"
011754:  200240001202  move     5, 1202         ;"0"@ *""
011755:  201200000154  movei    4, 154          ;"0*  !L"
011756:  260000414164  pushj    0, 414164       ;"6  AAT"
011757:  200100001120  move     2, 1120         ;"0!  )0"
011760:  202240001254  movem    5, 1254         ;"02@ *L"
011761:  265240412204  jsp      5, 412204       ;"6J@A2$"
011762:  316740001122  camn     17, 1122        ;"9W@ )2"
011763:  254000405772  jrst     405772          ;"5@ @OZ"
011764:  202100001120  movem    2, 1120         ;"01  )0"
011765:  201200000154  movei    4, 154          ;"0*  !L"
011766:  200240001254  move     5, 1254         ;"0"@ *L"
011767:  137200000004  dpb      4, 4            ;"+Z   $"
011770:  254000405756  jrst     405756          ;"5@ @ON"
011771:  265240404740  jsp      5, 404740       ;"6J@@G@"
011772:  000000001202                           ;"    *""
011773:  576645650000  hlrem    15, 650000(5)   ;"OVEU  " "_Z.P\0"
011774:  777777777776  conso    774, @777776(17);"_____^"
011775:  254000405324  jrst     405324          ;"5@ @K4"
011776:  202100001120  movem    2, 1120         ;"01  )0"
011777:  200100001154  move     2, 1154         ;"0!  )L"
012000:  202100001254  movem    2, 1254         ;"01  *L"
012001:  265240414514  jsp      5, 414514       ;"6J@AE,"
012002:  000000001120                           ;"    )0"
012003:  777777777776  conso    774, @777776(17);"_____^"
012004:  402000001262  setzm    1262            ;"@0  *R"
012005:  476000001124  setom    1124            ;"GP  )4"
012006:  350000001072  aos      0, 1072         ;"=   (Z"
012007:  350000001072  aos      0, 1072         ;"=   (Z"
012010:  476000001126  setom    1126            ;"GP  )6"
012011:  200100001254  move     2, 1254         ;"0!  *L"
012012:  202100001120  movem    2, 1120         ;"01  )0"
012013:  402000001256  setzm    1256            ;"@0  *N"
012014:  265240411030  jsp      5, 411030       ;"6J@A(8"
012015:  254000406020  jrst     406020          ;"5@ @P0"
012016:  350000001262  aos      0, 1262         ;"=   *R"
012017:  254000406022  jrst     406022          ;"5@ @P2"
012020:  265240407620  jsp      5, 407620       ;"6J@@^0"
012021:  350040001256  aos      1, 1256         ;"= @ *N"
012022:  506400001256  hrlm     10, 1256        ;"HT  *N"
012023:  554040000000  hlrz     1, 0            ;"M@@   "
012024:  322040406032  jumpe    1, 406032       ;":0@@P:"
012025:  200141000000  move     3, (1)          ;"0!A   "
012026:  542401000000  hrrm     10, (1)         ;"L4!   "
012027:  200050000000  move     1, (10)         ;"0 H   "
012030:  542150000000  hrrm     3, (10)         ;"L1H   " "XF@\0\0"
012031:  550400000000  hrrz     10, 0           ;"M$    "
012032:  312740420650  came     17, 420650      ;"97@B&H"
012033:  254000406040  jrst     406040          ;"5@ @P@"
012034:  201740000166  movei    17, 166         ;"0/@ !V"
012035:  137740001120  dpb      17, 1120        ;"+_@ )0"
012036:  254000406014  jrst     406014          ;"5@ @P,"
012037:  312740001122  came     17, 1122        ;"97@ )2"
012040:  254000406312  jrst     406312          ;"5@ @S*"
012041:  135740001120  ldb      17, 1120        ;"+O@ )0"
012042:  202740001256  movem    17, 1256        ;"07@ *N"
012043:  553000001256  hrrzs    0, 1256         ;"M8  *N"
012044:  375000001256  sosge    0, 1256         ;"?H  *N"
012045:  254000405324  jrst     405324          ;"5@ @K4"
012046:  265240404676  jsp      5, 404676       ;"6J@@F^"
012047:  000000000006                           ;"     &"
012050:  200110000000  move     2, (10)         ;"0!(   "
012051:  202100001260  movem    2, 1260         ;"01  *P"
012052:  135040417126  ldb      1, 417126       ;"+H@AY6"
012053:  312040417020  came     1, 417020       ;"90@AX0"
012054:  254000406064  jrst     406064          ;"5@ @PT"
012055:  350000001072  aos      0, 1072         ;"=   (Z"
012056:  200110000000  move     2, (10)         ;"0!(   "
012057:  250350000000  exch     7, (10)         ;"5#H   "
012060:  250340000010  exch     7, 10           ;"5#@  ("
012061:  265240414726  jsp      5, 414726       ;"6J@AG6"
012062:  254000406076  jrst     406076          ;"5@ @P^"
012063:  313040417004  camle    1, 417004       ;"98@AX$"
012064:  254000406070  jrst     406070          ;"5@ @PX"
012065:  265240415232  jsp      5, 415232       ;"6J@AJ:"
012066:  254000406044  jrst     406044          ;"5@ @PD"
012067:  313040417006  camle    1, 417006       ;"98@AX&"
012070:  254000406114  jrst     406114          ;"5@ @Q,"
012071:  350000001072  aos      0, 1072         ;"=   (Z"
012072:  200110000000  move     2, (10)         ;"0!(   "
012073:  250350000000  exch     7, (10)         ;"5#H   "
012074:  250340000010  exch     7, 10           ;"5#@  ("
012075:  256001406110  xct      406110(1)       ;"5P!@Q(" "+@\f\f$"
012076:  200100001254  move     2, 1254         ;"0!  *L"
012077:  202100001120  movem    2, 1120         ;"01  )0"
012100:  260000413724  pushj    0, 413724       ;"6  A?4"
012101:  306740000166  cain     17, 166         ;"8W@ !V"
012102:  254000406106  jrst     406106          ;"5@ @Q&"
012103:  312740001256  came     17, 1256        ;"97@ *N"
012104:  254000406100  jrst     406100          ;"5@ @Q "
012105:  200100001120  move     2, 1120         ;"0!  )0"
012106:  202100001254  movem    2, 1254         ;"01  *L"
012107:  254000406044  jrst     406044          ;"5@ @PD"
012110:  260000404100  pushj    0, 404100       ;"6  @A "
012111:  260000404100  pushj    0, 404100       ;"6  @A "
012112:  265240415532  jsp      5, 415532       ;"6J@AM:"
012113:  265240415114  jsp      5, 415114       ;"6J@AI,"
012114:  312040417016  came     1, 417016       ;"90@AX."
012115:  260000404100  pushj    0, 404100       ;"6  @A "
012116:  350000001072  aos      0, 1072         ;"=   (Z"
012117:  200110000000  move     2, (10)         ;"0!(   "
012120:  250350000000  exch     7, (10)         ;"5#H   "
012121:  250340000010  exch     7, 10           ;"5#@  ("
012122:  260000413364  pushj    0, 413364       ;"6  A;T"
012123:  260000404346  pushj    0, 404346       ;"6  @CF"
012124:  260000404346  pushj    0, 404346       ;"6  @CF"
012125:  265240406130  jsp      5, 406130       ;"6J@@Q8"
012126:  254000406076  jrst     406076          ;"5@ @P^"
012127:  552240001306  hrrzm    5, 1306         ;"M2@ +&"
012130:  200300001256  move     6, 1256         ;"0#  *N"
012131:  202300001126  movem    6, 1126         ;"03  )6"
012132:  550300000660  hrrz     6, 660          ;"M#  &P"
012133:  400040000000  setz     1,              ;"@ @   "
012134:  256006406136  xct      406136(6)       ;"5P&@Q>" "+@4\f/"
012135:  254000406176  jrst     406176          ;"5@ @Q^"
012136:  660040000036  tro      1, 36           ;"V @  >"
012137:  660040000000  tro      1, 0            ;"V @   "
012140:  660040000000  tro      1, 0            ;"V @   "
012141:  660040000002  tro      1, 2            ;"V @  ""
012142:  660040000004  tro      1, 4            ;"V @  $"
012143:  660040000030  tro      1, 30           ;"V @  8"
012144:  260000404100  pushj    0, 404100       ;"6  @A "
012145:  260000404100  pushj    0, 404100       ;"6  @A "
012146:  254000406156  jrst     406156          ;"5@ @QN"
012147:  254000406160  jrst     406160          ;"5@ @QP"
012150:  254000406164  jrst     406164          ;"5@ @QT"
012151:  254000406170  jrst     406170          ;"5@ @QX"
012152:  260000404100  pushj    0, 404100       ;"6  @A "
012153:  260000404100  pushj    0, 404100       ;"6  @A "
012154:  260000404100  pushj    0, 404100       ;"6  @A "
012155:  200100000662  move     2, 662          ;"0!  &R"
012156:  265240415700  jsp      5, 415700       ;"6J@AO "
012157:  254000406304  jrst     406304          ;"5@ @S$"
012160:  200100000662  move     2, 662          ;"0!  &R"
012161:  265240415036  jsp      5, 415036       ;"6J@AH>"
012162:  254000406306  jrst     406306          ;"5@ @S&"
012163:  200100000662  move     2, 662          ;"0!  &R"
012164:  476000000236  setom    236             ;"GP  ">"
012165:  265240415404  jsp      5, 415404       ;"6J@AL$"
012166:  402000000236  setzm    236             ;"@0  ">"
012167:  254000406306  jrst     406306          ;"5@ @S&"
012170:  200100000660  move     2, 660          ;"0!  &P"
012171:  200102000000  move     2, (2)          ;"0!"   "
012172:  202100001260  movem    2, 1260         ;"01  *P"
012173:  265240415114  jsp      5, 415114       ;"6J@AI,"
012174:  254000406306  jrst     406306          ;"5@ @S&"
012175:  202040001266  movem    1, 1266         ;"00@ *V"
012176:  606040000000  trnn     1, 0            ;"PP@   " "aB\0\0\0"
012177:  254000406224  jrst     406224          ;"5@ @R4"
012200:  265240404740  jsp      5, 404740       ;"6J@@G@"
012201:  576645650000  hlrem    15, 650000(5)   ;"OVEU  " "_Z.P\0"
012202:  777777777776  conso    774, @777776(17);"_____^"
012203:  201100001312  movei    2, 1312         ;"0)  +*"
012204:  554102000000  hlrz     2, (2)          ;"MA"   "
012205:  322100406224  jumpe    2, 406224       ;":1 @R4"
012206:  202100001256  movem    2, 1256         ;"01  *N"
012207:  254000406222  jrst     406222          ;"5@ @R2"
012210:  200100001256  move     2, 1256         ;"0!  *N"
012211:  554102000000  hlrz     2, (2)          ;"MA"   "
012212:  202100001256  movem    2, 1256         ;"01  *N"
012213:  322100406224  jumpe    2, 406224       ;":1 @R4"
012214:  265240404676  jsp      5, 404676       ;"6J@@F^"
012215:  000000000006                           ;"     &"
012216:  265240404740  jsp      5, 404740       ;"6J@@G@"
012217:  576645650000  hlrem    15, 650000(5)   ;"OVEU  " "_Z.P\0"
012220:  777777777776  conso    774, @777776(17);"_____^"
012221:  265240415700  jsp      5, 415700       ;"6J@AO "
012222:  254000406210  jrst     406210          ;"5@ @R("
012223:  200040001266  move     1, 1266         ;"0 @ *V"
012224:  606040000002  trnn     1, 2            ;"PP@  ""
012225:  254000406254  jrst     406254          ;"5@ @RL"
012226:  265240404740  jsp      5, 404740       ;"6J@@G@"
012227:  576645650000  hlrem    15, 650000(5)   ;"OVEU  " "_Z.P\0"
012230:  777777777776  conso    774, @777776(17);"_____^"
012231:  201100001314  movei    2, 1314         ;"0)  +,"
012232:  554102000000  hlrz     2, (2)          ;"MA"   "
012233:  322100406254  jumpe    2, 406254       ;":1 @RL"
012234:  202100001256  movem    2, 1256         ;"01  *N"
012235:  254000406250  jrst     406250          ;"5@ @RH"
012236:  200100001256  move     2, 1256         ;"0!  *N"
012237:  554102000000  hlrz     2, (2)          ;"MA"   "
012240:  202100001256  movem    2, 1256         ;"01  *N"
012241:  322100406254  jumpe    2, 406254       ;":1 @RL"
012242:  265240404676  jsp      5, 404676       ;"6J@@F^"
012243:  000000000006                           ;"     &"
012244:  200100001256  move     2, 1256         ;"0!  *N"
012245:  265240404740  jsp      5, 404740       ;"6J@@G@"
012246:  576645650000  hlrem    15, 650000(5)   ;"OVEU  " "_Z.P\0"
012247:  777777777776  conso    774, @777776(17);"_____^"
012250:  476000000236  setom    236             ;"GP  ">"
012251:  265240415410  jsp      5, 415410       ;"6J@AL("
012252:  402000000236  setzm    236             ;"@0  ">"
012253:  254000406236  jrst     406236          ;"5@ @R>"
012254:  200040001266  move     1, 1266         ;"0 @ *V"
012255:  606040000004  trnn     1, 4            ;"PP@  $"
012256:  254000406276  jrst     406276          ;"5@ @R^"
012257:  201100000000  movei    2, 0            ;"0)    " " $\0\0\0"
012260:  265240415714  jsp      5, 415714       ;"6J@AO,"
012261:  254000406276  jrst     406276          ;"5@ @R^"
012262:  200040001266  move     1, 1266         ;"0 @ *V"
012263:  606040000010  trnn     1, 10           ;"PP@  ("
012264:  254000406304  jrst     406304          ;"5@ @S$"
012265:  201100000000  movei    2, 0            ;"0)    " " $\0\0\0"
012266:  202100001266  movem    2, 1266         ;"01  *V"
012267:  201100000000  movei    2, 0            ;"0)    " " $\0\0\0"
012270:  265240415714  jsp      5, 415714       ;"6J@AO,"
012271:  350100001266  aos      2, 1266         ;"=!  *V"
012272:  317100417076  camg     2, 417076       ;"9Y AX^"
012273:  254000406270  jrst     406270          ;"5@ @RX"
012274:  254000406304  jrst     406304          ;"5@ @S$"
012275:  200040001266  move     1, 1266         ;"0 @ *V"
012276:  606040000020  trnn     1, 20           ;"PP@  0"
012277:  254000406262  jrst     406262          ;"5@ @RR"
012300:  201100000002  movei    2, 2            ;"0)   ""
012301:  265240415714  jsp      5, 415714       ;"6J@AO,"
012302:  254000406262  jrst     406262          ;"5@ @RR"
012303:  265240404740  jsp      5, 404740       ;"6J@@G@"
012304:  576645650000  hlrem    15, 650000(5)   ;"OVEU  " "_Z.P\0"
012305:  777777777776  conso    774, @777776(17);"_____^"
012306:  200300001126  move     6, 1126         ;"0#  )6"
012307:  202300001256  movem    6, 1256         ;"03  *N"
012310:  254020001306  jrst     @1306           ;"5@0 +&"
012311:  553000001256  hrrzs    0, 1256         ;"M8  *N"
012312:  312740420732  came     17, 420732      ;"97@B':"
012313:  260000404100  pushj    0, 404100       ;"6  @A "
012314:  200100001120  move     2, 1120         ;"0!  )0"
012315:  265240412204  jsp      5, 412204       ;"6J@A2$"
012316:  312740420742  came     17, 420742      ;"97@B'B"
012317:  260000404100  pushj    0, 404100       ;"6  @A "
012320:  332000001262  skipe    0, 1262         ;";0  *R"
012321:  260000404100  pushj    0, 404100       ;"6  @A "
012322:  202100001120  movem    2, 1120         ;"01  )0"
012323:  265240410706  jsp      5, 410706       ;"6J@A'&"
012324:  260000404100  pushj    0, 404100       ;"6  @A "
012325:  312740001122  came     17, 1122        ;"97@ )2"
012326:  260000404100  pushj    0, 404100       ;"6  @A "
012327:  200100000662  move     2, 662          ;"0!  &R"
012330:  550102000000  hrrz     2, (2)          ;"M!"   "
012331:  275100000000  subi     2, 0            ;"7I    " "/$\0\0\0"
012332:  505100041000  hrli     2, 41000        ;"HI $( "
012333:  202100001252  movem    2, 1252         ;"01  *J"
012334:  200100001154  move     2, 1154         ;"0!  )L"
012335:  265240414514  jsp      5, 414514       ;"6J@AE,"
012336:  000000001252                           ;"    *J"
012337:  576645650000  hlrem    15, 650000(5)   ;"OVEU  " "_Z.P\0"
012340:  777777777776  conso    774, @777776(17);"_____^"
012341:  200100001154  move     2, 1154         ;"0!  )L"
012342:  202100001120  movem    2, 1120         ;"01  )0"
012343:  402000000662  setzm    662             ;"@0  &R"
012344:  260000414560  pushj    0, 414560       ;"6  AEP"
012345:  332000000660  skipe    0, 660          ;";0  &P"
012346:  254000406352  jrst     406352          ;"5@ @SJ"
012347:  326140406352  jumpn    3, 406352       ;":Q@@SJ"
012350:  260000404234  pushj    0, 404234       ;"6  @B<"
012351:  200110000000  move     2, (10)         ;"0!(   "
012352:  135040417126  ldb      1, 417126       ;"+H@AY6"
012353:  202040000636  movem    1, 636          ;"00@ &>"
012354:  313040417004  camle    1, 417004       ;"98@AX$"
012355:  254000406436  jrst     406436          ;"5@ @T>"
012356:  265240412452  jsp      5, 412452       ;"6J@A4J"
012357:  330000000000  skip     0, 0            ;";     " "6\0\0\0\0"
012360:  200100001120  move     2, 1120         ;"0!  )0"
012361:  316100000662  camn     2, 662          ;"9Q  &R"
012362:  260000404244  pushj    0, 404244       ;"6  @BD"
012363:  554200000660  hlrz     4, 660          ;"MB  &P"
012364:  550240000660  hrrz     5, 660          ;"M"@ &P"
012365:  200300000660  move     6, 660          ;"0#  &P"
012366:  303300000000  caile    6, 0            ;"8;    " "0l\0\0\0"
012367:  254000406416  jrst     406416          ;"5@ @T."
012370:  336000000636  skipn    0, 636          ;";P  &>"
012371:  254000406376  jrst     406376          ;"5@ @S^"
012372:  264000000776  jsr      776             ;"6@  '^"
012373:  260000404236  pushj    0, 404236       ;"6  @B>"
012374:  254000406422  jrst     406422          ;"5@ @T2"
012375:  326300406374  jumpn    6, 406374       ;":S @S\"
012376:  322040406400  jumpe    1, 406400       ;":0@@T "
012377:  271300000000  addi     6, 0            ;"7+    " ".,\0\0\0"
012400:  275200000004  subi     4, 4            ;"7J   $"
012401:  270200000006  add      4, 6            ;"7"   &"
012402:  321200406374  jumpl    4, 406374       ;":* @S\"
012403:  201740000170  movei    17, 170         ;"0/@ !X"
012404:  322200406410  jumpe    4, 406410       ;":2 @T("
012405:  136740000002  idpb     17, 2           ;"+W@  ""
012406:  367200406406  sojg     4, 406406       ;">Z @T&"
012407:  200246417474  move     5, 417474(6)    ;"0"FA\\"
012410:  134740000004  ildb     17, 4           ;"+G@  $"
012411:  306740000164  cain     17, 164         ;"8W@ !T"
012412:  254000406422  jrst     406422          ;"5@ @T2"
012413:  136740000002  idpb     17, 2           ;"+W@  ""
012414:  254000406410  jrst     406410          ;"5@ @T("
012415:  336000000636  skipn    0, 636          ;";P  &>"
012416:  260000404236  pushj    0, 404236       ;"6  @B>"
012417:  200200000006  move     4, 6            ;"0"   &"
012420:  264000001000  jsr      1000            ;"6@  ( "
012421:  260000404236  pushj    0, 404236       ;"6  @B>"
012422:  202100001120  movem    2, 1120         ;"01  )0"
012423:  202100000662  movem    2, 662          ;"01  &R"
012424:  372000001256  sose     0, 1256         ;"?0  *N"
012425:  254000406344  jrst     406344          ;"5@ @SD"
012426:  260000414560  pushj    0, 414560       ;"6  AEP"
012427:  332000000660  skipe    0, 660          ;";0  &P"
012430:  254000406522  jrst     406522          ;"5@ @U2"
012431:  326140406522  jumpn    3, 406522       ;":Q@@U2"
012432:  265240404740  jsp      5, 404740       ;"6J@@G@"
012433:  000000001154                           ;"    )L"
012434:  777777777776  conso    774, @777776(17);"_____^"
012435:  254000405324  jrst     405324          ;"5@ @K4"
012436:  312040417020  came     1, 417020       ;"90@AX0"
012437:  260000404242  pushj    0, 404242       ;"6  @BB"
012440:  200100001120  move     2, 1120         ;"0!  )0"
012441:  316100000662  camn     2, 662          ;"9Q  &R"
012442:  260000404244  pushj    0, 404244       ;"6  @BD"
012443:  350000001072  aos      0, 1072         ;"=   (Z"
012444:  200110000000  move     2, (10)         ;"0!(   "
012445:  250350000000  exch     7, (10)         ;"5#H   "
012446:  250340000010  exch     7, 10           ;"5#@  ("
012447:  602100777776  trne     2, 777776       ;"P1 __^"
012450:  254000406472  jrst     406472          ;"5@ @TZ"
012451:  200100001120  move     2, 1120         ;"0!  )0"
012452:  554040000660  hlrz     1, 660          ;"M@@ &P"
012453:  550140000660  hrrz     3, 660          ;"M!@ &P"
012454:  270040000002  add      1, 2            ;"7 @  ""
012455:  270040000660  add      1, 660          ;"7 @ &P"
012456:  201740000170  movei    17, 170         ;"0/@ !X"
012457:  136740000002  idpb     17, 2           ;"+W@  ""
012460:  367040406460  sojg     1, 406460       ;">X@@TP"
012461:  202100001120  movem    2, 1120         ;"01  )0"
012462:  202100000662  movem    2, 662          ;"01  &R"
012463:  372000001256  sose     0, 1256         ;"?0  *N"
012464:  254000406344  jrst     406344          ;"5@ @SD"
012465:  260000414560  pushj    0, 414560       ;"6  AEP"
012466:  332000000660  skipe    0, 660          ;";0  &P"
012467:  260000404240  pushj    0, 404240       ;"6  @B@"
012470:  322140406432  jumpe    3, 406432       ;":1@@T:"
012471:  260000404240  pushj    0, 404240       ;"6  @B@"
012472:  552100000636  hrrzm    2, 636          ;"M1  &>"
012473:  200042001074  move     1, 1074(2)      ;"0 B (\"
012474:  256002406476  xct      406476(2)       ;"5P"@T^"
012475:  264000001002  jsr      1002            ;"6@  (""
012476:  254000406360  jrst     406360          ;"5@ @SP"
012477:  400140000000  setz     3,              ;"@!@   "
012500:  254000406502  jrst     406502          ;"5@ @U""
012501:  400140000000  setz     3,              ;"@!@   "
012502:  332000000660  skipe    0, 660          ;";0  &P"
012503:  260000404236  pushj    0, 404236       ;"6  @B>"
012504:  554240000660  hlrz     5, 660          ;"MB@ &P"
012505:  305240000004  caige    5, 4            ;"8J@  $"
012506:  260000404236  pushj    0, 404236       ;"6  @B>"
012507:  201740000170  movei    17, 170         ;"0/@ !X"
012510:  200100001120  move     2, 1120         ;"0!  )0"
012511:  316100000662  camn     2, 662          ;"9Q  &R"
012512:  260000404244  pushj    0, 404244       ;"6  @BD"
012513:  306240000004  cain     5, 4            ;"8R@  $"
012514:  254000406520  jrst     406520          ;"5@ @U0"
012515:  136740000002  idpb     17, 2           ;"+W@  ""
012516:  364240406514  soja     5, 406514       ;">B@@U,"
012517:  200200001076  move     4, 1076         ;"0"  (^"
012520:  260000414654  pushj    0, 414654       ;"6  AFL"
012521:  254000406422  jrst     406422          ;"5@ @T2"
012522:  200100000662  move     2, 662          ;"0!  &R"
012523:  316100001120  camn     2, 1120         ;"9Q  )0"
012524:  260000404244  pushj    0, 404244       ;"6  @BD"
012525:  200140001120  move     3, 1120         ;"0!@ )0"
012526:  202100001120  movem    2, 1120         ;"01  )0"
012527:  260000406606  pushj    0, 406606       ;"6  @V&"
012530:  254000406572  jrst     406572          ;"5@ @UZ"
012531:  306740000170  cain     17, 170         ;"8W@ !X"
012532:  275740000000  subi     17, 0           ;"7O@   " "/>\0\0\0"
012533:  200040001120  move     1, 1120         ;"0 @ )0"
012534:  302740000170  caie     17, 170         ;"87@ !X"
012535:  254000406560  jrst     406560          ;"5@ @UP"
012536:  260000406606  pushj    0, 406606       ;"6  @V&"
012537:  254000406572  jrst     406572          ;"5@ @UZ"
012540:  305740000012  caige    17, 12          ;"8O@  *"
012541:  254000406572  jrst     406572          ;"5@ @UZ"
012542:  307740000074  caig     17, 74          ;"8_@  \"
012543:  254000406546  jrst     406546          ;"5@ @UF"
012544:  307740000176  caig     17, 176         ;"8_@ !^"
012545:  254000406572  jrst     406572          ;"5@ @UZ"
012546:  200100000000  move     2, 0            ;"0!    "
012547:  260000406606  pushj    0, 406606       ;"6  @V&"
012550:  254000406572  jrst     406572          ;"5@ @UZ"
012551:  306740000130  cain     17, 130         ;"8W@ !8"
012552:  254000406572  jrst     406572          ;"5@ @UZ"
012553:  305740000170  caige    17, 170         ;"8O@ !X"
012554:  254000406550  jrst     406550          ;"5@ @UH"
012555:  305740000176  caige    17, 176         ;"8O@ !^"
012556:  254000406534  jrst     406534          ;"5@ @U<"
012557:  254000406550  jrst     406550          ;"5@ @UH"
012560:  307740000170  caig     17, 170         ;"8_@ !X"
012561:  254000406540  jrst     406540          ;"5@ @U@"
012562:  303740000176  caile    17, 176         ;"8?@ !^"
012563:  254000406540  jrst     406540          ;"5@ @U@"
012564:  260000406606  pushj    0, 406606       ;"6  @V&"
012565:  254000406570  jrst     406570          ;"5@ @UX"
012566:  302740000130  caie     17, 130         ;"87@ !8"
012567:  200100000000  move     2, 0            ;"0!    "
012570:  254000406572  jrst     406572          ;"5@ @UZ"
012571:  200100001120  move     2, 1120         ;"0!  )0"
012572:  201740000150  movei    17, 150         ;"0/@ !H"
012573:  136740000002  idpb     17, 2           ;"+W@  ""
012574:  201740000164  movei    17, 164         ;"0/@ !T"
012575:  136740000002  idpb     17, 2           ;"+W@  ""
012576:  254000406432  jrst     406432          ;"5@ @T:"
012577:  312740001122  came     17, 1122        ;"97@ )2"
012600:  260000404100  pushj    0, 404100       ;"6  @A "
012601:  550740000660  hrrz     17, 660         ;"M'@ &P"
012602:  302740000006  caie     17, 6           ;"87@  &"
012603:  260000404100  pushj    0, 404100       ;"6  @A "
012604:  254000416676  jrst     416676          ;"5@ AV^"
012605:  316140001120  camn     3, 1120         ;"9Q@ )0"
012606:  263000000000  popj     0,              ;"68    " ",`\0\0\0"
012607:  200240000000  move     5, 0            ;"0"@   " " \n\0\0\0"
012610:  350005000000  aos      0, (5)          ;"= %   "
012611:  254000413724  jrst     413724          ;"5@ A?4"
012612:  476000001254  setom    1254            ;"GP  *L"
012613:  254000406616  jrst     406616          ;"5@ @V."
012614:  200100001316  move     2, 1316         ;"0!  +."
012615:  202100001254  movem    2, 1254         ;"01  *L"
012616:  265240410654  jsp      5, 410654       ;"6J@A&L"
012617:  260000404100  pushj    0, 404100       ;"6  @A "
012620:  550040000662  hrrz     1, 662          ;"M @ &R"
012621:  550140000660  hrrz     3, 660          ;"M!@ &P"
012622:  274140417070  sub      3, 417070       ;"7A@AXX"
012623:  306140000002  cain     3, 2            ;"8Q@  ""
012624:  254000406630  jrst     406630          ;"5@ @V8"
012625:  302140000000  caie     3, 0            ;"81@   " "0F\0\0\0"
012626:  260000404100  pushj    0, 404100       ;"6  @A "
012627:  550041000000  hrrz     1, (1)          ;"M A   "
012630:  506040001254  hrlm     1, 1254         ;"HP@ *L"
012631:  542140001254  hrrm     3, 1254         ;"L1@ *L"
012632:  200140000660  move     3, 660          ;"0!@ &P"
012633:  202140001260  movem    3, 1260         ;"01@ *P"
012634:  200140000662  move     3, 662          ;"0!@ &R"
012635:  202140001262  movem    3, 1262         ;"01@ *R"
012636:  200140000642  move     3, 642          ;"0!@ &B"
012637:  202140001256  movem    3, 1256         ;"01@ *N"
012640:  200141000000  move     3, (1)          ;"0!A   "
012641:  202140001256  movem    3, 1256         ;"01@ *N"
012642:  402000001260  setzm    1260            ;"@0  *P"
012643:  316740001122  camn     17, 1122        ;"9W@ )2"
012644:  254000406656  jrst     406656          ;"5@ @VN"
012645:  312740420732  came     17, 420732      ;"97@B':"
012646:  254000406726  jrst     406726          ;"5@ @W6"
012647:  326200406652  jumpn    4, 406652       ;":R @VJ"
012650:  260000404100  pushj    0, 404100       ;"6  @A "
012651:  265240410536  jsp      5, 410536       ;"6J@A%>"
012652:  312740001122  came     17, 1122        ;"97@ )2"
012653:  260000404100  pushj    0, 404100       ;"6  @A "
012654:  200110000000  move     2, (10)         ;"0!(   "
012655:  542100001260  hrrm     2, 1260         ;"L1  *P"
012656:  336000001254  skipn    0, 1254         ;";P  *L"
012657:  260000414662  pushj    0, 414662       ;"6  AFR"
012660:  200100001260  move     2, 1260         ;"0!  *P"
012661:  322100406666  jumpe    2, 406666       ;":1 @VV"
012662:  554042000000  hlrz     1, (2)          ;"M@B   "
012663:  554101000000  hlrz     2, (1)          ;"MA!   "
012664:  271100000002  addi     2, 2            ;"7)   ""
012665:  271100000004  addi     2, 4            ;"7)   $"
012666:  311100001072  caml     2, 1072         ;"9)  (Z"
012667:  260000403720  pushj    0, 403720       ;"6  @?0"
012670:  336000001260  skipn    0, 1260         ;";P  *P"
012671:  254000406676  jrst     406676          ;"5@ @V^"
012672:  350000001072  aos      0, 1072         ;"=   (Z"
012673:  200110000000  move     2, (10)         ;"0!(   "
012674:  250350000000  exch     7, (10)         ;"5#H   "
012675:  250340000010  exch     7, 10           ;"5#@  ("
012676:  260000413610  pushj    0, 413610       ;"6  A>("
012677:  200040001256  move     1, 1256         ;"0 @ *N"
012700:  202040001324  movem    1, 1324         ;"00@ +4"
012701:  200040001256  move     1, 1256         ;"0 @ *N"
012702:  202040001326  movem    1, 1326         ;"00@ +6"
012703:  200100001254  move     2, 1254         ;"0!  *L"
012704:  556100001326  hlrzm    2, 1326         ;"MQ  +6"
012705:  402000001322  setzm    1322            ;"@0  +2"
012706:  137100417132  dpb      2, 417132       ;"+Y AY:"
012707:  200100001316  move     2, 1316         ;"0!  +."
012710:  137100417134  dpb      2, 417134       ;"+Y AY<"
012711:  200100001260  move     2, 1260         ;"0!  *P"
012712:  202100001322  movem    2, 1322         ;"01  +2"
012713:  200100001262  move     2, 1262         ;"0!  *R"
012714:  516100001324  hrlzm    2, 1324         ;"IQ  +4"
012715:  200100001260  move     2, 1260         ;"0!  *P"
012716:  322100405346  jumpe    2, 405346       ;":1 @KF"
012717:  137100417140  dpb      2, 417140       ;"+Y AY@"
012720:  260000414462  pushj    0, 414462       ;"6  ADR"
012721:  260000413042  pushj    0, 413042       ;"6  A8B"
012722:  254000406724  jrst     406724          ;"5@ @W4"
012723:  254000405346  jrst     405346          ;"5@ @KF"
012724:  260000413552  pushj    0, 413552       ;"6  A=J"
012725:  260000403720  pushj    0, 403720       ;"6  @?0"
012726:  312740420650  came     17, 420650      ;"97@B&H"
012727:  260000404100  pushj    0, 404100       ;"6  @A "
012730:  265240407620  jsp      5, 407620       ;"6J@@^0"
012731:  312740420754  came     17, 420754      ;"97@B'L"
012732:  260000404100  pushj    0, 404100       ;"6  @A "
012733:  265240412204  jsp      5, 412204       ;"6J@A2$"
012734:  312740001122  came     17, 1122        ;"97@ )2"
012735:  260000404100  pushj    0, 404100       ;"6  @A "
012736:  265240412452  jsp      5, 412452       ;"6J@A4J"
012737:  260000417146  pushj    0, 417146       ;"6  AYF"
012740:  202040000660  movem    1, 660          ;"00@ &P"
012741:  202140000662  movem    3, 662          ;"01@ &R"
012742:  322040405324  jumpe    1, 405324       ;":0@@K4"
012743:  327040406746  jumpg    1, 406746       ;":X@@WF"
012744:  260000404276  pushj    0, 404276       ;"6  @B^"
012745:  264000001010  jsr      1010            ;"6@  (("
012746:  326040406744  jumpn    1, 406744       ;":P@@WD"
012747:  200040000660  move     1, 660          ;"0 @ &P"
012750:  514140000662  hrlz     3, 662          ;"IA@ &R"
012751:  377000001072  sosg     0, 1072         ;"?X  (Z"
012752:  260000403716  pushj    0, 403716       ;"6  @?."
012753:  202047000000  movem    1, (7)          ;"00G   " " B8\0\0"
012754:  250147000000  exch     3, (7)          ;"5!G   "
012755:  250340000002  exch     7, 2            ;"5#@  ""
012756:  550100000002  hrrz     2, 2            ;"M!   ""
012757:  504100417014  hrl      2, 417014       ;"HA AX,"
012760:  377000001072  sosg     0, 1072         ;"?X  (Z"
012761:  260000404140  pushj    0, 404140       ;"6  @A@"
012762:  202107000000  movem    2, (7)          ;"01'   " " D8\0\0"
012763:  250147000000  exch     3, (7)          ;"5!G   "
012764:  250340000002  exch     7, 2            ;"5#@  ""
012765:  553003000000  hrrzs    0, (3)          ;"M8#   "
012766:  200100000002  move     2, 2            ;"0!   ""
012767:  504100417014  hrl      2, 417014       ;"HA AX,"
012770:  377000001072  sosg     0, 1072         ;"?X  (Z"
012771:  260000404140  pushj    0, 404140       ;"6  @A@"
012772:  202107000000  movem    2, (7)          ;"01'   " " D8\0\0"
012773:  250407000000  exch     10, (7)         ;"5$'   "
012774:  250340000010  exch     7, 10           ;"5#@  ("
012775:  542100001260  hrrm     2, 1260         ;"L1  *P"
012776:  254000406656  jrst     406656          ;"5@ @VN"
012777:  350000001072  aos      0, 1072         ;"=   (Z"
013000:  350000001072  aos      0, 1072         ;"=   (Z"
013001:  476000001126  setom    1126            ;"GP  )6"
013002:  402000001256  setzm    1256            ;"@0  *N"
013003:  265240411030  jsp      5, 411030       ;"6J@A(8"
013004:  265240411104  jsp      5, 411104       ;"6J@A)$"
013005:  350000001256  aos      0, 1256         ;"=   *N"
013006:  316740420650  camn     17, 420650      ;"9W@B&H"
013007:  254000407004  jrst     407004          ;"5@ @X$"
013010:  312740001122  came     17, 1122        ;"97@ )2"
013011:  260000404100  pushj    0, 404100       ;"6  @A "
013012:  375000001256  sosge    0, 1256         ;"?H  *N"
013013:  254000407042  jrst     407042          ;"5@ @XB"
013014:  200110000000  move     2, (10)         ;"0!(   "
013015:  135040417126  ldb      1, 417126       ;"+H@AY6"
013016:  312040417012  came     1, 417012       ;"90@AX*"
013017:  254000407024  jrst     407024          ;"5@ @X4"
013020:  260000413014  pushj    0, 413014       ;"6  A8,"
013021:  260000416014  pushj    0, 416014       ;"6  AP,"
013022:  254000407012  jrst     407012          ;"5@ @X*"
013023:  350000001072  aos      0, 1072         ;"=   (Z"
013024:  200110000000  move     2, (10)         ;"0!(   "
013025:  250350000000  exch     7, (10)         ;"5#H   "
013026:  250340000010  exch     7, 10           ;"5#@  ("
013027:  312040417030  came     1, 417030       ;"90@AX8"
013030:  254000407034  jrst     407034          ;"5@ @X<"
013031:  260000412642  pushj    0, 412642       ;"6  A6B"
013032:  254000407012  jrst     407012          ;"5@ @X*"
013033:  312040417016  came     1, 417016       ;"90@AX."
013034:  260000404346  pushj    0, 404346       ;"6  @CF"
013035:  260000413364  pushj    0, 413364       ;"6  A;T"
013036:  260000404346  pushj    0, 404346       ;"6  @CF"
013037:  254000407012  jrst     407012          ;"5@ @X*"
013040:  265240407064  jsp      5, 407064       ;"6J@@XT"
013041:  254000407012  jrst     407012          ;"5@ @X*"
013042:  260000414406  pushj    0, 414406       ;"6  AD&"
013043:  260000414772  pushj    0, 414772       ;"6  AGZ"
013044:  332000001074  skipe    0, 1074         ;";0  (\"
013045:  254000405324  jrst     405324          ;"5@ @K4"
013046:  200200001072  move     4, 1072         ;"0"  (Z"
013047:  274200417100  sub      4, 417100       ;"7B AY "
013050:  231200001000  idivi    4, 1000         ;"3*  ( "
013051:  322200405324  jumpe    4, 405324       ;":2 @K4"
013052:  201040000014  movei    1, 14           ;"0(@  ,"
013053:  265240404672  jsp      5, 404672       ;"6J@@FZ"
013054:  407056400052  andb     1, 400052(16)   ;"@XN@ J"
013055:  264000000770  jsr      770             ;"6@  'X"
013056:  200100417104  move     2, 417104       ;"0! AY$"
013057:  271100001050  addi     2, 1050         ;"7)  (H"
013060:  202100001072  movem    2, 1072         ;"01  (Z"
013061:  260000415022  pushj    0, 415022       ;"6  AH2"
013062:  254000405324  jrst     405324          ;"5@ @K4"
013063:  552240001306  hrrzm    5, 1306         ;"M2@ +&"
013064:  550300000660  hrrz     6, 660          ;"M#  &P"
013065:  336000001316  skipn    0, 1316         ;";P  +."
013066:  254000407076  jrst     407076          ;"5@ @X^"
013067:  307300000002  caig     6, 2            ;"8[   ""
013070:  260000417174  pushj    0, 417174       ;"6  AY\"
013071:  305300000010  caige    6, 10           ;"8K   ("
013072:  254000407076  jrst     407076          ;"5@ @X^"
013073:  307300000012  caig     6, 12           ;"8[   *"
013074:  260000417174  pushj    0, 417174       ;"6  AY\"
013075:  400040000000  setz     1,              ;"@ @   "
013076:  256006407100  xct      407100(6)       ;"5P&@Y "
013077:  254000407136  jrst     407136          ;"5@ @Y>"
013100:  660040000036  tro      1, 36           ;"V @  >"
013101:  660040000000  tro      1, 0            ;"V @   "
013102:  660040000000  tro      1, 0            ;"V @   "
013103:  660040000002  tro      1, 2            ;"V @  ""
013104:  660040000004  tro      1, 4            ;"V @  $"
013105:  660040000030  tro      1, 30           ;"V @  8"
013106:  260000404100  pushj    0, 404100       ;"6  @A "
013107:  260000404100  pushj    0, 404100       ;"6  @A "
013110:  254000407120  jrst     407120          ;"5@ @Y0"
013111:  254000407130  jrst     407130          ;"5@ @Y8"
013112:  254000407134  jrst     407134          ;"5@ @Y<"
013113:  254000407214  jrst     407214          ;"5@ @Z,"
013114:  260000404100  pushj    0, 404100       ;"6  @A "
013115:  260000404100  pushj    0, 404100       ;"6  @A "
013116:  260000404100  pushj    0, 404100       ;"6  @A "
013117:  260000404100  pushj    0, 404100       ;"6  @A "
013120:  200040000662  move     1, 662          ;"0 @ &R"
013121:  202040000664  movem    1, 664          ;"00@ &T"
013122:  504100000000  hrl      2, 0            ;"HA    "
013123:  540101000000  hrr      2, (1)          ;"L!!   "
013124:  260000415766  pushj    0, 415766       ;"6  AOV"
013125:  254000407120  jrst     407120          ;"5@ @Y0"
013126:  254020001306  jrst     @1306           ;"5@0 +&"
013127:  200100000662  move     2, 662          ;"0!  &R"
013130:  260000415766  pushj    0, 415766       ;"6  AOV"
013131:  254020001306  jrst     @1306           ;"5@0 +&"
013132:  254020001306  jrst     @1306           ;"5@0 +&"
013133:  200100000662  move     2, 662          ;"0!  &R"
013134:  260000416036  pushj    0, 416036       ;"6  AP>"
013135:  254020001306  jrst     @1306           ;"5@0 +&"
013136:  202040001266  movem    1, 1266         ;"00@ *V"
013137:  302040000036  caie     1, 36           ;"80@  >"
013140:  254000407144  jrst     407144          ;"5@ @YD"
013141:  402000001254  setzm    1254            ;"@0  *L"
013142:  260000414662  pushj    0, 414662       ;"6  AFR"
013143:  200040001266  move     1, 1266         ;"0 @ *V"
013144:  606040000000  trnn     1, 0            ;"PP@   " "aB\0\0\0"
013145:  254000407162  jrst     407162          ;"5@ @YR"
013146:  201100001312  movei    2, 1312         ;"0)  +*"
013147:  554042000000  hlrz     1, (2)          ;"M@B   "
013150:  322040407162  jumpe    1, 407162       ;":0@@YR"
013151:  504040000002  hrl      1, 2            ;"H@@  ""
013152:  202040000664  movem    1, 664          ;"00@ &T"
013153:  200040000664  move     1, 664          ;"0 @ &T"
013154:  504100000000  hrl      2, 0            ;"HA    "
013155:  540101000000  hrr      2, (1)          ;"L!!   "
013156:  260000415766  pushj    0, 415766       ;"6  AOV"
013157:  254000407154  jrst     407154          ;"5@ @YL"
013160:  254000407146  jrst     407146          ;"5@ @YF"
013161:  200040001266  move     1, 1266         ;"0 @ *V"
013162:  606040000002  trnn     1, 2            ;"PP@  ""
013163:  254000407174  jrst     407174          ;"5@ @Y\"
013164:  201040001314  movei    1, 1314         ;"0(@ +,"
013165:  554101000000  hlrz     2, (1)          ;"MA!   "
013166:  322100407174  jumpe    2, 407174       ;":1 @Y\"
013167:  504100000000  hrl      2, 0            ;"HA    "
013170:  202100000662  movem    2, 662          ;"01  &R"
013171:  260000416036  pushj    0, 416036       ;"6  AP>"
013172:  254000407164  jrst     407164          ;"5@ @YT"
013173:  200040001266  move     1, 1266         ;"0 @ *V"
013174:  606040000004  trnn     1, 4            ;"PP@  $"
013175:  254000407200  jrst     407200          ;"5@ @Z "
013176:  400100000000  setz     2,              ;"@!    "
013177:  260000416050  pushj    0, 416050       ;"6  APH"
013200:  200040001266  move     1, 1266         ;"0 @ *V"
013201:  606040000010  trnn     1, 10           ;"PP@  ("
013202:  254000407206  jrst     407206          ;"5@ @Z&"
013203:  201100000000  movei    2, 0            ;"0)    " " $\0\0\0"
013204:  260000416050  pushj    0, 416050       ;"6  APH"
013205:  200040001266  move     1, 1266         ;"0 @ *V"
013206:  606040000020  trnn     1, 20           ;"PP@  0"
013207:  254020001306  jrst     @1306           ;"5@0 +&"
013210:  201100000002  movei    2, 2            ;"0)   ""
013211:  260000416050  pushj    0, 416050       ;"6  APH"
013212:  254020001306  jrst     @1306           ;"5@0 +&"
013213:  200100000660  move     2, 660          ;"0!  &P"
013214:  260000412642  pushj    0, 412642       ;"6  A6B"
013215:  254020001306  jrst     @1306           ;"5@0 +&"
013216:  260000414720  pushj    0, 414720       ;"6  AG0"
013217:  312740001122  came     17, 1122        ;"97@ )2"
013220:  260000404100  pushj    0, 404100       ;"6  @A "
013221:  200040001074  move     1, 1074         ;"0 @ (\"
013222:  312040417074  came     1, 417074       ;"90@AX\"
013223:  254000407226  jrst     407226          ;"5@ @Z6"
013224:  336000001316  skipn    0, 1316         ;";P  +."
013225:  254000405324  jrst     405324          ;"5@ @K4"
013226:  265240404740  jsp      5, 404740       ;"6J@@G@"
013227:  576645650000  hlrem    15, 650000(5)   ;"OVEU  " "_Z.P\0"
013230:  777777777776  conso    774, @777776(17);"_____^"
013231:  254000405324  jrst     405324          ;"5@ @K4"
013232:  260000414720  pushj    0, 414720       ;"6  AG0"
013233:  312740001122  came     17, 1122        ;"97@ )2"
013234:  260000404100  pushj    0, 404100       ;"6  @A "
013235:  200040001074  move     1, 1074         ;"0 @ (\"
013236:  312040417074  came     1, 417074       ;"90@AX\"
013237:  254000407242  jrst     407242          ;"5@ @ZB"
013240:  336000001316  skipn    0, 1316         ;";P  +."
013241:  254000405324  jrst     405324          ;"5@ @K4"
013242:  265240404740  jsp      5, 404740       ;"6J@@G@"
013243:  000000000000                           ;"      "
013244:  254000405324  jrst     405324          ;"5@ @K4"
013245:  476000001254  setom    1254            ;"GP  *L"
013246:  254000407250  jrst     407250          ;"5@ @ZH"
013247:  402000001254  setzm    1254            ;"@0  *L"
013250:  332000001316  skipe    0, 1316         ;";0  +."
013251:  260000403714  pushj    0, 403714       ;"6  @?,"
013252:  260000414720  pushj    0, 414720       ;"6  AG0"
013253:  312740001122  came     17, 1122        ;"97@ )2"
013254:  260000404100  pushj    0, 404100       ;"6  @A "
013255:  260000414662  pushj    0, 414662       ;"6  AFR"
013256:  254000405456  jrst     405456          ;"5@ @LN"
013257:  332000001316  skipe    0, 1316         ;";0  +."
013260:  260000403714  pushj    0, 403714       ;"6  @?,"
013261:  260000414720  pushj    0, 414720       ;"6  AG0"
013262:  312740001122  came     17, 1122        ;"97@ )2"
013263:  260000404100  pushj    0, 404100       ;"6  @A "
013264:  135100417132  ldb      2, 417132       ;"+I AY:"
013265:  326100407270  jumpn    2, 407270       ;":Q @ZX"
013266:  260000404232  pushj    0, 404232       ;"6  @B:"
013267:  135100417134  ldb      2, 417134       ;"+I AY<"
013270:  322100407274  jumpe    2, 407274       ;":1 @Z\"
013271:  135100417134  ldb      2, 417134       ;"+I AY<"
013272:  202100001316  movem    2, 1316         ;"01  +."
013273:  254000405436  jrst     405436          ;"5@ @L>"
013274:  135100417136  ldb      2, 417136       ;"+I AY>"
013275:  322100405354  jumpe    2, 405354       ;":1 @KL"
013276:  476000001316  setom    1316            ;"GP  +."
013277:  254000405324  jrst     405324          ;"5@ @K4"
013300:  336000001316  skipn    0, 1316         ;";P  +."
013301:  260000403712  pushj    0, 403712       ;"6  @?*"
013302:  260000414720  pushj    0, 414720       ;"6  AG0"
013303:  312740001122  came     17, 1122        ;"97@ )2"
013304:  260000404100  pushj    0, 404100       ;"6  @A "
013305:  254000405422  jrst     405422          ;"5@ @L2"
013306:  336000001316  skipn    0, 1316         ;";P  +."
013307:  260000403712  pushj    0, 403712       ;"6  @?*"
013310:  260000414720  pushj    0, 414720       ;"6  AG0"
013311:  312740001122  came     17, 1122        ;"97@ )2"
013312:  260000404100  pushj    0, 404100       ;"6  @A "
013313:  474100000000  seto     2,              ;"GA    "
013314:  137100417136  dpb      2, 417136       ;"+Y AY>"
013315:  200040001324  move     1, 1324         ;"0 @ +4"
013316:  200140001326  move     3, 1326         ;"0!@ +6"
013317:  260000414676  pushj    0, 414676       ;"6  AF^"
013320:  265240404740  jsp      5, 404740       ;"6J@@G@"
013321:  576374063600  hlrem    7, @63600(14)   ;"OS\&> " "_O`g@"
013322:  352000000000  aose     0, 0            ;"=0    " ":@\0\0\0"
013323:  000000001240                           ;"    *@"
013324:  576701513520  hlrem    16, 513520(1)   ;"OW!I=0"
013325:  777777777776  conso    774, @777776(17);"_____^"
013326:  402000001316  setzm    1316            ;"@0  +."
013327:  254000405324  jrst     405324          ;"5@ @K4"
013330:  336000001316  skipn    0, 1316         ;";P  +."
013331:  260000403712  pushj    0, 403712       ;"6  @?*"
013332:  265240410654  jsp      5, 410654       ;"6J@A&L"
013333:  260000404100  pushj    0, 404100       ;"6  @A "
013334:  550040000662  hrrz     1, 662          ;"M @ &R"
013335:  550140000660  hrrz     3, 660          ;"M!@ &P"
013336:  274140417070  sub      3, 417070       ;"7A@AXX"
013337:  306140000002  cain     3, 2            ;"8Q@  ""
013340:  254000407344  jrst     407344          ;"5@ @[D"
013341:  302140000000  caie     3, 0            ;"81@   " "0F\0\0\0"
013342:  260000404100  pushj    0, 404100       ;"6  @A "
013343:  550041000000  hrrz     1, (1)          ;"M A   "
013344:  312740001122  came     17, 1122        ;"97@ )2"
013345:  260000404100  pushj    0, 404100       ;"6  @A "
013346:  202040001326  movem    1, 1326         ;"00@ +6"
013347:  200140000642  move     3, 642          ;"0!@ &B"
013350:  202140001324  movem    3, 1324         ;"01@ +4"
013351:  200141000000  move     3, (1)          ;"0!A   "
013352:  202140001326  movem    3, 1326         ;"01@ +6"
013353:  402000000656  setzm    656             ;"@0  &N"
013354:  254000405326  jrst     405326          ;"5@ @K6"
013355:  336000001316  skipn    0, 1316         ;";P  +."
013356:  260000403712  pushj    0, 403712       ;"6  @?*"
013357:  265240410446  jsp      5, 410446       ;"6J@A$F"
013360:  260000404100  pushj    0, 404100       ;"6  @A "
013361:  200040001202  move     1, 1202         ;"0 @ *""
013362:  202040000140  movem    1, 140          ;"00@ !@"
013363:  402000000252  setzm    252             ;"@0  "J"
013364:  316740420760  camn     17, 420760      ;"9W@B'P"
013365:  254000407464  jrst     407464          ;"5@ @\T"
013366:  312740001122  came     17, 1122        ;"97@ )2"
013367:  260000404100  pushj    0, 404100       ;"6  @A "
013370:  200050000000  move     1, (10)         ;"0 H   "
013371:  260000414500  pushj    0, 414500       ;"6  AE "
013372:  200750000000  move     17, (10)        ;"0'H   "
013373:  200757000000  move     17, (17)        ;"0'O   "
013374:  200757000000  move     17, (17)        ;"0'O   "
013375:  200100001202  move     2, 1202         ;"0!  *""
013376:  260000415454  pushj    0, 415454       ;"6  ALL"
013377:  260000415366  pushj    0, 415366       ;"6  AKV"
013400:  202040001124  movem    1, 1124         ;"00@ )4"
013401:  336000000252  skipn    0, 252          ;";P  "J"
013402:  254000407410  jrst     407410          ;"5@ @\("
013403:  200240001202  move     5, 1202         ;"0"@ *""
013404:  541240000252  hrri     5, 252          ;"L*@ "J"
013405:  202240001202  movem    5, 1202         ;"02@ *""
013406:  201200000154  movei    4, 154          ;"0*  !L"
013407:  260000414164  pushj    0, 414164       ;"6  AAT"
013410:  370000001074  sos      0, 1074         ;"?   (\"
013411:  260000414406  pushj    0, 414406       ;"6  AD&"
013412:  265240404740  jsp      5, 404740       ;"6J@@G@"
013413:  000000001124                           ;"    )4"
013414:  000000001202                           ;"    *""
013415:  000000417070                           ;"   AXX"
013416:  777777777776  conso    774, @777776(17);"_____^"
013417:  200100000140  move     2, 140          ;"0!  !@"
013420:  202100001202  movem    2, 1202         ;"01  *""
013421:  201100000002  movei    2, 2            ;"0)   ""
013422:  506100001066  hrlm     2, 1066         ;"HQ  (V"
013423:  402000001070  setzm    1070            ;"@0  (X"
013424:  254000403622  jrst     403622          ;"5@ @>2"
013425:  332000001254  skipe    0, 1254         ;";0  *L"
013426:  254000407432  jrst     407432          ;"5@ @\:"
013427:  332000001256  skipe    0, 1256         ;";0  *N"
013430:  254000407410  jrst     407410          ;"5@ @\("
013431:  254000404712  jrst     404712          ;"5@ @G*"
013432:  476000001120  setom    1120            ;"GP  )0"
013433:  332000001256  skipe    0, 1256         ;";0  *N"
013434:  260000404246  pushj    0, 404246       ;"6  @BF"
013435:  200200420654  move     4, 420654       ;"0" B&L"
013436:  135740001256  ldb      17, 1256        ;"+O@ *N"
013437:  302740000160  caie     17, 160         ;"87@ !P"
013440:  254000407444  jrst     407444          ;"5@ @\D"
013441:  201740000166  movei    17, 166         ;"0/@ !V"
013442:  137740001256  dpb      17, 1256        ;"+_@ *N"
013443:  200200420654  move     4, 420654       ;"0" B&L"
013444:  202200001122  movem    4, 1122         ;"02  )2"
013445:  200200001154  move     4, 1154         ;"0"  )L"
013446:  202200001120  movem    4, 1120         ;"02  )0"
013447:  402000001254  setzm    1254            ;"@0  *L"
013450:  260000414246  pushj    0, 414246       ;"6  ABF"
013451:  200200000600  move     4, 600          ;"0"  & "
013452:  322200407454  jumpe    4, 407454       ;":2 @\L"
013453:  260000404100  pushj    0, 404100       ;"6  @A "
013454:  476000001316  setom    1316            ;"GP  +."
013455:  200200001202  move     4, 1202         ;"0"  *""
013456:  202200001120  movem    4, 1120         ;"02  )0"
013457:  265240410446  jsp      5, 410446       ;"6J@A$F"
013460:  260000404346  pushj    0, 404346       ;"6  @CF"
013461:  200200001154  move     4, 1154         ;"0"  )L"
013462:  202200001120  movem    4, 1120         ;"02  )0"
013463:  254000405562  jrst     405562          ;"5@ @MR"
013464:  265240412444  jsp      5, 412444       ;"6J@A4D"
013465:  312740420642  came     17, 420642      ;"97@B&B"
013466:  260000404100  pushj    0, 404100       ;"6  @A "
013467:  476000000252  setom    252             ;"GP  "J"
013470:  254000407370  jrst     407370          ;"5@ @[X"
013471:  552740001120  hrrzm    17, 1120        ;"M7@ )0"
013472:  332000001316  skipe    0, 1316         ;";0  +."
013473:  332000001330  skipe    0, 1330         ;";0  +8"
013474:  254000407476  jrst     407476          ;"5@ @\^"
013475:  260000404100  pushj    0, 404100       ;"6  @A "
013476:  135740001256  ldb      17, 1256        ;"+O@ *N"
013477:  302740000162  caie     17, 162         ;"87@ !R"
013500:  260000404100  pushj    0, 404100       ;"6  @A "
013501:  260000413724  pushj    0, 413724       ;"6  A?4"
013502:  200757420466  move     17, 420466(17)  ;"0'OB$V"
013503:  312740417064  came     17, 417064      ;"97@AXT"
013504:  260000404100  pushj    0, 404100       ;"6  @A "
013505:  265240407620  jsp      5, 407620       ;"6J@@^0"
013506:  312740420652  came     17, 420652      ;"97@B&J"
013507:  260000404100  pushj    0, 404100       ;"6  @A "
013510:  260000413724  pushj    0, 413724       ;"6  A?4"
013511:  302740000164  caie     17, 164         ;"87@ !T"
013512:  260000404100  pushj    0, 404100       ;"6  @A "
013513:  265240412452  jsp      5, 412452       ;"6J@A4J"
013514:  260000417146  pushj    0, 417146       ;"6  AYF"
013515:  264000000774  jsr      774             ;"6@  '\"
013516:  260000404176  pushj    0, 404176       ;"6  @A^"
013517:  322100407522  jumpe    2, 407522       ;":1 @]2"
013520:  260000404176  pushj    0, 404176       ;"6  @A^"
013521:  202040001266  movem    1, 1266         ;"00@ *V"
013522:  260000414406  pushj    0, 414406       ;"6  AD&"
013523:  476000001330  setom    1330            ;"GP  +8"
013524:  332000001330  skipe    0, 1330         ;";0  +8"
013525:  254000416624  jrst     416624          ;"5@ AV4"
013526:  201040000002  movei    1, 2            ;"0(@  ""
013527:  506040001066  hrlm     1, 1066         ;"HP@ (V"
013530:  402000001070  setzm    1070            ;"@0  (X"
013531:  476000000236  setom    236             ;"GP  ">"
013532:  254000403622  jrst     403622          ;"5@ @>2"
013533:  402000001254  setzm    1254            ;"@0  *L"
013534:  332000001256  skipe    0, 1256         ;";0  *N"
013535:  260000404246  pushj    0, 404246       ;"6  @BF"
013536:  200100001154  move     2, 1154         ;"0!  )L"
013537:  202100001120  movem    2, 1120         ;"01  )0"
013540:  260000414246  pushj    0, 414246       ;"6  ABF"
013541:  260000412436  pushj    0, 412436       ;"6  A4>"
013542:  200140001266  move     3, 1266         ;"0!@ *V"
013543:  551040001314  hrrzi    1, 1314         ;"M(@ +,"
013544:  260000413406  pushj    0, 413406       ;"6  A<&"
013545:  254000407552  jrst     407552          ;"5@ @]J"
013546:  550242000000  hrrz     5, (2)          ;"M"B   "
013547:  260000412712  pushj    0, 412712       ;"6  A7*"
013550:  254000407560  jrst     407560          ;"5@ @]P"
013551:  370000001072  sos      0, 1072         ;"?   (Z"
013552:  250100000006  exch     2, 6            ;"5!   &"
013553:  506101000000  hrlm     2, (1)          ;"HQ!   "
013554:  202142000000  movem    3, (2)          ;"01B   "
013555:  250342000000  exch     7, (2)          ;"5#B   "
013556:  517002000000  hrlzs    0, (2)          ;"IX"   "
013557:  542342000000  hrrm     7, (2)          ;"L3B   "
013560:  200100000006  move     2, 6            ;"0!   &"
013561:  200040001154  move     1, 1154         ;"0 @ )L"
013562:  202040001120  movem    1, 1120         ;"00@ )0"
013563:  476000000236  setom    236             ;"GP  ">"
013564:  260000414142  pushj    0, 414142       ;"6  AAB"
013565:  402000000236  setzm    236             ;"@0  ">"
013566:  550342000000  hrrz     7, (2)          ;"M#B   "
013567:  513002000000  hllzs    0, (2)          ;"I8"   "
013570:  254000405550  jrst     405550          ;"5@ @MH"
013571:  260000414720  pushj    0, 414720       ;"6  AG0"
013572:  312740001122  came     17, 1122        ;"97@ )2"
013573:  260000404100  pushj    0, 404100       ;"6  @A "
013574:  332000001316  skipe    0, 1316         ;";0  +."
013575:  254000405456  jrst     405456          ;"5@ @LN"
013576:  135100417132  ldb      2, 417132       ;"+I AY:"
013577:  326100407602  jumpn    2, 407602       ;":Q @^""
013600:  260000404232  pushj    0, 404232       ;"6  @B:"
013601:  260000413552  pushj    0, 413552       ;"6  A=J"
013602:  332100001316  skipe    2, 1316         ;";1  +."
013603:  137100417136  dpb      2, 417136       ;"+Y AY>"
013604:  402000001316  setzm    1316            ;"@0  +."
013605:  254000405456  jrst     405456          ;"5@ @LN"
013606:  265240412204  jsp      5, 412204       ;"6J@A2$"
013607:  312740420770  came     17, 420770      ;"97@B'X"
013610:  260000404100  pushj    0, 404100       ;"6  @A "
013611:  265240412204  jsp      5, 412204       ;"6J@A2$"
013612:  312740001122  came     17, 1122        ;"97@ )2"
013613:  260000404100  pushj    0, 404100       ;"6  @A "
013614:  200100000166  move     2, 166          ;"0!  !V"
013615:  202100001102  movem    2, 1102         ;"01  )""
013616:  254000405324  jrst     405324          ;"5@ @K4"
013617:  504740000004  hrl      17, 4           ;"HG@  $"
013620:  540740417054  hrr      17, 417054      ;"L'@AXL"
013621:  265240412444  jsp      5, 412444       ;"6J@A4D"
013622:  135300417130  ldb      6, 417130       ;"+K AY8"
013623:  256006407624  xct      407624(6)       ;"5P&@^4"
013624:  254000407704  jrst     407704          ;"5@ @_$"
013625:  254000407754  jrst     407754          ;"5@ @_L"
013626:  254000407622  jrst     407622          ;"5@ @^2"
013627:  254000407622  jrst     407622          ;"5@ @^2"
013630:  254000407670  jrst     407670          ;"5@ @^X"
013631:  254000407676  jrst     407676          ;"5@ @^^"
013632:  260000404100  pushj    0, 404100       ;"6  @A "
013633:  260000404100  pushj    0, 404100       ;"6  @A "
013634:  260000404100  pushj    0, 404100       ;"6  @A "
013635:  254000407646  jrst     407646          ;"5@ @^F"
013636:  260000404100  pushj    0, 404100       ;"6  @A "
013637:  260000404100  pushj    0, 404100       ;"6  @A "
013640:  260000404100  pushj    0, 404100       ;"6  @A "
013641:  260000404100  pushj    0, 404100       ;"6  @A "
013642:  260000404100  pushj    0, 404100       ;"6  @A "
013643:  260000404100  pushj    0, 404100       ;"6  @A "
013644:  260000404100  pushj    0, 404100       ;"6  @A "
013645:  260000404100  pushj    0, 404100       ;"6  @A "
013646:  510300000016  hllz     6, 16           ;"I#   ."
013647:  312300417110  came     6, 417110       ;"93 AY("
013650:  260000404100  pushj    0, 404100       ;"6  @A "
013651:  504740417020  hrl      17, 417020      ;"HG@AX0"
013652:  200100000016  move     2, 16           ;"0!   ."
013653:  377000001072  sosg     0, 1072         ;"?X  (Z"
013654:  260000404140  pushj    0, 404140       ;"6  @A@"
013655:  202107000000  movem    2, (7)          ;"01'   " " D8\0\0"
013656:  250407000000  exch     10, (7)         ;"5$'   "
013657:  250340000010  exch     7, 10           ;"5#@  ("
013660:  265240412204  jsp      5, 412204       ;"6J@A2$"
013661:  135300417130  ldb      6, 417130       ;"+K AY8"
013662:  307300000002  caig     6, 2            ;"8[   ""
013663:  254000410030  jrst     410030          ;"5@ A 8"
013664:  301300000010  cail     6, 10           ;"8+   ("
013665:  254000410030  jrst     410030          ;"5@ A 8"
013666:  260000404100  pushj    0, 404100       ;"6  @A "
013667:  316740420626  camn     17, 420626      ;"9W@B&6"
013670:  254000407674  jrst     407674          ;"5@ @^\"
013671:  312740420630  came     17, 420630      ;"97@B&8"
013672:  260000404100  pushj    0, 404100       ;"6  @A "
013673:  200757421060  move     17, 421060(17)  ;"0'OB(P"
013674:  254000410064  jrst     410064          ;"5@ A T"
013675:  265240412444  jsp      5, 412444       ;"6J@A4D"
013676:  135300417130  ldb      6, 417130       ;"+K AY8"
013677:  302300000000  caie     6, 0            ;"83    " "0L\0\0\0"
013700:  254000410064  jrst     410064          ;"5@ A T"
013701:  336000000004  skipn    0, 4            ;";P   $"
013702:  260000404100  pushj    0, 404100       ;"6  @A "
013703:  256006407624  xct      407624(6)       ;"5P&@^4"
013704:  200117000000  move     2, (17)         ;"0!/   "
013705:  554317000000  hlrz     6, (17)         ;"MC/   " "[\fx\0\0"
013706:  312300001130  came     6, 1130         ;"93  )8"
013707:  254000407714  jrst     407714          ;"5@ @_,"
013710:  135300417126  ldb      6, 417126       ;"+K AY6"
013711:  256006407734  xct      407734(6)       ;"5P&@_<"
013712:  254000410022  jrst     410022          ;"5@ A 2"
013713:  312300001320  came     6, 1320         ;"93  +0"
013714:  254000407724  jrst     407724          ;"5@ @_4"
013715:  550757000000  hrrz     17, (17)        ;"M'O   "
013716:  322740407710  jumpe    17, 407710      ;":7@@_("
013717:  554317000000  hlrz     6, (17)         ;"MC/   " "[\fx\0\0"
013720:  312300001320  came     6, 1320         ;"93  +0"
013721:  254000407710  jrst     407710          ;"5@ @_("
013722:  200117000000  move     2, (17)         ;"0!/   "
013723:  254000407716  jrst     407716          ;"5@ @_."
013724:  317300001320  camg     6, 1320         ;"9[  +0"
013725:  260000404102  pushj    0, 404102       ;"6  @A""
013726:  550757000000  hrrz     17, (17)        ;"M'O   "
013727:  554317000000  hlrz     6, (17)         ;"MC/   " "[\fx\0\0"
013730:  326740407732  jumpn    17, 407732      ;":W@@_:"
013731:  260000404102  pushj    0, 404102       ;"6  @A""
013732:  200117000000  move     2, (17)         ;"0!/   "
013733:  254000407714  jrst     407714          ;"5@ @_,"
013734:  254000410022  jrst     410022          ;"5@ A 2"
013735:  254000410022  jrst     410022          ;"5@ A 2"
013736:  254000410102  jrst     410102          ;"5@ A!""
013737:  254000410142  jrst     410142          ;"5@ A!B"
013740:  254000410126  jrst     410126          ;"5@ A!6"
013741:  254000411202  jrst     411202          ;"5@ A*""
013742:  260000404102  pushj    0, 404102       ;"6  @A""
013743:  260000404076  pushj    0, 404076       ;"6  @@^"
013744:  260000404076  pushj    0, 404076       ;"6  @@^"
013745:  260000404076  pushj    0, 404076       ;"6  @@^"
013746:  260000404076  pushj    0, 404076       ;"6  @@^"
013747:  260000404076  pushj    0, 404076       ;"6  @@^"
013750:  254000407654  jrst     407654          ;"5@ @^L"
013751:  260000404076  pushj    0, 404076       ;"6  @@^"
013752:  260000404076  pushj    0, 404076       ;"6  @@^"
013753:  260000404076  pushj    0, 404076       ;"6  @@^"
013754:  135300417132  ldb      6, 417132       ;"+K AY:"
013755:  504100000006  hrl      2, 6            ;"HA   &"
013756:  540100000016  hrr      2, 16           ;"L!   ."
013757:  256006407762  xct      407762(6)       ;"5P&@_R"
013760:  254000410022  jrst     410022          ;"5@ A 2"
013761:  260000417170  pushj    0, 417170       ;"6  AYX"
013762:  254000410006  jrst     410006          ;"5@ A &"
013763:  260000404100  pushj    0, 404100       ;"6  @A "
013764:  260000404100  pushj    0, 404100       ;"6  @A "
013765:  254000410126  jrst     410126          ;"5@ A!6"
013766:  254000411202  jrst     411202          ;"5@ A*""
013767:  254000410002  jrst     410002          ;"5@ A ""
013770:  254000410006  jrst     410006          ;"5@ A &"
013771:  260000404100  pushj    0, 404100       ;"6  @A "
013772:  260000404100  pushj    0, 404100       ;"6  @A "
013773:  260000404100  pushj    0, 404100       ;"6  @A "
013774:  260000404100  pushj    0, 404100       ;"6  @A "
013775:  260000404100  pushj    0, 404100       ;"6  @A "
013776:  260000404100  pushj    0, 404100       ;"6  @A "
013777:  260000404100  pushj    0, 404100       ;"6  @A "
014000:  260000404100  pushj    0, 404100       ;"6  @A "
014001:  200057000000  move     1, (17)         ;"0 O   "
014002:  400140000000  setz     3,              ;"@!@   "
014003:  264000001002  jsr      1002            ;"6@  (""
014004:  254000410012  jrst     410012          ;"5@ A *"
014005:  200042000000  move     1, (2)          ;"0 B   "
014006:  200142000000  move     3, (2)          ;"0!B   "
014007:  603040600000  tlne     1, 600000       ;"P8@P  "
014010:  260000404166  pushj    0, 404166       ;"6  @AV"
014011:  514140000002  hrlz     3, 2            ;"IA@  ""
014012:  377000001072  sosg     0, 1072         ;"?X  (Z"
014013:  260000403716  pushj    0, 403716       ;"6  @?."
014014:  202047000000  movem    1, (7)          ;"00G   " " B8\0\0"
014015:  250147000000  exch     3, (7)          ;"5!G   "
014016:  250340000002  exch     7, 2            ;"5#@  ""
014017:  540100000002  hrr      2, 2            ;"L!   ""
014020:  504100417004  hrl      2, 417004       ;"HA AX$"
014021:  377000001072  sosg     0, 1072         ;"?X  (Z"
014022:  260000404140  pushj    0, 404140       ;"6  @A@"
014023:  202107000000  movem    2, (7)          ;"01'   " " D8\0\0"
014024:  250407000000  exch     10, (7)         ;"5$'   "
014025:  250340000010  exch     7, 10           ;"5#@  ("
014026:  265240412204  jsp      5, 412204       ;"6J@A2$"
014027:  135300417130  ldb      6, 417130       ;"+K AY8"
014030:  256006410032  xct      410032(6)       ;"5P&A :"
014031:  260000404100  pushj    0, 404100       ;"6  @A "
014032:  326200410052  jumpn    4, 410052       ;":R A J"
014033:  326200410052  jumpn    4, 410052       ;":R A J"
014034:  254000410052  jrst     410052          ;"5@ A J"
014035:  254000410052  jrst     410052          ;"5@ A J"
014036:  254000410056  jrst     410056          ;"5@ A N"
014037:  326200410052  jumpn    4, 410052       ;":R A J"
014040:  326200410056  jumpn    4, 410056       ;":R A N"
014041:  254000410056  jrst     410056          ;"5@ A N"
014042:  254000410052  jrst     410052          ;"5@ A J"
014043:  326200410052  jumpn    4, 410052       ;":R A J"
014044:  260000404100  pushj    0, 404100       ;"6  @A "
014045:  260000404100  pushj    0, 404100       ;"6  @A "
014046:  260000404100  pushj    0, 404100       ;"6  @A "
014047:  260000404100  pushj    0, 404100       ;"6  @A "
014050:  260000404100  pushj    0, 404100       ;"6  @A "
014051:  260000404100  pushj    0, 404100       ;"6  @A "
014052:  202200001106  movem    4, 1106         ;"02  )&"
014053:  402000001122  setzm    1122            ;"@0  )2"
014054:  256016421120  xct      421120(16)      ;"5P.B)0" "+@t\"("
014055:  550317421034  hrrz     6, 421034(17)   ;"M#/B(<"
014056:  202300001122  movem    6, 1122         ;"03  )2"
014057:  554316421034  hlrz     6, 421034(16)   ;"MC.B(<"
014060:  315300001122  camge    6, 1122         ;"9K  )2"
014061:  256017421064  xct      421064(17)      ;"5P/B(T"
014062:  256016421120  xct      421120(16)      ;"5P.B)0" "+@t\"("
014063:  265240412444  jsp      5, 412444       ;"6J@A4D"
014064:  135300417130  ldb      6, 417130       ;"+K AY8"
014065:  303300000002  caile    6, 2            ;"8;   ""
014066:  260000404100  pushj    0, 404100       ;"6  @A "
014067:  256006407624  xct      407624(6)       ;"5P&@^4"
014070:  265240412444  jsp      5, 412444       ;"6J@A4D"
014071:  135300417130  ldb      6, 417130       ;"+K AY8"
014072:  303300000004  caile    6, 4            ;"8;   $"
014073:  260000404100  pushj    0, 404100       ;"6  @A "
014074:  256006407624  xct      407624(6)       ;"5P&@^4"
014075:  265240412444  jsp      5, 412444       ;"6J@A4D"
014076:  336000000004  skipn    0, 4            ;";P   $"
014077:  260000404100  pushj    0, 404100       ;"6  @A "
014100:  135300417130  ldb      6, 417130       ;"+K AY8"
014101:  256006407624  xct      407624(6)       ;"5P&@^4"
014102:  260000412502  pushj    0, 412502       ;"6  A5""
014103:  254000407654  jrst     407654          ;"5@ @^L"
014104:  265240410334  jsp      5, 410334       ;"6J@A#<"
014105:  202100000624  movem    2, 624          ;"01  &4"
014106:  260000412700  pushj    0, 412700       ;"6  A7 "
014107:  200100000624  move     2, 624          ;"0!  &4"
014110:  554202000000  hlrz     4, (2)          ;"MB"   "
014111:  312200000664  came     4, 664          ;"92  &T"
014112:  260000404110  pushj    0, 404110       ;"6  @A("
014113:  260000412516  pushj    0, 412516       ;"6  A5."
014114:  254000410122  jrst     410122          ;"5@ A!2"
014115:  200042000000  move     1, (2)          ;"0 B   "
014116:  544142000000  hlr      3, (2)          ;"LAB   "
014117:  260000412570  pushj    0, 412570       ;"6  A5X"
014120:  254000410022  jrst     410022          ;"5@ A 2"
014121:  200100000624  move     2, 624          ;"0!  &4"
014122:  607100000020  tlnn     2, 20           ;"PY   0"
014123:  260000404110  pushj    0, 404110       ;"6  @A("
014124:  403040000002  setzb    1, 2            ;"@8@  ""
014125:  254000410012  jrst     410012          ;"5@ A *"
014126:  260000412502  pushj    0, 412502       ;"6  A5""
014127:  254000407654  jrst     407654          ;"5@ @^L"
014130:  265240410334  jsp      5, 410334       ;"6J@A#<"
014131:  202100000624  movem    2, 624          ;"01  &4"
014132:  574202420774  hlre     4, 420774(2)    ;"OB"B'\"
014133:  312200000664  came     4, 664          ;"92  &T"
014134:  325200410140  jumpge   4, 410140       ;":J A!@"
014135:  540202420774  hrr      4, 420774(2)    ;"L""B'\"
014136:  260004000000  pushj    0, (4)          ;"6 $   "
014137:  254000410022  jrst     410022          ;"5@ A 2"
014140:  260000404100  pushj    0, 404100       ;"6  @A "
014141:  554042000000  hlrz     1, (2)          ;"M@B   "
014142:  326040410146  jumpn    1, 410146       ;":P@A!F"
014143:  402000000664  setzm    664             ;"@0  &T"
014144:  350000001130  aos      0, 1130         ;"=   )8"
014145:  254000410220  jrst     410220          ;"5@ A"0"
014146:  260000412502  pushj    0, 412502       ;"6  A5""
014147:  254000407654  jrst     407654          ;"5@ @^L"
014150:  265240410334  jsp      5, 410334       ;"6J@A#<"
014151:  202100000624  movem    2, 624          ;"01  &4"
014152:  554042000000  hlrz     1, (2)          ;"M@B   "
014153:  312040000664  came     1, 664          ;"90@ &T"
014154:  260000404100  pushj    0, 404100       ;"6  @A "
014155:  554042000000  hlrz     1, (2)          ;"M@B   "
014156:  275040000000  subi     1, 0            ;"7H@   " "/\"\0\0\0"
014157:  505040041000  hrli     1, 41000        ;"HH@$( "
014160:  250040001120  exch     1, 1120         ;"5 @ )0"
014161:  201300000000  movei    6, 0            ;"0+    " " ,\0\0\0"
014162:  265240412204  jsp      5, 412204       ;"6J@A2$"
014163:  603740777776  tlne     17, 777776      ;"P?@__^"
014164:  260000404100  pushj    0, 404100       ;"6  @A "
014165:  202746000664  movem    17, 664(6)      ;"07F &T"
014166:  312300000664  came     6, 664          ;"93  &T"
014167:  344300410162  aoja     6, 410162       ;"<C A!R"
014170:  202040001120  movem    1, 1120         ;"00@ )0"
014171:  200200000006  move     4, 6            ;"0"   &"
014172:  551300000006  hrrzi    6, 6            ;"M+   &"
014173:  350000001130  aos      0, 1130         ;"=   )8"
014174:  200306000000  move     6, (6)          ;"0#&   " " \f0\0\0"
014175:  200104000664  move     2, 664(4)       ;"0!$ &T"
014176:  260000412612  pushj    0, 412612       ;"6  A6*"
014177:  200146000000  move     3, (6)          ;"0!F   "
014200:  135040417130  ldb      1, 417130       ;"+H@AY8"
014201:  313040417006  camle    1, 417006       ;"98@AX&"
014202:  254000410210  jrst     410210          ;"5@ A"("
014203:  322040410210  jumpe    1, 410210       ;":0@A"("
014204:  550043000000  hrrz     1, (3)          ;"M C   "
014205:  271040000000  addi     1, 0            ;"7(@   " ".\"\0\0\0"
014206:  542043000000  hrrm     1, (3)          ;"L0C   "
014207:  135040417140  ldb      1, 417140       ;"+H@AY@"
014210:  202142000000  movem    3, (2)          ;"01B   "
014211:  607140776000  tlnn     3, 776000       ;"PY@_P "
014212:  137040417140  dpb      1, 417140       ;"+X@AY@"
014213:  504100417012  hrl      2, 417012       ;"HA AX*"
014214:  202106000000  movem    2, (6)          ;"01&   " " D0\0\0"
014215:  367200410174  sojg     4, 410174       ;">Z A!\"
014216:  200100000624  move     2, 624          ;"0!  &4"
014217:  200140001120  move     3, 1120         ;"0!@ )0"
014220:  265240412204  jsp      5, 412204       ;"6J@A2$"
014221:  135300417130  ldb      6, 417130       ;"+K AY8"
014222:  307300000010  caig     6, 10           ;"8[   ("
014223:  254006410224  jrst     410224(6)       ;"5@&A"4"
014224:  260000404100  pushj    0, 404100       ;"6  @A "
014225:  260000404100  pushj    0, 404100       ;"6  @A "
014226:  254000410236  jrst     410236          ;"5@ A">"
014227:  254000410236  jrst     410236          ;"5@ A">"
014230:  254000410236  jrst     410236          ;"5@ A">"
014231:  260000404100  pushj    0, 404100       ;"6  @A "
014232:  322200410232  jumpe    4, 410232       ;":2 A":"
014233:  254000410236  jrst     410236          ;"5@ A">"
014234:  254000410236  jrst     410236          ;"5@ A">"
014235:  322200410232  jumpe    4, 410232       ;":2 A":"
014236:  554040000002  hlrz     1, 2            ;"M@@  ""
014237:  620040001776  trz      1, 1776         ;"R @ /^"
014240:  434040000664  or       1, 664          ;"C@@ &T"
014241:  200240001130  move     5, 1130         ;"0"@ )8"
014242:  504240000000  hrl      5, 0            ;"HB@   " "Q\n\0\0\0"
014243:  377000001072  sosg     0, 1072         ;"?X  (Z"
014244:  260000403716  pushj    0, 403716       ;"6  @?."
014245:  202147000000  movem    3, (7)          ;"01G   " " F8\0\0"
014246:  250247000000  exch     5, (7)          ;"5"G   " "*\n8\0\0"
014247:  250340000004  exch     7, 4            ;"5#@  $"
014250:  552240001130  hrrzm    5, 1130         ;"M2@ )8"
014251:  350000001124  aos      0, 1124         ;"=   )4"
014252:  550042000000  hrrz     1, (2)          ;"M B   "
014253:  275040000000  subi     1, 0            ;"7H@   " "/\"\0\0\0"
014254:  505040041000  hrli     1, 41000        ;"HH@$( "
014255:  202040001120  movem    1, 1120         ;"00@ )0"
014256:  265240404676  jsp      5, 404676       ;"6J@@F^"
014257:  000000000004                           ;"     $"
014260:  265240407620  jsp      5, 407620       ;"6J@@^0"
014261:  312740420654  came     17, 420654      ;"97@B&L"
014262:  260000404100  pushj    0, 404100       ;"6  @A "
014263:  200040001130  move     1, 1130         ;"0 @ )8"
014264:  350000001072  aos      0, 1072         ;"=   (Z"
014265:  200241000000  move     5, (1)          ;"0"A   "
014266:  250341000000  exch     7, (1)          ;"5#A   "
014267:  250340000000  exch     7, 0            ;"5#@   "
014270:  202240001120  movem    5, 1120         ;"02@ )0"
014271:  554300000000  hlrz     6, 0            ;"MC    " "[\f\0\0\0"
014272:  620300776000  trz      6, 776000       ;"R# _P "
014273:  552040001130  hrrzm    1, 1130         ;"M0@ )8"
014274:  370000001130  sos      0, 1130         ;"?   )8"
014275:  370000001124  sos      0, 1124         ;"?   )4"
014276:  350000001072  aos      0, 1072         ;"=   (Z"
014277:  200110000000  move     2, (10)         ;"0!(   "
014300:  250350000000  exch     7, (10)         ;"5#H   "
014301:  250340000010  exch     7, 10           ;"5#@  ("
014302:  402000000620  setzm    620             ;"@0  &0"
014303:  322300407710  jumpe    6, 407710       ;":3 @_("
014304:  202100000620  movem    2, 620          ;"01  &0"
014305:  553000000002  hrrzs    0, 2            ;"M8   ""
014306:  305100001050  caige    2, 1050         ;"8I  (H"
014307:  254000410314  jrst     410314          ;"5@ A#,"
014310:  550042000000  hrrz     1, (2)          ;"M B   "
014311:  271040000000  addi     1, 0            ;"7(@   " ".\"\0\0\0"
014312:  542042000000  hrrm     1, (2)          ;"L0B   "
014313:  350000001072  aos      0, 1072         ;"=   (Z"
014314:  200110000000  move     2, (10)         ;"0!(   "
014315:  250350000000  exch     7, (10)         ;"5#H   "
014316:  250340000010  exch     7, 10           ;"5#@  ("
014317:  260000413250  pushj    0, 413250       ;"6  A:H"
014320:  367300410314  sojg     6, 410314       ;">[ A#,"
014321:  200100000620  move     2, 620          ;"0!  &0"
014322:  550300000620  hrrz     6, 620          ;"M#  &0"
014323:  305300001050  caige    6, 1050         ;"8K  (H"
014324:  254000410332  jrst     410332          ;"5@ A#:"
014325:  550042000000  hrrz     1, (2)          ;"M B   "
014326:  275040000000  subi     1, 0            ;"7H@   " "/\"\0\0\0"
014327:  542042000000  hrrm     1, (2)          ;"L0B   "
014330:  326040410332  jumpn    1, 410332       ;":P@A#:"
014331:  621100776000  tlz      2, 776000       ;"R) _P "
014332:  254000407710  jrst     407710          ;"5@ @_("
014333:  504240000004  hrl      5, 4            ;"HB@  $"
014334:  540240417054  hrr      5, 417054       ;"L"@AXL"
014335:  377000001072  sosg     0, 1072         ;"?X  (Z"
014336:  260000403716  pushj    0, 403716       ;"6  @?."
014337:  202247000000  movem    5, (7)          ;"02G   " " J8\0\0"
014340:  250447000000  exch     11, (7)         ;"5$G   "
014341:  250340000010  exch     7, 10           ;"5#@  ("
014342:  377000001072  sosg     0, 1072         ;"?X  (Z"
014343:  260000403716  pushj    0, 403716       ;"6  @?."
014344:  202707000000  movem    16, (7)         ;"07'   " " \\8\0\0"
014345:  250447000000  exch     11, (7)         ;"5$G   "
014346:  250340000010  exch     7, 10           ;"5#@  ("
014347:  377000001072  sosg     0, 1072         ;"?X  (Z"
014350:  260000403716  pushj    0, 403716       ;"6  @?."
014351:  202107000000  movem    2, (7)          ;"01'   " " D8\0\0"
014352:  250447000000  exch     11, (7)         ;"5$G   "
014353:  250340000010  exch     7, 10           ;"5#@  ("
014354:  550700000016  hrrz     16, 16          ;"M'   ."
014355:  265240407620  jsp      5, 407620       ;"6J@@^0"
014356:  270700417046  add      16, 417046      ;"7' AXF"
014357:  316740420650  camn     17, 420650      ;"9W@B&H"
014360:  254000410356  jrst     410356          ;"5@ A#N"
014361:  316756421060  camn     17, 421060(16)  ;"9WNB(P"
014362:  254000410366  jrst     410366          ;"5@ A#V"
014363:  603700777776  tlne     16, 777776      ;"P? __^"
014364:  260000404100  pushj    0, 404100       ;"6  @A "
014365:  265240411506  jsp      5, 411506       ;"6J@A-&"
014366:  556700000664  hlrzm    16, 664         ;"MW  &T"
014367:  350000001072  aos      0, 1072         ;"=   (Z"
014370:  200111000000  move     2, (11)         ;"0!)   "
014371:  250351000000  exch     7, (11)         ;"5#I   "
014372:  250340000010  exch     7, 10           ;"5#@  ("
014373:  350000001072  aos      0, 1072         ;"=   (Z"
014374:  200711000000  move     16, (11)        ;"0')   "
014375:  250351000000  exch     7, (11)         ;"5#I   "
014376:  250340000010  exch     7, 10           ;"5#@  ("
014377:  350000001072  aos      0, 1072         ;"=   (Z"
014400:  200251000000  move     5, (11)         ;"0"I   " " \nH\0\0"
014401:  250351000000  exch     7, (11)         ;"5#I   "
014402:  250340000010  exch     7, 10           ;"5#@  ("
014403:  544240000004  hlr      5, 4            ;"LB@  $"
014404:  254005000000  jrst     (5)             ;"5@%   "
014405:  504240000004  hrl      5, 4            ;"HB@  $"
014406:  540240417054  hrr      5, 417054       ;"L"@AXL"
014407:  377000001072  sosg     0, 1072         ;"?X  (Z"
014410:  260000403716  pushj    0, 403716       ;"6  @?."
014411:  202247000000  movem    5, (7)          ;"02G   " " J8\0\0"
014412:  250447000000  exch     11, (7)         ;"5$G   "
014413:  250340000010  exch     7, 10           ;"5#@  ("
014414:  265240410334  jsp      5, 410334       ;"6J@A#<"
014415:  200240000664  move     5, 664          ;"0"@ &T"
014416:  306240000000  cain     5, 0            ;"8R@   " "1J\0\0\0"
014417:  254000410440  jrst     410440          ;"5@ A$@"
014420:  550200000010  hrrz     4, 10           ;"M"   ("
014421:  200300000004  move     6, 4            ;"0#   $"
014422:  550206000000  hrrz     4, (6)          ;"M"&   "
014423:  367200410422  sojg     4, 410422       ;">Z A$2"
014424:  250200000010  exch     4, 10           ;"5"   ("
014425:  553006000000  hrrzs    0, (6)          ;"M8&   " "Z`0\0\0"
014426:  504200417030  hrl      4, 417030       ;"HB AX8"
014427:  514300000664  hrlz     6, 664          ;"IC  &T"
014430:  240300000004  ash      6, 4            ;"4#   $"
014431:  434200000006  or       4, 6            ;"CB   &"
014432:  377000001072  sosg     0, 1072         ;"?X  (Z"
014433:  260000404140  pushj    0, 404140       ;"6  @A@"
014434:  202207000000  movem    4, (7)          ;"02'   " " H8\0\0"
014435:  250407000000  exch     10, (7)         ;"5$'   "
014436:  250340000010  exch     7, 10           ;"5#@  ("
014437:  350000001072  aos      0, 1072         ;"=   (Z"
014440:  200251000000  move     5, (11)         ;"0"I   " " \nH\0\0"
014441:  250351000000  exch     7, (11)         ;"5#I   "
014442:  250340000010  exch     7, 10           ;"5#@  ("
014443:  544240000004  hlr      5, 4            ;"LB@  $"
014444:  254005000000  jrst     (5)             ;"5@%   "
014445:  200100001120  move     2, 1120         ;"0!  )0"
014446:  504740000004  hrl      17, 4           ;"HG@  $"
014447:  540740417054  hrr      17, 417054      ;"L'@AXL"
014450:  265240412444  jsp      5, 412444       ;"6J@A4D"
014451:  607740777776  tlnn     17, 777776      ;"P_@__^"
014452:  254000410456  jrst     410456          ;"5@ A$N"
014453:  202100001120  movem    2, 1120         ;"01  )0"
014454:  254000410524  jrst     410524          ;"5@ A%4"
014455:  270700417046  add      16, 417046      ;"7' AXF"
014456:  200100000016  move     2, 16           ;"0!   ."
014457:  260000412502  pushj    0, 412502       ;"6  A5""
014460:  254000410532  jrst     410532          ;"5@ A%:"
014461:  265240410334  jsp      5, 410334       ;"6J@A#<"
014462:  202100000632  movem    2, 632          ;"01  &:"
014463:  260000412700  pushj    0, 412700       ;"6  A7 "
014464:  514100417012  hrlz     2, 417012       ;"IA AX*"
014465:  550200000664  hrrz     4, 664          ;"M"  &T"
014466:  313200417076  camle    4, 417076       ;"9: AX^"
014467:  260000404142  pushj    0, 404142       ;"6  @AB"
014470:  200044000664  move     1, 664(4)       ;"0 D &T"
014471:  377000001072  sosg     0, 1072         ;"?X  (Z"
014472:  260000404140  pushj    0, 404140       ;"6  @A@"
014473:  202047000000  movem    1, (7)          ;"00G   " " B8\0\0"
014474:  250107000000  exch     2, (7)          ;"5!'   "
014475:  250340000002  exch     7, 2            ;"5#@  ""
014476:  504100417012  hrl      2, 417012       ;"HA AX*"
014477:  367200410470  sojg     4, 410470       ;">Z A$X"
014500:  504040000664  hrl      1, 664          ;"H@@ &T"
014501:  540040000632  hrr      1, 632          ;"L @ &:"
014502:  377000001072  sosg     0, 1072         ;"?X  (Z"
014503:  260000404140  pushj    0, 404140       ;"6  @A@"
014504:  202047000000  movem    1, (7)          ;"00G   " " B8\0\0"
014505:  250107000000  exch     2, (7)          ;"5!'   "
014506:  250340000002  exch     7, 2            ;"5#@  ""
014507:  504100417012  hrl      2, 417012       ;"HA AX*"
014510:  265240412204  jsp      5, 412204       ;"6J@A2$"
014511:  544240000016  hlr      5, 16           ;"LB@  ."
014512:  350000001072  aos      0, 1072         ;"=   (Z"
014513:  200711000000  move     16, (11)        ;"0')   "
014514:  250351000000  exch     7, (11)         ;"5#I   "
014515:  250340000010  exch     7, 10           ;"5#@  ("
014516:  377000001072  sosg     0, 1072         ;"?X  (Z"
014517:  260000404140  pushj    0, 404140       ;"6  @A@"
014520:  202107000000  movem    2, (7)          ;"01'   " " D8\0\0"
014521:  250407000000  exch     10, (7)         ;"5$'   "
014522:  250340000010  exch     7, 10           ;"5#@  ("
014523:  254005000000  jrst     (5)             ;"5@%   "
014524:  544240000016  hlr      5, 16           ;"LB@  ."
014525:  350000001072  aos      0, 1072         ;"=   (Z"
014526:  200711000000  move     16, (11)        ;"0')   "
014527:  250351000000  exch     7, (11)         ;"5#I   "
014530:  250340000010  exch     7, 10           ;"5#@  ("
014531:  254005000000  jrst     (5)             ;"5@%   "
014532:  550040000002  hrrz     1, 2            ;"M @  ""
014533:  514100417012  hrlz     2, 417012       ;"IA AX*"
014534:  254000410502  jrst     410502          ;"5@ A%""
014535:  504740000004  hrl      17, 4           ;"HG@  $"
014536:  540740417054  hrr      17, 417054      ;"L'@AXL"
014537:  377000001072  sosg     0, 1072         ;"?X  (Z"
014540:  260000403716  pushj    0, 403716       ;"6  @?."
014541:  202707000000  movem    16, (7)         ;"07'   " " \\8\0\0"
014542:  250447000000  exch     11, (7)         ;"5$G   "
014543:  250340000010  exch     7, 10           ;"5#@  ("
014544:  200700000016  move     16, 16          ;"0'   ."
014545:  265240410446  jsp      5, 410446       ;"6J@A$F"
014546:  260000404100  pushj    0, 404100       ;"6  @A "
014547:  312740420616  came     17, 420616      ;"97@B&."
014550:  260000404100  pushj    0, 404100       ;"6  @A "
014551:  514100417014  hrlz     2, 417014       ;"IA AX,"
014552:  377000001072  sosg     0, 1072         ;"?X  (Z"
014553:  260000403716  pushj    0, 403716       ;"6  @?."
014554:  202107000000  movem    2, (7)          ;"01'   " " D8\0\0"
014555:  250407000000  exch     10, (7)         ;"5$'   "
014556:  250340000010  exch     7, 10           ;"5#@  ("
014557:  265240407620  jsp      5, 407620       ;"6J@@^0"
014560:  254000410562  jrst     410562          ;"5@ A%R"
014561:  265240407620  jsp      5, 407620       ;"6J@@^0"
014562:  260000412730  pushj    0, 412730       ;"6  A78"
014563:  554200000016  hlrz     4, 16           ;"MB   ."
014564:  302200000002  caie     4, 2            ;"82   ""
014565:  254000410626  jrst     410626          ;"5@ A&6"
014566:  265240410334  jsp      5, 410334       ;"6J@A#<"
014567:  372000000664  sose     0, 664          ;"?0  &T"
014570:  260000404100  pushj    0, 404100       ;"6  @A "
014571:  265240407620  jsp      5, 407620       ;"6J@@^0"
014572:  265240412472  jsp      5, 412472       ;"6J@A4Z"
014573:  260000417146  pushj    0, 417146       ;"6  AYF"
014574:  265240412452  jsp      5, 412452       ;"6J@A4J"
014575:  260000417146  pushj    0, 417146       ;"6  AYF"
014576:  202040000632  movem    1, 632          ;"00@ &:"
014577:  202140000634  movem    3, 634          ;"01@ &<"
014600:  544110000000  hlr      2, (10)         ;"LA(   "
014601:  200042000000  move     1, (2)          ;"0 B   "
014602:  554142000000  hlrz     3, (2)          ;"MAB   "
014603:  312140417042  came     3, 417042       ;"91@AXB"
014604:  254000410610  jrst     410610          ;"5@ A&("
014605:  260000417146  pushj    0, 417146       ;"6  AYF"
014606:  400140000000  setz     3,              ;"@!@   "
014607:  260000412564  pushj    0, 412564       ;"6  A5T"
014610:  264000001004  jsr      1004            ;"6@  ($"
014611:  322100410564  jumpe    2, 410564       ;":1 A%T"
014612:  430100000632  xor      2, 632          ;"C!  &:"
014613:  607100400000  tlnn     2, 400000       ;"PY @  "
014614:  260000404164  pushj    0, 404164       ;"6  @AT"
014615:  200040000632  move     1, 632          ;"0 @ &:"
014616:  200140000634  move     3, 634          ;"0!@ &<"
014617:  326040410622  jumpn    1, 410622       ;":P@A&2"
014620:  260000404164  pushj    0, 404164       ;"6  @AT"
014621:  260000412732  pushj    0, 412732       ;"6  A7:"
014622:  200040000004  move     1, 4            ;"0 @  $"
014623:  200140000006  move     3, 6            ;"0!@  &"
014624:  260000412732  pushj    0, 412732       ;"6  A7:"
014625:  254000410564  jrst     410564          ;"5@ A%T"
014626:  554210000000  hlrz     4, (10)         ;"MB(   "
014627:  515300400000  hrlzi    6, 400000       ;"IK @  "
014630:  437304000000  orb      6, (4)          ;"C[$   " "Gl \0\0"
014631:  554300000006  hlrz     6, 6            ;"MC   &"
014632:  620300400000  trz      6, 400000       ;"R# @  "
014633:  316300417042  camn     6, 417042       ;"9S AXB"
014634:  260000417166  pushj    0, 417166       ;"6  AYV"
014635:  316740420650  camn     17, 420650      ;"9W@B&H"
014636:  254000410562  jrst     410562          ;"5@ A%R"
014637:  200200000010  move     4, 10           ;"0"   ("
014640:  550410000000  hrrz     10, (10)        ;"M$(   "
014641:  200310000000  move     6, (10)         ;"0#(   " " \f@\0\0"
014642:  506304000000  hrlm     6, (4)          ;"HS$   " "QL \0\0"
014643:  542210000000  hrrm     4, (10)         ;"L2(   " "XH@\0\0"
014644:  200200417014  move     4, 417014       ;"0" AX,"
014645:  506210000000  hrlm     4, (10)         ;"HR(   " "QH@\0\0"
014646:  544240000016  hlr      5, 16           ;"LB@  ."
014647:  350000001072  aos      0, 1072         ;"=   (Z"
014650:  200711000000  move     16, (11)        ;"0')   "
014651:  250351000000  exch     7, (11)         ;"5#I   "
014652:  250340000010  exch     7, 10           ;"5#@  ("
014653:  254005000000  jrst     (5)             ;"5@%   "
014654:  552240001302  hrrzm    5, 1302         ;"M2@ +""
014655:  265240412204  jsp      5, 412204       ;"6J@A2$"
014656:  554040000016  hlrz     1, 16           ;"M@@  ."
014657:  316740420740  camn     17, 420740      ;"9W@B'@"
014660:  254000410720  jrst     410720          ;"5@ A'0"
014661:  316740420740  camn     17, 420740      ;"9W@B'@"
014662:  254000410720  jrst     410720          ;"5@ A'0"
014663:  254020001302  jrst     @1302           ;"5@0 +""
014664:  552240001302  hrrzm    5, 1302         ;"M2@ +""
014665:  265240412204  jsp      5, 412204       ;"6J@A2$"
014666:  554040000016  hlrz     1, 16           ;"M@@  ."
014667:  316040417022  camn     1, 417022       ;"9P@AX2"
014670:  254000410674  jrst     410674          ;"5@ A&\"
014671:  200240001302  move     5, 1302         ;"0"@ +""
014672:  254005000000  jrst     (5)             ;"5@%   "
014673:  552740000660  hrrzm    17, 660         ;"M7@ &P"
014674:  265240412204  jsp      5, 412204       ;"6J@A2$"
014675:  312740420630  came     17, 420630      ;"97@B&8"
014676:  254000410672  jrst     410672          ;"5@ A&Z"
014677:  326200410672  jumpn    4, 410672       ;":R A&Z"
014700:  265240412204  jsp      5, 412204       ;"6J@A2$"
014701:  312740420766  came     17, 420766      ;"97@B'V"
014702:  254000410672  jrst     410672          ;"5@ A&Z"
014703:  326200410672  jumpn    4, 410672       ;":R A&Z"
014704:  265240412204  jsp      5, 412204       ;"6J@A2$"
014705:  254020001302  jrst     @1302           ;"5@0 +""
014706:  552240001302  hrrzm    5, 1302         ;"M2@ +""
014707:  265240412204  jsp      5, 412204       ;"6J@A2$"
014710:  554040000016  hlrz     1, 16           ;"M@@  ."
014711:  316740420754  camn     17, 420754      ;"9W@B'L"
014712:  254000411062  jrst     411062          ;"5@ A(R"
014713:  316040417022  camn     1, 417022       ;"9P@AX2"
014714:  254000410720  jrst     410720          ;"5@ A'0"
014715:  316040417024  camn     1, 417024       ;"9P@AX4"
014716:  254000410720  jrst     410720          ;"5@ A'0"
014717:  254020001302  jrst     @1302           ;"5@0 +""
014720:  403140000660  setzb    3, 660          ;"@9@ &P"
014721:  402000000660  setzm    660             ;"@0  &P"
014722:  402000000662  setzm    662             ;"@0  &R"
014723:  316040417022  camn     1, 417022       ;"9P@AX2"
014724:  254000410742  jrst     410742          ;"5@ A'B"
014725:  265240412204  jsp      5, 412204       ;"6J@A2$"
014726:  316740001122  camn     17, 1122        ;"9W@ )2"
014727:  254000411026  jrst     411026          ;"5@ A(6"
014730:  316740420650  camn     17, 420650      ;"9W@B&H"
014731:  254000411026  jrst     411026          ;"5@ A(6"
014732:  326200410734  jumpn    4, 410734       ;":R A'<"
014733:  260000404100  pushj    0, 404100       ;"6  @A "
014734:  554040000016  hlrz     1, 16           ;"M@@  ."
014735:  312040417022  came     1, 417022       ;"90@AX2"
014736:  254000411026  jrst     411026          ;"5@ A(6"
014737:  542740000660  hrrm     17, 660         ;"L7@ &P"
014740:  265240412204  jsp      5, 412204       ;"6J@A2$"
014741:  254000411026  jrst     411026          ;"5@ A(6"
014742:  270740417070  add      17, 417070      ;"7'@AXX"
014743:  542740000660  hrrm     17, 660         ;"L7@ &P"
014744:  550740000016  hrrz     17, 16          ;"M'@  ."
014745:  274740417070  sub      17, 417070      ;"7G@AXX"
014746:  303740000002  caile    17, 2           ;"8?@  ""
014747:  260000404100  pushj    0, 404100       ;"6  @A "
014750:  200300001120  move     6, 1120         ;"0#  )0"
014751:  265240412204  jsp      5, 412204       ;"6J@A2$"
014752:  326200410754  jumpn    4, 410754       ;":R A'L"
014753:  260000404100  pushj    0, 404100       ;"6  @A "
014754:  554140000016  hlrz     3, 16           ;"MA@  ."
014755:  312140417016  came     3, 417016       ;"91@AX."
014756:  254000410776  jrst     410776          ;"5@ A'^"
014757:  200040000620  move     1, 620          ;"0 @ &0"
014760:  200140000620  move     3, 620          ;"0!@ &0"
014761:  265240412204  jsp      5, 412204       ;"6J@A2$"
014762:  135100417130  ldb      2, 417130       ;"+I AY8"
014763:  312100417020  came     2, 417020       ;"91 AX0"
014764:  254000410770  jrst     410770          ;"5@ A'X"
014765:  326200410774  jumpn    4, 410774       ;":R A'\"
014766:  260000404100  pushj    0, 404100       ;"6  @A "
014767:  316740420650  camn     17, 420650      ;"9W@B&H"
014770:  254000410774  jrst     410774          ;"5@ A'\"
014771:  312740001122  came     17, 1122        ;"97@ )2"
014772:  254000410776  jrst     410776          ;"5@ A'^"
014773:  325040411020  jumpge   1, 411020       ;":H@A(0"
014774:  260000404166  pushj    0, 404166       ;"6  @AV"
014775:  550100000660  hrrz     2, 660          ;"M!  &P"
014776:  504100417016  hrl      2, 417016       ;"HA AX."
014777:  137100417144  dpb      2, 417144       ;"+Y AYD"
015000:  510100000002  hllz     2, 2            ;"I!   ""
015001:  377000001072  sosg     0, 1072         ;"?X  (Z"
015002:  260000403716  pushj    0, 403716       ;"6  @?."
015003:  202107000000  movem    2, (7)          ;"01'   " " D8\0\0"
015004:  250407000000  exch     10, (7)         ;"5$'   "
015005:  250340000010  exch     7, 10           ;"5#@  ("
015006:  202300001120  movem    6, 1120         ;"03  )0"
015007:  265240407620  jsp      5, 407620       ;"6J@@^0"
015010:  265240412452  jsp      5, 412452       ;"6J@A4J"
015011:  260000417146  pushj    0, 417146       ;"6  AYF"
015012:  350000001072  aos      0, 1072         ;"=   (Z"
015013:  200110000000  move     2, (10)         ;"0!(   "
015014:  250350000000  exch     7, (10)         ;"5#H   "
015015:  250340000010  exch     7, 10           ;"5#@  ("
015016:  135100417144  ldb      2, 417144       ;"+I AYD"
015017:  202100000660  movem    2, 660          ;"01  &P"
015020:  202040000660  movem    1, 660          ;"00@ &P"
015021:  202140000662  movem    3, 662          ;"01@ &R"
015022:  260000413324  pushj    0, 413324       ;"6  A;4"
015023:  260000404220  pushj    0, 404220       ;"6  @B0"
015024:  260000404210  pushj    0, 404210       ;"6  @B("
015025:  200240001302  move     5, 1302         ;"0"@ +""
015026:  254005000000  jrst     (5)             ;"5@%   "
015027:  552240001304  hrrzm    5, 1304         ;"M2@ +$"
015030:  200100001120  move     2, 1120         ;"0!  )0"
015031:  265240410706  jsp      5, 410706       ;"6J@A'&"
015032:  254000411060  jrst     411060          ;"5@ A(P"
015033:  540100000660  hrr      2, 660          ;"L!  &P"
015034:  504100417016  hrl      2, 417016       ;"HA AX."
015035:  137100417144  dpb      2, 417144       ;"+Y AYD"
015036:  510100000002  hllz     2, 2            ;"I!   ""
015037:  336000000660  skipn    0, 660          ;";P  &P"
015040:  254000411052  jrst     411052          ;"5@ A(J"
015041:  200040000660  move     1, 660          ;"0 @ &P"
015042:  514140000662  hrlz     3, 662          ;"IA@ &R"
015043:  377000001072  sosg     0, 1072         ;"?X  (Z"
015044:  260000403716  pushj    0, 403716       ;"6  @?."
015045:  202047000000  movem    1, (7)          ;"00G   " " B8\0\0"
015046:  250147000000  exch     3, (7)          ;"5!G   "
015047:  250340000002  exch     7, 2            ;"5#@  ""
015050:  540100000002  hrr      2, 2            ;"L!   ""
015051:  377000001072  sosg     0, 1072         ;"?X  (Z"
015052:  260000404140  pushj    0, 404140       ;"6  @A@"
015053:  202107000000  movem    2, (7)          ;"01'   " " D8\0\0"
015054:  250407000000  exch     10, (7)         ;"5$'   "
015055:  250340000010  exch     7, 10           ;"5#@  ("
015056:  200240001304  move     5, 1304         ;"0"@ +$"
015057:  254005000000  jrst     (5)             ;"5@%   "
015060:  202100001120  movem    2, 1120         ;"01  )0"
015061:  254020001304  jrst     @1304           ;"5@0 +$"
015062:  265240412204  jsp      5, 412204       ;"6J@A2$"
015063:  603740777776  tlne     17, 777776      ;"P?@__^"
015064:  260000404100  pushj    0, 404100       ;"6  @A "
015065:  552740000660  hrrzm    17, 660         ;"M7@ &P"
015066:  200117000000  move     2, (17)         ;"0!/   "
015067:  554057000000  hlrz     1, (17)         ;"M@O   "
015070:  312040001130  came     1, 1130         ;"90@ )8"
015071:  260000404102  pushj    0, 404102       ;"6  @A""
015072:  135040417126  ldb      1, 417126       ;"+H@AY6"
015073:  316040417010  camn     1, 417010       ;"9P@AX("
015074:  260000404102  pushj    0, 404102       ;"6  @A""
015075:  312040417006  came     1, 417006       ;"90@AX&"
015076:  260000404100  pushj    0, 404100       ;"6  @A "
015077:  265240412204  jsp      5, 412204       ;"6J@A2$"
015100:  201100000012  movei    2, 12           ;"0)   *"
015101:  202100000660  movem    2, 660          ;"01  &P"
015102:  200240001302  move     5, 1302         ;"0"@ +""
015103:  254005000000  jrst     (5)             ;"5@%   "
015104:  552240001302  hrrzm    5, 1302         ;"M2@ +""
015105:  261000001120  push     0, 1120         ;"6(  )0"
015106:  265240412204  jsp      5, 412204       ;"6J@A2$"
015107:  603740777776  tlne     17, 777776      ;"P?@__^"
015110:  260000404100  pushj    0, 404100       ;"6  @A "
015111:  200117000000  move     2, (17)         ;"0!/   "
015112:  554317000000  hlrz     6, (17)         ;"MC/   " "[\fx\0\0"
015113:  312300001130  came     6, 1130         ;"93  )8"
015114:  260000404102  pushj    0, 404102       ;"6  @A""
015115:  135300417126  ldb      6, 417126       ;"+K AY6"
015116:  316300417010  camn     6, 417010       ;"9S AX("
015117:  260000404102  pushj    0, 404102       ;"6  @A""
015120:  202740000624  movem    17, 624         ;"07@ &4"
015121:  313300417006  camle    6, 417006       ;"9; AX&"
015122:  260000404100  pushj    0, 404100       ;"6  @A "
015123:  254006411124  jrst     411124(6)       ;"5@&A)4"
015124:  254000411130  jrst     411130          ;"5@ A)8"
015125:  254000411130  jrst     411130          ;"5@ A)8"
015126:  254000411142  jrst     411142          ;"5@ A)B"
015127:  265240412204  jsp      5, 412204       ;"6J@A2$"
015130:  540100000624  hrr      2, 624          ;"L!  &4"
015131:  504100417030  hrl      2, 417030       ;"HA AX8"
015132:  377000001072  sosg     0, 1072         ;"?X  (Z"
015133:  260000403716  pushj    0, 403716       ;"6  @?."
015134:  202107000000  movem    2, (7)          ;"01'   " " D8\0\0"
015135:  250407000000  exch     10, (7)         ;"5$'   "
015136:  250340000010  exch     7, 10           ;"5#@  ("
015137:  262000000002  pop      0, 2            ;"60   ""
015140:  254020001302  jrst     @1302           ;"5@0 +""
015141:  262000001120  pop      0, 1120         ;"60  )0"
015142:  265240410446  jsp      5, 410446       ;"6J@A$F"
015143:  260000404100  pushj    0, 404100       ;"6  @A "
015144:  261000000016  push     0, 16           ;"6(   ."
015145:  200050000000  move     1, (10)         ;"0 H   "
015146:  260000414500  pushj    0, 414500       ;"6  AE "
015147:  200050000000  move     1, (10)         ;"0 H   "
015150:  200041000000  move     1, (1)          ;"0 A   "
015151:  552040000624  hrrzm    1, 624          ;"M0@ &4"
015152:  200101000000  move     2, (1)          ;"0!!   "
015153:  202100000624  movem    2, 624          ;"01  &4"
015154:  336000000664  skipn    0, 664          ;";P  &T"
015155:  254000411200  jrst     411200          ;"5@ A* "
015156:  554302000000  hlrz     6, (2)          ;"MC"   "
015157:  312300000664  came     6, 664          ;"93  &T"
015160:  260000404110  pushj    0, 404110       ;"6  @A("
015161:  260000412516  pushj    0, 412516       ;"6  A5."
015162:  260000404110  pushj    0, 404110       ;"6  @A("
015163:  200740001120  move     17, 1120        ;"0'@ )0"
015164:  306740000004  cain     17, 4           ;"8W@  $"
015165:  254000411200  jrst     411200          ;"5@ A* "
015166:  200042000000  move     1, (2)          ;"0 B   "
015167:  544142000000  hlr      3, (2)          ;"LAB   "
015170:  260000412570  pushj    0, 412570       ;"6  A5X"
015171:  250110000000  exch     2, (10)         ;"5!(   "
015172:  377000001072  sosg     0, 1072         ;"?X  (Z"
015173:  260000404140  pushj    0, 404140       ;"6  @A@"
015174:  202107000000  movem    2, (7)          ;"01'   " " D8\0\0"
015175:  250407000000  exch     10, (7)         ;"5$'   "
015176:  250340000010  exch     7, 10           ;"5#@  ("
015177:  262000000016  pop      0, 16           ;"60   ."
015200:  254020001302  jrst     @1302           ;"5@0 +""
015201:  260000412502  pushj    0, 412502       ;"6  A5""
015202:  254000407654  jrst     407654          ;"5@ @^L"
015203:  377000001072  sosg     0, 1072         ;"?X  (Z"
015204:  260000403716  pushj    0, 403716       ;"6  @?."
015205:  202707000000  movem    16, (7)         ;"07'   " " \\8\0\0"
015206:  250447000000  exch     11, (7)         ;"5$G   "
015207:  250340000010  exch     7, 10           ;"5#@  ("
015210:  504700000002  hrl      16, 2           ;"HG   ""
015211:  540700000016  hrr      16, 16          ;"L'   ."
015212:  200100001120  move     2, 1120         ;"0!  )0"
015213:  554040000016  hlrz     1, 16           ;"M@@  ."
015214:  302040000004  caie     1, 4            ;"80@  $"
015215:  254000411224  jrst     411224          ;"5@ A*4"
015216:  377000001072  sosg     0, 1072         ;"?X  (Z"
015217:  260000403716  pushj    0, 403716       ;"6  @?."
015220:  202107000000  movem    2, (7)          ;"01'   " " D8\0\0"
015221:  250447000000  exch     11, (7)         ;"5$G   "
015222:  250340000010  exch     7, 10           ;"5#@  ("
015223:  254000411276  jrst     411276          ;"5@ A*^"
015224:  265240412204  jsp      5, 412204       ;"6J@A2$"
015225:  607740777776  tlnn     17, 777776      ;"P_@__^"
015226:  254000411232  jrst     411232          ;"5@ A*:"
015227:  202100001120  movem    2, 1120         ;"01  )0"
015230:  254000411262  jrst     411262          ;"5@ A*R"
015231:  260000412502  pushj    0, 412502       ;"6  A5""
015232:  254000411256  jrst     411256          ;"5@ A*N"
015233:  200040000016  move     1, 16           ;"0 @  ."
015234:  201140000000  movei    3, 0            ;"0)@   " " &\0\0\0"
015235:  265240412204  jsp      5, 412204       ;"6J@A2$"
015236:  316740001122  camn     17, 1122        ;"9W@ )2"
015237:  260000404100  pushj    0, 404100       ;"6  @A "
015240:  316740420654  camn     17, 420654      ;"9W@B&L"
015241:  260000404100  pushj    0, 404100       ;"6  @A "
015242:  135300417130  ldb      6, 417130       ;"+K AY8"
015243:  302300000002  caie     6, 2            ;"83   ""
015244:  254000411246  jrst     411246          ;"5@ A*F"
015245:  344140411236  aoja     3, 411236       ;"<A@A*>"
015246:  302300000010  caie     6, 10           ;"83   ("
015247:  254000411236  jrst     411236          ;"5@ A*>"
015250:  602740777776  trne     17, 777776      ;"P7@__^"
015251:  254000411236  jrst     411236          ;"5@ A*>"
015252:  367140411236  sojg     3, 411236       ;">Y@A*>"
015253:  312741421060  came     17, 421060(1)   ;"97AB(P"
015254:  260000404100  pushj    0, 404100       ;"6  @A "
015255:  265240412204  jsp      5, 412204       ;"6J@A2$"
015256:  202100001120  movem    2, 1120         ;"01  )0"
015257:  316740420616  camn     17, 420616      ;"9W@B&."
015260:  254000411276  jrst     411276          ;"5@ A*^"
015261:  540740000016  hrr      17, 16          ;"L'@  ."
015262:  505740000010  hrli     17, 10          ;"HO@  ("
015263:  554100000016  hlrz     2, 16           ;"MA   ."
015264:  242100000000  lsh      2, 0            ;"41    " "(D\0\0\0"
015265:  271100000030  addi     2, 30           ;"7)   8"
015266:  504100417010  hrl      2, 417010       ;"HA AX("
015267:  350000001072  aos      0, 1072         ;"=   (Z"
015270:  200711000000  move     16, (11)        ;"0')   "
015271:  250351000000  exch     7, (11)         ;"5#I   "
015272:  250340000010  exch     7, 10           ;"5#@  ("
015273:  265240410334  jsp      5, 410334       ;"6J@A#<"
015274:  202100000624  movem    2, 624          ;"01  &4"
015275:  254000410132  jrst     410132          ;"5@ A!:"
015276:  265240410536  jsp      5, 410536       ;"6J@A%>"
015277:  312740420652  came     17, 420652      ;"97@B&J"
015300:  260000404100  pushj    0, 404100       ;"6  @A "
015301:  540110000000  hrr      2, (10)         ;"L!(   "
015302:  544102000000  hlr      2, (2)          ;"LA"   "
015303:  550102000000  hrrz     2, (2)          ;"M!"   "
015304:  350000001124  aos      0, 1124         ;"=   )4"
015305:  260000412612  pushj    0, 412612       ;"6  A6*"
015306:  504100417012  hrl      2, 417012       ;"HA AX*"
015307:  250110000000  exch     2, (10)         ;"5!(   "
015310:  377000001072  sosg     0, 1072         ;"?X  (Z"
015311:  260000404140  pushj    0, 404140       ;"6  @A@"
015312:  202107000000  movem    2, (7)          ;"01'   " " D8\0\0"
015313:  250407000000  exch     10, (7)         ;"5$'   "
015314:  250340000010  exch     7, 10           ;"5#@  ("
015315:  200100001120  move     2, 1120         ;"0!  )0"
015316:  200240001130  move     5, 1130         ;"0"@ )8"
015317:  500240000016  hll      5, 16           ;"H"@  ."
015320:  377000001072  sosg     0, 1072         ;"?X  (Z"
015321:  260000403716  pushj    0, 403716       ;"6  @?."
015322:  202107000000  movem    2, (7)          ;"01'   " " D8\0\0"
015323:  250247000000  exch     5, (7)          ;"5"G   " "*\n8\0\0"
015324:  250340000004  exch     7, 4            ;"5#@  $"
015325:  552240001130  hrrzm    5, 1130         ;"M2@ )8"
015326:  200250000000  move     5, (10)         ;"0"H   " " \n@\0\0"
015327:  552240000650  hrrzm    5, 650          ;"M2@ &H"
015330:  554040000016  hlrz     1, 16           ;"M@@  ."
015331:  256001411440  xct      411440(1)       ;"5P!A,@"
015332:  256001411444  xct      411444(1)       ;"5P!A,D"
015333:  260000412016  pushj    0, 412016       ;"6  A0."
015334:  377000001072  sosg     0, 1072         ;"?X  (Z"
015335:  260000404140  pushj    0, 404140       ;"6  @A@"
015336:  202107000000  movem    2, (7)          ;"01'   " " D8\0\0"
015337:  250407000000  exch     10, (7)         ;"5$'   "
015340:  250340000010  exch     7, 10           ;"5#@  ("
015341:  200100000650  move     2, 650          ;"0!  &H"
015342:  260000414462  pushj    0, 414462       ;"6  ADR"
015343:  336000000636  skipn    0, 636          ;";P  &>"
015344:  260000417146  pushj    0, 417146       ;"6  AYF"
015345:  554040000016  hlrz     1, 16           ;"M@@  ."
015346:  302040000004  caie     1, 4            ;"80@  $"
015347:  254000411356  jrst     411356          ;"5@ A+N"
015350:  200150000000  move     3, (10)         ;"0!H   "
015351:  200040000640  move     1, 640          ;"0 @ &@"
015352:  202043000000  movem    1, (3)          ;"00C   "
015353:  200040000640  move     1, 640          ;"0 @ &@"
015354:  506043000000  hrlm     1, (3)          ;"HPC   "
015355:  260000413042  pushj    0, 413042       ;"6  A8B"
015356:  260000403720  pushj    0, 403720       ;"6  @?0"
015357:  200240001130  move     5, 1130         ;"0"@ )8"
015360:  200245000000  move     5, (5)          ;"0"E   " " \n(\0\0"
015361:  202240001120  movem    5, 1120         ;"02@ )0"
015362:  265240404676  jsp      5, 404676       ;"6J@@F^"
015363:  000000000006                           ;"     &"
015364:  265240407620  jsp      5, 407620       ;"6J@@^0"
015365:  312756421060  came     17, 421060(16)  ;"97NB(P"
015366:  260000404100  pushj    0, 404100       ;"6  @A "
015367:  200110000000  move     2, (10)         ;"0!(   "
015370:  200102000000  move     2, (2)          ;"0!"   "
015371:  200102000000  move     2, (2)          ;"0!"   "
015372:  552100000650  hrrzm    2, 650          ;"M1  &H"
015373:  260000413430  pushj    0, 413430       ;"6  A<8"
015374:  554100000016  hlrz     2, 16           ;"MA   ."
015375:  306100000004  cain     2, 4            ;"8Q   $"
015376:  254000411466  jrst     411466          ;"5@ A,V"
015377:  265240412472  jsp      5, 412472       ;"6J@A4Z"
015400:  260000417146  pushj    0, 417146       ;"6  AYF"
015401:  265240412452  jsp      5, 412452       ;"6J@A4J"
015402:  260000417146  pushj    0, 417146       ;"6  AYF"
015403:  554100000016  hlrz     2, 16           ;"MA   ."
015404:  256002411452  xct      411452(2)       ;"5P"A,J"
015405:  550220000650  hrrz     4, @650         ;"M"0 &H"
015406:  326200411334  jumpn    4, 411334       ;":R A+<"
015407:  202100000650  movem    2, 650          ;"01  &H"
015410:  200240001130  move     5, 1130         ;"0"@ )8"
015411:  350000001072  aos      0, 1072         ;"=   (Z"
015412:  200105000000  move     2, (5)          ;"0!%   "
015413:  250345000000  exch     7, (5)          ;"5#E   "
015414:  250340000004  exch     7, 4            ;"5#@  $"
015415:  552240001130  hrrzm    5, 1130         ;"M2@ )8"
015416:  370000001124  sos      0, 1124         ;"?   )4"
015417:  350000001072  aos      0, 1072         ;"=   (Z"
015420:  200110000000  move     2, (10)         ;"0!(   "
015421:  250350000000  exch     7, (10)         ;"5#H   "
015422:  250340000010  exch     7, 10           ;"5#@  ("
015423:  260000413250  pushj    0, 413250       ;"6  A:H"
015424:  350000001072  aos      0, 1072         ;"=   (Z"
015425:  200110000000  move     2, (10)         ;"0!(   "
015426:  250350000000  exch     7, (10)         ;"5#H   "
015427:  250340000010  exch     7, 10           ;"5#@  ("
015430:  260000413250  pushj    0, 413250       ;"6  A:H"
015431:  350000001072  aos      0, 1072         ;"=   (Z"
015432:  200711000000  move     16, (11)        ;"0')   "
015433:  250351000000  exch     7, (11)         ;"5#I   "
015434:  250340000010  exch     7, 10           ;"5#@  ("
015435:  200100000650  move     2, 650          ;"0!  &H"
015436:  254000410022  jrst     410022          ;"5@ A 2"
015437:  400140000000  setz     3,              ;"@!@   "
015440:  400140000000  setz     3,              ;"@!@   "
015441:  200140417046  move     3, 417046       ;"0!@AXF"
015442:  200140417046  move     3, 417046       ;"0!@AXF"
015443:  400140000000  setz     3,              ;"@!@   "
015444:  400040000000  setz     1,              ;"@ @   "
015445:  200040417060  move     1, 417060       ;"0 @AXP"
015446:  200040417102  move     1, 417102       ;"0 @AY""
015447:  200040417100  move     1, 417100       ;"0 @AY "
015450:  400040000000  setz     1,              ;"@ @   "
015451:  260000412010  pushj    0, 412010       ;"6  A0("
015452:  260000412030  pushj    0, 412030       ;"6  A08"
015453:  260000411456  pushj    0, 411456       ;"6  A,N"
015454:  260000411460  pushj    0, 411460       ;"6  A,P"
015455:  264000001004  jsr      1004            ;"6@  ($"
015456:  325100412016  jumpge   2, 412016       ;":I A0."
015457:  254000411462  jrst     411462          ;"5@ A,R"
015460:  264000001004  jsr      1004            ;"6@  ($"
015461:  323100412016  jumple   2, 412016       ;":9 A0."
015462:  200040000004  move     1, 4            ;"0 @  $"
015463:  200140000006  move     3, 6            ;"0!@  &"
015464:  254000412016  jrst     412016          ;"5@ A0."
015465:  265240412452  jsp      5, 412452       ;"6J@A4J"
015466:  334000000000  skipa    0, 0            ;";@    " "7\0\0\0\0"
015467:  260000417152  pushj    0, 417152       ;"6  AYJ"
015470:  550220000650  hrrz     4, @650         ;"M"0 &H"
015471:  326040411474  jumpn    1, 411474       ;":P@A,\"
015472:  326200411342  jumpn    4, 411342       ;":R A+B"
015473:  260000404300  pushj    0, 404300       ;"6  @C "
015474:  350000001072  aos      0, 1072         ;"=   (Z"
015475:  200711000000  move     16, (11)        ;"0')   "
015476:  250351000000  exch     7, (11)         ;"5#I   "
015477:  250340000010  exch     7, 10           ;"5#@  ("
015500:  350000001072  aos      0, 1072         ;"=   (Z"
015501:  200110000000  move     2, (10)         ;"0!(   "
015502:  250350000000  exch     7, (10)         ;"5#H   "
015503:  250340000010  exch     7, 10           ;"5#@  ("
015504:  254000411410  jrst     411410          ;"5@ A,("
015505:  504240000004  hrl      5, 4            ;"HB@  $"
015506:  540240417054  hrr      5, 417054       ;"L"@AXL"
015507:  377000001072  sosg     0, 1072         ;"?X  (Z"
015510:  260000403716  pushj    0, 403716       ;"6  @?."
015511:  202247000000  movem    5, (7)          ;"02G   " " J8\0\0"
015512:  250447000000  exch     11, (7)         ;"5$G   "
015513:  250340000010  exch     7, 10           ;"5#@  ("
015514:  312740420652  came     17, 420652      ;"97@B&J"
015515:  260000404100  pushj    0, 404100       ;"6  @A "
015516:  265240412452  jsp      5, 412452       ;"6J@A4J"
015517:  334000000000  skipa    0, 0            ;";@    " "7\0\0\0\0"
015520:  260000417152  pushj    0, 417152       ;"6  AYJ"
015521:  326040411570  jumpn    1, 411570       ;":P@A-X"
015522:  201040000000  movei    1, 0            ;"0(@   " " \"\0\0\0"
015523:  260000413724  pushj    0, 413724       ;"6  A?4"
015524:  301740000170  cail     17, 170         ;"8/@ !X"
015525:  254000411524  jrst     411524          ;"5@ A-4"
015526:  135140417142  ldb      3, 417142       ;"+I@AYB"
015527:  254003411530  jrst     411530(3)       ;"5@#A-8"
015530:  254000411524  jrst     411524          ;"5@ A-4"
015531:  260000404100  pushj    0, 404100       ;"6  @A "
015532:  362040411542  soje     1, 411542       ;">0@A-B"
015533:  344040411524  aoja     1, 411524       ;"<@@A-4"
015534:  254000411540  jrst     411540          ;"5@ A-@"
015535:  260000404100  pushj    0, 404100       ;"6  @A "
015536:  260000404100  pushj    0, 404100       ;"6  @A "
015537:  260000404100  pushj    0, 404100       ;"6  @A "
015540:  367040411524  sojg     1, 411524       ;">X@A-4"
015541:  260000404100  pushj    0, 404100       ;"6  @A "
015542:  200100001120  move     2, 1120         ;"0!  )0"
015543:  377000001072  sosg     0, 1072         ;"?X  (Z"
015544:  260000403716  pushj    0, 403716       ;"6  @?."
015545:  202107000000  movem    2, (7)          ;"01'   " " D8\0\0"
015546:  250447000000  exch     11, (7)         ;"5$G   "
015547:  250340000010  exch     7, 10           ;"5#@  ("
015550:  265240407620  jsp      5, 407620       ;"6J@@^0"
015551:  350000001072  aos      0, 1072         ;"=   (Z"
015552:  200111000000  move     2, (11)         ;"0!)   "
015553:  250351000000  exch     7, (11)         ;"5#I   "
015554:  250340000010  exch     7, 10           ;"5#@  ("
015555:  202100001270  movem    2, 1270         ;"01  *X"
015556:  312756421060  came     17, 421060(16)  ;"97NB(P"
015557:  254000411514  jrst     411514          ;"5@ A-,"
015560:  331000001124  skipl    0, 1124         ;";(  )4"
015561:  254000411626  jrst     411626          ;"5@ A.6"
015562:  201740000124  movei    17, 124         ;"0/@ !4"
015563:  137740001270  dpb      17, 1270        ;"+_@ *X"
015564:  201740000126  movei    17, 126         ;"0/@ !6"
015565:  137740001120  dpb      17, 1120        ;"+_@ )0"
015566:  254000411626  jrst     411626          ;"5@ A.6"
015567:  200100001120  move     2, 1120         ;"0!  )0"
015570:  377000001072  sosg     0, 1072         ;"?X  (Z"
015571:  260000403716  pushj    0, 403716       ;"6  @?."
015572:  202107000000  movem    2, (7)          ;"01'   " " D8\0\0"
015573:  250447000000  exch     11, (7)         ;"5$G   "
015574:  250340000010  exch     7, 10           ;"5#@  ("
015575:  265240407620  jsp      5, 407620       ;"6J@@^0"
015576:  350000001072  aos      0, 1072         ;"=   (Z"
015577:  200111000000  move     2, (11)         ;"0!)   "
015600:  250351000000  exch     7, (11)         ;"5#I   "
015601:  250340000010  exch     7, 10           ;"5#@  ("
015602:  202100001270  movem    2, 1270         ;"01  *X"
015603:  316756421060  camn     17, 421060(16)  ;"9WNB(P"
015604:  254000411560  jrst     411560          ;"5@ A-P"
015605:  312740420650  came     17, 420650      ;"97@B&H"
015606:  260000404100  pushj    0, 404100       ;"6  @A "
015607:  331000001124  skipl    0, 1124         ;";(  )4"
015610:  254000411616  jrst     411616          ;"5@ A.."
015611:  201740000124  movei    17, 124         ;"0/@ !4"
015612:  137740001270  dpb      17, 1270        ;"+_@ *X"
015613:  201740000126  movei    17, 126         ;"0/@ !6"
015614:  137740001120  dpb      17, 1120        ;"+_@ )0"
015615:  201040000000  movei    1, 0            ;"0(@   " " \"\0\0\0"
015616:  260000413724  pushj    0, 413724       ;"6  A?4"
015617:  301740000170  cail     17, 170         ;"8/@ !X"
015620:  254000411616  jrst     411616          ;"5@ A.."
015621:  135140417142  ldb      3, 417142       ;"+I@AYB"
015622:  256003411630  xct      411630(3)       ;"5P#A.8"
015623:  200757420466  move     17, 420466(17)  ;"0'OB$V"
015624:  312756421060  came     17, 421060(16)  ;"97NB(P"
015625:  260000404100  pushj    0, 404100       ;"6  @A "
015626:  250711000000  exch     16, (11)        ;"5')   "
015627:  254000412002  jrst     412002          ;"5@ A0""
015630:  254000411616  jrst     411616          ;"5@ A.."
015631:  260000404100  pushj    0, 404100       ;"6  @A "
015632:  254000411616  jrst     411616          ;"5@ A.."
015633:  344040411616  aoja     1, 411616       ;"<@@A.."
015634:  367040411616  sojg     1, 411616       ;">X@A.."
015635:  260000404100  pushj    0, 404100       ;"6  @A "
015636:  260000404100  pushj    0, 404100       ;"6  @A "
015637:  260000404100  pushj    0, 404100       ;"6  @A "
015640:  316756421060  camn     17, 421060(16)  ;"9WNB(P"
015641:  254000411644  jrst     411644          ;"5@ A.D"
015642:  265240411506  jsp      5, 411506       ;"6J@A-&"
015643:  350000001072  aos      0, 1072         ;"=   (Z"
015644:  200711000000  move     16, (11)        ;"0')   "
015645:  250351000000  exch     7, (11)         ;"5#I   "
015646:  250340000010  exch     7, 10           ;"5#@  ("
015647:  135300417146  ldb      6, 417146       ;"+K AYF"
015650:  307300000000  caig     6, 0            ;"8[    " "1l\0\0\0"
015651:  254000410026  jrst     410026          ;"5@ A 6"
015652:  254000407660  jrst     407660          ;"5@ @^P"
015653:  312740000016  came     17, 16          ;"97@  ."
015654:  260000404100  pushj    0, 404100       ;"6  @A "
015655:  265240412452  jsp      5, 412452       ;"6J@A4J"
015656:  254000411660  jrst     411660          ;"5@ A.P"
015657:  256016421144  xct      421144(16)      ;"5P.B)D" "+@t\"2"
015660:  350000001072  aos      0, 1072         ;"=   (Z"
015661:  200711000000  move     16, (11)        ;"0')   "
015662:  250351000000  exch     7, (11)         ;"5#I   "
015663:  250340000010  exch     7, 10           ;"5#@  ("
015664:  254000410012  jrst     410012          ;"5@ A *"
015665:  265240412472  jsp      5, 412472       ;"6J@A4Z"
015666:  260000417146  pushj    0, 417146       ;"6  AYF"
015667:  265240412452  jsp      5, 412452       ;"6J@A4J"
015670:  260000417146  pushj    0, 417146       ;"6  AYF"
015671:  256016421144  xct      421144(16)      ;"5P.B)D" "+@t\"2"
015672:  377000001072  sosg     0, 1072         ;"?X  (Z"
015673:  260000404140  pushj    0, 404140       ;"6  @A@"
015674:  202107000000  movem    2, (7)          ;"01'   " " D8\0\0"
015675:  250407000000  exch     10, (7)         ;"5$'   "
015676:  250340000010  exch     7, 10           ;"5#@  ("
015677:  350000001072  aos      0, 1072         ;"=   (Z"
015700:  200711000000  move     16, (11)        ;"0')   "
015701:  250351000000  exch     7, (11)         ;"5#I   "
015702:  250340000010  exch     7, 10           ;"5#@  ("
015703:  254000410060  jrst     410060          ;"5@ A P"
015704:  265240412472  jsp      5, 412472       ;"6J@A4Z"
015705:  334000000000  skipa    0, 0            ;";@    " "7\0\0\0\0"
015706:  260000417160  pushj    0, 417160       ;"6  AYP"
015707:  265240412452  jsp      5, 412452       ;"6J@A4J"
015710:  334000000000  skipa    0, 0            ;";@    " "7\0\0\0\0"
015711:  260000417152  pushj    0, 417152       ;"6  AYJ"
015712:  256016421144  xct      421144(16)      ;"5P.B)D" "+@t\"2"
015713:  200100417042  move     2, 417042       ;"0! AXB"
015714:  322040411672  jumpe    1, 411672       ;":0@A.Z"
015715:  200100417044  move     2, 417044       ;"0! AXD"
015716:  254000411672  jrst     411672          ;"5@ A.Z"
015717:  265240412472  jsp      5, 412472       ;"6J@A4Z"
015720:  254000411726  jrst     411726          ;"5@ A/6"
015721:  402000000640  setzm    640             ;"@0  &@"
015722:  265240412452  jsp      5, 412452       ;"6J@A4J"
015723:  254000411730  jrst     411730          ;"5@ A/8"
015724:  254000411744  jrst     411744          ;"5@ A/D"
015725:  202100000640  movem    2, 640          ;"01  &@"
015726:  265240412452  jsp      5, 412452       ;"6J@A4J"
015727:  254000411740  jrst     411740          ;"5@ A/@"
015730:  316700420616  camn     16, 420616      ;"9W B&."
015731:  254000411750  jrst     411750          ;"5@ A/H"
015732:  316700420620  camn     16, 420620      ;"9W B&0"
015733:  254000411736  jrst     411736          ;"5@ A/>"
015734:  254000411742  jrst     411742          ;"5@ A/B"
015735:  200100417044  move     2, 417044       ;"0! AXD"
015736:  254000411750  jrst     411750          ;"5@ A/H"
015737:  316700420616  camn     16, 420616      ;"9W B&."
015740:  254000411744  jrst     411744          ;"5@ A/D"
015741:  312700420620  came     16, 420620      ;"97 B&0"
015742:  260000417146  pushj    0, 417146       ;"6  AYF"
015743:  264000001004  jsr      1004            ;"6@  ($"
015744:  200240000002  move     5, 2            ;"0"@  ""
015745:  200100417044  move     2, 417044       ;"0! AXD"
015746:  256016421144  xct      421144(16)      ;"5P.B)D" "+@t\"2"
015747:  200100417042  move     2, 417042       ;"0! AXB"
015750:  554240000016  hlrz     5, 16           ;"MB@  ."
015751:  302240000006  caie     5, 6            ;"82@  &"
015752:  254000411672  jrst     411672          ;"5@ A.Z"
015753:  377000001072  sosg     0, 1072         ;"?X  (Z"
015754:  260000404140  pushj    0, 404140       ;"6  @A@"
015755:  202107000000  movem    2, (7)          ;"01'   " " D8\0\0"
015756:  250407000000  exch     10, (7)         ;"5$'   "
015757:  250340000010  exch     7, 10           ;"5#@  ("
015760:  200100000640  move     2, 640          ;"0!  &@"
015761:  326100411772  jumpn    2, 411772       ;":Q A/Z"
015762:  514300000006  hrlz     6, 6            ;"IC   &"
015763:  377000001072  sosg     0, 1072         ;"?X  (Z"
015764:  260000403716  pushj    0, 403716       ;"6  @?."
015765:  202207000000  movem    4, (7)          ;"02'   " " H8\0\0"
015766:  250307000000  exch     6, (7)          ;"5#'   " "*\f8\0\0"
015767:  250340000006  exch     7, 6            ;"5#@  &"
015770:  540100000006  hrr      2, 6            ;"L!   &"
015771:  504100417004  hrl      2, 417004       ;"HA AX$"
015772:  377000001072  sosg     0, 1072         ;"?X  (Z"
015773:  260000404140  pushj    0, 404140       ;"6  @A@"
015774:  202107000000  movem    2, (7)          ;"01'   " " D8\0\0"
015775:  250407000000  exch     10, (7)         ;"5$'   "
015776:  250340000010  exch     7, 10           ;"5#@  ("
015777:  200700420666  move     16, 420666      ;"0' B&V"
016000:  256017421064  xct      421064(17)      ;"5P/B(T"
016001:  544240000016  hlr      5, 16           ;"LB@  ."
016002:  350000001072  aos      0, 1072         ;"=   (Z"
016003:  200711000000  move     16, (11)        ;"0')   "
016004:  250351000000  exch     7, (11)         ;"5#I   "
016005:  250340000010  exch     7, 10           ;"5#@  ("
016006:  254005000000  jrst     (5)             ;"5@%   "
016007:  264000000460  jsr      460             ;"6@  $P"
016010:  434040000002  or       1, 2            ;"C@@  ""
016011:  313140417046  camle    3, 417046       ;"99@AXF"
016012:  260000404146  pushj    0, 404146       ;"6  @AF"
016013:  315140417050  camge    3, 417050       ;"9I@AXH"
016014:  403040000002  setzb    1, 2            ;"@8@  ""
016015:  514140000002  hrlz     3, 2            ;"IA@  ""
016016:  377000001072  sosg     0, 1072         ;"?X  (Z"
016017:  260000403716  pushj    0, 403716       ;"6  @?."
016020:  202047000000  movem    1, (7)          ;"00G   " " B8\0\0"
016021:  250147000000  exch     3, (7)          ;"5!G   "
016022:  250340000002  exch     7, 2            ;"5#@  ""
016023:  540100000002  hrr      2, 2            ;"L!   ""
016024:  504100417004  hrl      2, 417004       ;"HA AX$"
016025:  263000000000  popj     0,              ;"68    " ",`\0\0\0"
016026:  264000000502  jsr      502             ;"6@  %""
016027:  254000412010  jrst     412010          ;"5@ A0("
016030:  264000000466  jsr      466             ;"6@  $V"
016031:  254000412010  jrst     412010          ;"5@ A0("
016032:  264000000462  jsr      462             ;"6@  $R"
016033:  260000404150  pushj    0, 404150       ;"6  @AH"
016034:  254000412010  jrst     412010          ;"5@ A0("
016035:  264000001012  jsr      1012            ;"6@  (*"
016036:  260000404152  pushj    0, 404152       ;"6  @AJ"
016037:  260000404146  pushj    0, 404146       ;"6  @AF"
016040:  260000404154  pushj    0, 404154       ;"6  @AL"
016041:  254000412010  jrst     412010          ;"5@ A0("
016042:  265240412452  jsp      5, 412452       ;"6J@A4J"
016043:  260000417146  pushj    0, 417146       ;"6  AYF"
016044:  264000000472  jsr      472             ;"6@  $Z"
016045:  260000404156  pushj    0, 404156       ;"6  @AN"
016046:  254000412010  jrst     412010          ;"5@ A0("
016047:  265240412452  jsp      5, 412452       ;"6J@A4J"
016050:  260000417146  pushj    0, 417146       ;"6  AYF"
016051:  264000000470  jsr      470             ;"6@  $X"
016052:  260000404146  pushj    0, 404146       ;"6  @AF"
016053:  254000412010  jrst     412010          ;"5@ A0("
016054:  265240412452  jsp      5, 412452       ;"6J@A4J"
016055:  260000417146  pushj    0, 417146       ;"6  AYF"
016056:  264000000464  jsr      464             ;"6@  $T"
016057:  260000404160  pushj    0, 404160       ;"6  @AP"
016060:  254000412010  jrst     412010          ;"5@ A0("
016061:  265240412452  jsp      5, 412452       ;"6J@A4J"
016062:  260000417146  pushj    0, 417146       ;"6  AYF"
016063:  264000001014  jsr      1014            ;"6@  (,"
016064:  260000404162  pushj    0, 404162       ;"6  @AR"
016065:  254000412010  jrst     412010          ;"5@ A0("
016066:  265240412452  jsp      5, 412452       ;"6J@A4J"
016067:  260000417146  pushj    0, 417146       ;"6  AYF"
016070:  264000001016  jsr      1016            ;"6@  (."
016071:  260000404162  pushj    0, 404162       ;"6  @AR"
016072:  254000412010  jrst     412010          ;"5@ A0("
016073:  265240412472  jsp      5, 412472       ;"6J@A4Z"
016074:  260000417146  pushj    0, 417146       ;"6  AYF"
016075:  265240412452  jsp      5, 412452       ;"6J@A4J"
016076:  260000417146  pushj    0, 417146       ;"6  AYF"
016077:  264000001020  jsr      1020            ;"6@  (0"
016100:  254000412010  jrst     412010          ;"5@ A0("
016101:  265240412452  jsp      5, 412452       ;"6J@A4J"
016102:  260000417146  pushj    0, 417146       ;"6  AYF"
016103:  264000001022  jsr      1022            ;"6@  (2"
016104:  254000412010  jrst     412010          ;"5@ A0("
016105:  265240412452  jsp      5, 412452       ;"6J@A4J"
016106:  260000417146  pushj    0, 417146       ;"6  AYF"
016107:  264000001010  jsr      1010            ;"6@  (("
016110:  254000412010  jrst     412010          ;"5@ A0("
016111:  265240412452  jsp      5, 412452       ;"6J@A4J"
016112:  260000417146  pushj    0, 417146       ;"6  AYF"
016113:  264000000762  jsr      762             ;"6@  'R"
016114:  254000412010  jrst     412010          ;"5@ A0("
016115:  265240412452  jsp      5, 412452       ;"6J@A4J"
016116:  260000417146  pushj    0, 417146       ;"6  AYF"
016117:  264000000764  jsr      764             ;"6@  'T"
016120:  254000412010  jrst     412010          ;"5@ A0("
016121:  265240412452  jsp      5, 412452       ;"6J@A4J"
016122:  260000417146  pushj    0, 417146       ;"6  AYF"
016123:  264000001024  jsr      1024            ;"6@  (4"
016124:  254000412010  jrst     412010          ;"5@ A0("
016125:  571240777776  hrrei    5, 777776       ;"O*@__^"
016126:  334000000000  skipa    0, 0            ;";@    " "7\0\0\0\0"
016127:  201240000000  movei    5, 0            ;"0*@   " " *\0\0\0"
016130:  202240000636  movem    5, 636          ;"02@ &>"
016131:  377000000664  sosg     0, 664          ;"?X  &T"
016132:  260000404100  pushj    0, 404100       ;"6  @A "
016133:  265240412472  jsp      5, 412472       ;"6J@A4Z"
016134:  260000417146  pushj    0, 417146       ;"6  AYF"
016135:  200040000004  move     1, 4            ;"0 @  $"
016136:  200140000006  move     3, 6            ;"0!@  &"
016137:  375000000664  sosge    0, 664          ;"?H  &T"
016140:  254000412016  jrst     412016          ;"5@ A0."
016141:  265240412472  jsp      5, 412472       ;"6J@A4Z"
016142:  260000417146  pushj    0, 417146       ;"6  AYF"
016143:  264000001004  jsr      1004            ;"6@  ($"
016144:  312100000636  came     2, 636          ;"91  &>"
016145:  254000412140  jrst     412140          ;"5@ A1@"
016146:  254000412136  jrst     412136          ;"5@ A1>"
016147:  265240412452  jsp      5, 412452       ;"6J@A4J"
016150:  254000412016  jrst     412016          ;"5@ A0."
016151:  200100417042  move     2, 417042       ;"0! AXB"
016152:  322040412154  jumpe    1, 412154       ;":0@A1L"
016153:  200100417044  move     2, 417044       ;"0! AXD"
016154:  263000000000  popj     0,              ;"68    " ",`\0\0\0"
016155:  400040000000  setz     1,              ;"@ @   "
016156:  334000000000  skipa    0, 0            ;";@    " "7\0\0\0\0"
016157:  200040417060  move     1, 417060       ;"0 @AXP"
016160:  202040000636  movem    1, 636          ;"00@ &>"
016161:  377000000664  sosg     0, 664          ;"?X  &T"
016162:  260000404100  pushj    0, 404100       ;"6  @A "
016163:  400140000000  setz     3,              ;"@!@   "
016164:  265240412472  jsp      5, 412472       ;"6J@A4Z"
016165:  260000417146  pushj    0, 417146       ;"6  AYF"
016166:  332000000636  skipe    0, 636          ;";0  &>"
016167:  254000412172  jrst     412172          ;"5@ A1Z"
016170:  264000000460  jsr      460             ;"6@  $P"
016171:  254000412174  jrst     412174          ;"5@ A1\"
016172:  264000000466  jsr      466             ;"6@  $V"
016173:  434040000002  or       1, 2            ;"C@@  ""
016174:  313140417046  camle    3, 417046       ;"99@AXF"
016175:  260000404146  pushj    0, 404146       ;"6  @AF"
016176:  315140417050  camge    3, 417050       ;"9I@AXH"
016177:  403040000002  setzb    1, 2            ;"@8@  ""
016200:  375000000664  sosge    0, 664          ;"?H  &T"
016201:  254000412016  jrst     412016          ;"5@ A0."
016202:  254000412164  jrst     412164          ;"5@ A1T"
016203:  400200000000  setz     4,              ;"@"    "
016204:  134740001120  ildb     17, 1120        ;"+G@ )0"
016205:  200757420466  move     17, 420466(17)  ;"0'OB$V"
016206:  321757412210  jumpl    17, 412210(17)  ;":/OA2("
016207:  254005000000  jrst     (5)             ;"5@%   "
016210:  344200412204  aoja     4, 412204       ;"<B A2$"
016211:  254000412240  jrst     412240          ;"5@ A2@"
016212:  254000412230  jrst     412230          ;"5@ A28"
016213:  550760001120  hrrz     17, @1120       ;"M'P )0"
016214:  322740412224  jumpe    17, 412224      ;":7@A24"
016215:  505740341000  hrli     17, 341000      ;"HO@<( "
016216:  202740001120  movem    17, 1120        ;"07@ )0"
016217:  135740000016  ldb      17, 16          ;"+O@  ."
016220:  200757420466  move     17, 420466(17)  ;"0'OB$V"
016221:  321757412210  jumpl    17, 412210(17)  ;":/OA2("
016222:  254005000000  jrst     (5)             ;"5@%   "
016223:  505740241000  hrli     17, 241000      ;"HO@4( "
016224:  502740001120  hllm     17, 1120        ;"H7@ )0"
016225:  200740420654  move     17, 420654      ;"0'@B&L"
016226:  254005000000  jrst     (5)             ;"5@%   "
016227:  261000001120  push     0, 1120         ;"6(  )0"
016230:  260000413724  pushj    0, 413724       ;"6  A?4"
016231:  302740000154  caie     17, 154         ;"87@ !L"
016232:  254000412236  jrst     412236          ;"5@ A2>"
016233:  262000000016  pop      0, 16           ;"60   ."
016234:  254000412230  jrst     412230          ;"5@ A28"
016235:  262000001120  pop      0, 1120         ;"60  )0"
016236:  200740417110  move     17, 417110      ;"0'@AY("
016237:  254005000000  jrst     (5)             ;"5@%   "
016240:  202200000614  movem    4, 614          ;"02  &,"
016241:  202240000616  movem    5, 616          ;"02@ &."
016242:  202300000616  movem    6, 616          ;"03  &."
016243:  403200000620  setzb    4, 620          ;"@:  &0"
016244:  403240000620  setzb    5, 620          ;"@:@ &0"
016245:  402000000622  setzm    622             ;"@0  &2"
016246:  135740001120  ldb      17, 1120        ;"+O@ )0"
016247:  302740000160  caie     17, 160         ;"87@ !P"
016250:  254000412272  jrst     412272          ;"5@ A2Z"
016251:  200300001120  move     6, 1120         ;"0#  )0"
016252:  260000413724  pushj    0, 413724       ;"6  A?4"
016253:  303740000010  caile    17, 10          ;"8?@  ("
016254:  254000412316  jrst     412316          ;"5@ A3."
016255:  350000000622  aos      0, 622          ;"=   &2"
016256:  322240412264  jumpe    5, 412264       ;":2@A2T"
016257:  305240000010  caige    5, 10           ;"8J@  ("
016260:  254000412266  jrst     412266          ;"5@ A2V"
016261:  322740412252  jumpe    17, 412252      ;":7@A2J"
016262:  340240412252  aoj      5, 412252       ;"<"@A2J"
016263:  350000000620  aos      0, 620          ;"=   &0"
016264:  322740412252  jumpe    17, 412252      ;":7@A2J"
016265:  221200000012  imuli    4, 12           ;"2*   *"
016266:  270200000016  add      4, 16           ;"7"   ."
016267:  271240000000  addi     5, 0            ;"7*@   " ".*\0\0\0"
016270:  254000412252  jrst     412252          ;"5@ A2J"
016271:  200300001120  move     6, 1120         ;"0#  )0"
016272:  254000412300  jrst     412300          ;"5@ A3 "
016273:  200300001120  move     6, 1120         ;"0#  )0"
016274:  260000413724  pushj    0, 413724       ;"6  A?4"
016275:  303740000010  caile    17, 10          ;"8?@  ("
016276:  254000412314  jrst     412314          ;"5@ A3,"
016277:  350000000622  aos      0, 622          ;"=   &2"
016300:  322240412306  jumpe    5, 412306       ;":2@A3&"
016301:  305240000010  caige    5, 10           ;"8J@  ("
016302:  254000412306  jrst     412306          ;"5@ A3&"
016303:  322740412312  jumpe    17, 412312      ;":7@A3*"
016304:  340240412312  aoj      5, 412312       ;"<"@A3*"
016305:  322740412274  jumpe    17, 412274      ;":7@A2\"
016306:  221200000012  imuli    4, 12           ;"2*   *"
016307:  270200000016  add      4, 16           ;"7"   ."
016310:  271240000000  addi     5, 0            ;"7*@   " ".*\0\0\0"
016311:  350000000620  aos      0, 620          ;"=   &0"
016312:  254000412274  jrst     412274          ;"5@ A2\"
016313:  306740000160  cain     17, 160         ;"8W@ !P"
016314:  254000412252  jrst     412252          ;"5@ A2J"
016315:  202300001120  movem    6, 1120         ;"03  )0"
016316:  303240000010  caile    5, 10           ;"8:@  ("
016317:  254000412342  jrst     412342          ;"5@ A3B"
016320:  220205412344  imul     4, 412344(5)    ;"2"%A3D"
016321:  250200000620  exch     4, 620          ;"5"  &0"
016322:  200300000620  move     6, 620          ;"0#  &0"
016323:  402000000620  setzm    620             ;"@0  &0"
016324:  336000000620  skipn    0, 620          ;";P  &0"
016325:  254000412332  jrst     412332          ;"5@ A3:"
016326:  365200412330  sojge    4, 412330       ;">J A38"
016327:  210200000006  movn     4, 6            ;"1"   &"
016330:  202200000620  movem    4, 620          ;"02  &0"
016331:  505740001000  hrli     17, 1000        ;"HO@ ( "
016332:  541740000620  hrri     17, 620         ;"L/@ &0"
016333:  200200000614  move     4, 614          ;"0"  &,"
016334:  200240000616  move     5, 616          ;"0"@ &."
016335:  200300000616  move     6, 616          ;"0#  &."
016336:  336000000622  skipn    0, 622          ;";P  &2"
016337:  200740420644  move     17, 420644      ;"0'@B&D"
016340:  254005000000  jrst     (5)             ;"5@%   "
016341:  476000000620  setom    620             ;"GP  &0"
016342:  254000412332  jrst     412332          ;"5@ A3:"
016343:  000000000000                           ;"      "
016344:  000575360400                           ;" %]>$ "
016345:  000046113200                           ;"  F): "
016346:  000003641100                           ;"  #T) "
016347:  000000303240                           ;"   8:@"
016350:  000000023420                           ;"   "<0"
016351:  000000001750                           ;"    /H"
016352:  000000000144                           ;"    !D"
016353:  000000000012                           ;"     *"
016354:  000000000000                           ;"      "
016355:  200240000604  move     5, 604          ;"0"@ &$"
016356:  403200000006  setzb    4, 6            ;"@:   &"
016357:  134740000004  ildb     17, 4           ;"+G@  $"
016360:  305740000170  caige    17, 170         ;"8O@ !X"
016361:  254000412370  jrst     412370          ;"5@ A3X"
016362:  303740000176  caile    17, 176         ;"8?@ !^"
016363:  254000412370  jrst     412370          ;"5@ A3X"
016364:  275740000166  subi     17, 166         ;"7O@ !V"
016365:  270200000016  add      4, 16           ;"7"   ."
016366:  254000412360  jrst     412360          ;"5@ A3P"
016367:  326740412372  jumpn    17, 412372      ;":W@A3Z"
016370:  344200412360  aoja     4, 412360       ;"<B A3P"
016371:  134740000004  ildb     17, 4           ;"+G@  $"
016372:  307740000010  caig     17, 10          ;"8_@  ("
016373:  254000412372  jrst     412372          ;"5@ A3Z"
016374:  302740000160  caie     17, 160         ;"87@ !P"
016375:  254000412406  jrst     412406          ;"5@ A4&"
016376:  344300412400  aoja     6, 412400       ;"<C A4 "
016377:  134740000004  ildb     17, 4           ;"+G@  $"
016400:  322740412376  jumpe    17, 412376      ;":7@A3^"
016401:  303740000010  caile    17, 10          ;"8?@  ("
016402:  254000412406  jrst     412406          ;"5@ A4&"
016403:  400300000000  setz     6,              ;"@#    " "@\f\0\0\0"
016404:  254000412400  jrst     412400          ;"5@ A4 "
016405:  202240001120  movem    5, 1120         ;"02@ )0"
016406:  200240001154  move     5, 1154         ;"0"@ )L"
016407:  402005000000  setzm    (5)             ;"@0%   " "@@(\0\0"
016410:  136200000004  idpb     4, 4            ;"+R   $"
016411:  136300000004  idpb     6, 4            ;"+S   $"
016412:  133000000004  ibp      4               ;"+8   $"
016413:  200300000004  move     6, 4            ;"0#   $"
016414:  201200000002  movei    4, 2            ;"0*   ""
016415:  254000412420  jrst     412420          ;"5@ A40"
016416:  134740001120  ildb     17, 1120        ;"+G@ )0"
016417:  306740000164  cain     17, 164         ;"8W@ !T"
016420:  344200412426  aoja     4, 412426       ;"<B A46"
016421:  306740000256  cain     17, 256         ;"8W@ "N"
016422:  137200000006  dpb      4, 6            ;"+Z   &"
016423:  136740000004  idpb     17, 4           ;"+W@  $"
016424:  344200412416  aoja     4, 412416       ;"<B A4."
016425:  202240001256  movem    5, 1256         ;"02@ *N"
016426:  136740000004  idpb     17, 4           ;"+W@  $"
016427:  135740001256  ldb      17, 1256        ;"+O@ *N"
016430:  306740000166  cain     17, 166         ;"8W@ !V"
016431:  263000000000  popj     0,              ;"68    " ",`\0\0\0"
016432:  201740000276  movei    17, 276         ;"0/@ "^"
016433:  137740000006  dpb      17, 6           ;"+_@  &"
016434:  263000000000  popj     0,              ;"68    " ",`\0\0\0"
016435:  271200000006  addi     4, 6            ;"7*   &"
016436:  231200000006  idivi    4, 6            ;"3*   &"
016437:  271200000002  addi     4, 2            ;"7*   ""
016440:  311200001072  caml     4, 1072         ;"9*  (Z"
016441:  260000403720  pushj    0, 403720       ;"6  @?0"
016442:  263000000000  popj     0,              ;"68    " ",`\0\0\0"
016443:  377000001072  sosg     0, 1072         ;"?X  (Z"
016444:  260000403716  pushj    0, 403716       ;"6  @?."
016445:  202707000000  movem    16, (7)         ;"07'   " " \\8\0\0"
016446:  250447000000  exch     11, (7)         ;"5$G   "
016447:  250340000010  exch     7, 10           ;"5#@  ("
016450:  200700000016  move     16, 16          ;"0'   ."
016451:  254000412204  jrst     412204          ;"5@ A2$"
016452:  350000001072  aos      0, 1072         ;"=   (Z"
016453:  200110000000  move     2, (10)         ;"0!(   "
016454:  250350000000  exch     7, (10)         ;"5#H   "
016455:  250340000010  exch     7, 10           ;"5#@  ("
016456:  200042000000  move     1, (2)          ;"0 B   "
016457:  574142000000  hlre     3, (2)          ;"OAB   "
016460:  607100000016  tlnn     2, 16           ;"PY   ."
016461:  254005000000  jrst     (5)             ;"5@%   "
016462:  603100000016  tlne     2, 16           ;"P9   ."
016463:  260000404076  pushj    0, 404076       ;"6  @@^"
016464:  603100776000  tlne     2, 776000       ;"P9 _P "
016465:  254000412472  jrst     412472          ;"5@ A4Z"
016466:  350000001072  aos      0, 1072         ;"=   (Z"
016467:  202342000000  movem    7, (2)          ;"03B   "
016470:  200340000002  move     7, 2            ;"0#@  ""
016471:  254005000000  jrst     (5)             ;"5@%   "
016472:  350000001072  aos      0, 1072         ;"=   (Z"
016473:  200110000000  move     2, (10)         ;"0!(   "
016474:  250350000000  exch     7, (10)         ;"5#H   "
016475:  250340000010  exch     7, 10           ;"5#@  ("
016476:  200202000000  move     4, (2)          ;"0""   "
016477:  574302000000  hlre     6, (2)          ;"OC"   "
016500:  254000412460  jrst     412460          ;"5@ A4P"
016501:  200040001120  move     1, 1120         ;"0 @ )0"
016502:  202040000622  movem    1, 622          ;"00@ &2"
016503:  265240412204  jsp      5, 412204       ;"6J@A2$"
016504:  326200412512  jumpn    4, 412512       ;":R A5*"
016505:  554040000016  hlrz     1, 16           ;"M@@  ."
016506:  302040000002  caie     1, 2            ;"80@  ""
016507:  254000412512  jrst     412512          ;"5@ A5*"
016510:  262000000000  pop      0, 0            ;"60    " ",@\0\0\0"
016511:  254001000000  jrst     (1)             ;"5@!   "
016512:  200040000622  move     1, 622          ;"0 @ &2"
016513:  202040001120  movem    1, 1120         ;"00@ )0"
016514:  263000000000  popj     0,              ;"68    " ",`\0\0\0"
016515:  550100000624  hrrz     2, 624          ;"M!  &4"
016516:  201300000000  movei    6, 0            ;"0+    " " ,\0\0\0"
016517:  400040000000  setz     1,              ;"@ @   "
016520:  202300000700  movem    6, 700          ;"03  ' "
016521:  202106000700  movem    2, 700(6)       ;"01& ' "
016522:  202046000712  movem    1, 712(6)       ;"00F '*"
016523:  260000412536  pushj    0, 412536       ;"6  A5>"
016524:  254000412534  jrst     412534          ;"5@ A5<"
016525:  200206000700  move     4, 700(6)       ;"0"& ' "
016526:  506104000000  hrlm     2, (4)          ;"HQ$   " "QD \0\0"
016527:  312300000664  came     6, 664          ;"93  &T"
016530:  344300412520  aoja     6, 412520       ;"<C A50"
016531:  262000000002  pop      0, 2            ;"60   ""
016532:  254003000000  jrst     (3)             ;"5@#   "
016533:  550206000700  hrrz     4, 700(6)       ;"M"& ' "
016534:  263000000000  popj     0,              ;"68    " ",`\0\0\0"
016535:  550040000002  hrrz     1, 2            ;"M @  ""
016536:  275040000000  subi     1, 0            ;"7H@   " "/\"\0\0\0"
016537:  200206000664  move     4, 664(6)       ;"0"& &T"
016540:  554101000000  hlrz     2, (1)          ;"MA!   "
016541:  322100412546  jumpe    2, 412546       ;":1 A5F"
016542:  200142000000  move     3, (2)          ;"0!B   "
016543:  404140417032  and      3, 417032       ;"@A@AX:"
016544:  317140000004  camg     3, 4            ;"9Y@  $"
016545:  254000412554  jrst     412554          ;"5@ A5L"
016546:  550101000000  hrrz     2, (1)          ;"M!!   "
016547:  322100412554  jumpe    2, 412554       ;":1 A5L"
016550:  200142000000  move     3, (2)          ;"0!B   "
016551:  404140417032  and      3, 417032       ;"@A@AX:"
016552:  313140000004  camle    3, 4            ;"99@  $"
016553:  263000000000  popj     0,              ;"68    " ",`\0\0\0"
016554:  311140000004  caml     3, 4            ;"9)@  $"
016555:  254000412560  jrst     412560          ;"5@ A5P"
016556:  200040000002  move     1, 2            ;"0 @  ""
016557:  254000412546  jrst     412546          ;"5@ A5F"
016560:  262000000002  pop      0, 2            ;"60   ""
016561:  254003000000  jrst     (3)             ;"5@#   "
016562:  242140777766  lsh      3, 777766       ;"41@__V"
016563:  404140417032  and      3, 417032       ;"@A@AX:"
016564:  311140417042  caml     3, 417042       ;"9)@AXB"
016565:  464140417032  orcm     3, 417032       ;"FA@AX:"
016566:  263000000000  popj     0,              ;"68    " ",`\0\0\0"
016567:  404140417032  and      3, 417032       ;"@A@AX:"
016570:  316140417042  camn     3, 417042       ;"9Q@AXB"
016571:  254000412606  jrst     412606          ;"5@ A6&"
016572:  311140417042  caml     3, 417042       ;"9)@AXB"
016573:  464140417032  orcm     3, 417032       ;"FA@AX:"
016574:  514140000002  hrlz     3, 2            ;"IA@  ""
016575:  377000001072  sosg     0, 1072         ;"?X  (Z"
016576:  260000403716  pushj    0, 403716       ;"6  @?."
016577:  202047000000  movem    1, (7)          ;"00G   " " B8\0\0"
016600:  250147000000  exch     3, (7)          ;"5!G   "
016601:  250340000002  exch     7, 2            ;"5#@  ""
016602:  540100000002  hrr      2, 2            ;"L!   ""
016603:  504100417004  hrl      2, 417004       ;"HA AX$"
016604:  263000000000  popj     0,              ;"68    " ",`\0\0\0"
016605:  200100417042  move     2, 417042       ;"0! AXB"
016606:  322040412610  jumpe    1, 412610       ;":0@A6("
016607:  200100417044  move     2, 417044       ;"0! AXD"
016610:  263000000000  popj     0,              ;"68    " ",`\0\0\0"
016611:  200042000000  move     1, (2)          ;"0 B   "
016612:  200142000000  move     3, (2)          ;"0!B   "
016613:  377000001072  sosg     0, 1072         ;"?X  (Z"
016614:  260000403716  pushj    0, 403716       ;"6  @?."
016615:  202047000000  movem    1, (7)          ;"00G   " " B8\0\0"
016616:  250147000000  exch     3, (7)          ;"5!G   "
016617:  250340000002  exch     7, 2            ;"5#@  ""
016620:  504140001130  hrl      3, 1130         ;"HA@ )8"
016621:  202142000000  movem    3, (2)          ;"01B   "
016622:  550040000002  hrrz     1, 2            ;"M @  ""
016623:  275040001336  subi     1, 1336         ;"7H@ +>"
016624:  241040777766  rot      1, 777766       ;"4(@__V"
016625:  270040417112  add      1, 417112       ;"7 @AY*"
016626:  512042000000  hllzm    1, (2)          ;"I0B   "
016627:  263000000000  popj     0,              ;"68    " ",`\0\0\0"
016630:  550042000000  hrrz     1, (2)          ;"M B   "
016631:  322040412642  jumpe    1, 412642       ;":0@A6B"
016632:  200141000000  move     3, (1)          ;"0!A   "
016633:  202142000000  movem    3, (2)          ;"01B   "
016634:  200141000000  move     3, (1)          ;"0!A   "
016635:  202142000000  movem    3, (2)          ;"01B   "
016636:  350000001072  aos      0, 1072         ;"=   (Z"
016637:  202341000000  movem    7, (1)          ;"03A   "
016640:  200340000000  move     7, 0            ;"0#@   "
016641:  263000000000  popj     0,              ;"68    " ",`\0\0\0"
016642:  200042000000  move     1, (2)          ;"0 B   "
016643:  135140417126  ldb      3, 417126       ;"+I@AY6"
016644:  313140417006  camle    3, 417006       ;"99@AX&"
016645:  254000412672  jrst     412672          ;"5@ A6Z"
016646:  322140412672  jumpe    3, 412672       ;":1@A6Z"
016647:  550201000000  hrrz     4, (1)          ;"M"!   "
016650:  363203412652  sojle    4, 412652(3)    ;">:#A6J"
016651:  542201000000  hrrm     4, (1)          ;"L2!   "
016652:  254000412672  jrst     412672          ;"5@ A6Z"
016653:  254000412670  jrst     412670          ;"5@ A6X"
016654:  254000412656  jrst     412656          ;"5@ A6N"
016655:  254000412666  jrst     412666          ;"5@ A6V"
016656:  202100000626  movem    2, 626          ;"01  &6"
016657:  554141000000  hlrz     3, (1)          ;"MAA   "
016660:  202140000626  movem    3, 626          ;"01@ &6"
016661:  260000412750  pushj    0, 412750       ;"6  A7H"
016662:  200100000626  move     2, 626          ;"0!  &6"
016663:  200042000000  move     1, (2)          ;"0 B   "
016664:  254000412672  jrst     412672          ;"5@ A6Z"
016665:  260000413002  pushj    0, 413002       ;"6  A8""
016666:  254000412672  jrst     412672          ;"5@ A6Z"
016667:  350000001072  aos      0, 1072         ;"=   (Z"
016670:  202341000000  movem    7, (1)          ;"03A   "
016671:  200340000000  move     7, 0            ;"0#@   "
016672:  621040001776  tlz      1, 1776         ;"R(@ /^"
016673:  514140417010  hrlz     3, 417010       ;"IA@AX("
016674:  434040000002  or       1, 2            ;"C@@  ""
016675:  512042000000  hllzm    1, (2)          ;"I0B   "
016676:  263000000000  popj     0,              ;"68    " ",`\0\0\0"
016677:  200200000664  move     4, 664          ;"0"  &T"
016700:  265240412452  jsp      5, 412452       ;"6J@A4J"
016701:  260000417146  pushj    0, 417146       ;"6  AYF"
016702:  264000001006  jsr      1006            ;"6@  (&"
016703:  260000404144  pushj    0, 404144       ;"6  @AD"
016704:  241040777766  rot      1, 777766       ;"4(@__V"
016705:  404040417032  and      1, 417032       ;"@@@AX:"
016706:  317200417076  camg     4, 417076       ;"9Z AX^"
016707:  202044000664  movem    1, 664(4)       ;"00D &T"
016710:  367200412700  sojg     4, 412700       ;">Z A7 "
016711:  263000000000  popj     0,              ;"68    " ",`\0\0\0"
016712:  550300000004  hrrz     6, 4            ;"M#   $"
016713:  322300412726  jumpe    6, 412726       ;":3 A76"
016714:  200200000006  move     4, 6            ;"0"   &"
016715:  307200001050  caig     4, 1050         ;"8Z  (H"
016716:  260000400050  pushj    0, 400050       ;"6  @ H"
016717:  311200001072  caml     4, 1072         ;"9*  (Z"
016720:  260000400050  pushj    0, 400050       ;"6  @ H"
016721:  350000001072  aos      0, 1072         ;"=   (Z"
016722:  550304000000  hrrz     6, (4)          ;"M#$   " "Z\f \0\0"
016723:  326300412714  jumpn    6, 412714       ;":S A7,"
016724:  542344000000  hrrm     7, (4)          ;"L3D   " "XN \0\0"
016725:  550340000004  hrrz     7, 4            ;"M#@  $"
016726:  263000000000  popj     0,              ;"68    " ",`\0\0\0"
016727:  265240412452  jsp      5, 412452       ;"6J@A4J"
016730:  551140000400  hrrzi    3, 400          ;"M)@ $ "
016731:  514140000002  hrlz     3, 2            ;"IA@  ""
016732:  404140417034  and      3, 417034       ;"@A@AX<"
016733:  377000001072  sosg     0, 1072         ;"?X  (Z"
016734:  260000403716  pushj    0, 403716       ;"6  @?."
016735:  202047000000  movem    1, (7)          ;"00G   " " B8\0\0"
016736:  250147000000  exch     3, (7)          ;"5!G   "
016737:  250340000002  exch     7, 2            ;"5#@  ""
016740:  550050000000  hrrz     1, (10)         ;"M H   "
016741:  554110000000  hlrz     2, (10)         ;"MA(   "
016742:  326040412746  jumpn    1, 412746       ;":P@A7F"
016743:  542150000000  hrrm     3, (10)         ;"L1H   " "XF@\0\0"
016744:  254000412746  jrst     412746          ;"5@ A7F"
016745:  542142000000  hrrm     3, (2)          ;"L1B   "
016746:  506150000000  hrlm     3, (10)         ;"HQH   " "QF@\0\0"
016747:  263000000000  popj     0,              ;"68    " ",`\0\0\0"
016750:  200141000000  move     3, (1)          ;"0!A   "
016751:  326140412756  jumpn    3, 412756       ;":Q@A7N"
016752:  350000001072  aos      0, 1072         ;"=   (Z"
016753:  202341000000  movem    7, (1)          ;"03A   "
016754:  200340000000  move     7, 0            ;"0#@   "
016755:  263000000000  popj     0,              ;"68    " ",`\0\0\0"
016756:  400140000000  setz     3,              ;"@!@   "
016757:  202040000700  movem    1, 700          ;"00@ ' "
016760:  550041000000  hrrz     1, (1)          ;"M A   "
016761:  271140000000  addi     3, 0            ;"7)@   " ".&\0\0\0"
016762:  202043000700  movem    1, 700(3)       ;"00C ' "
016763:  312140000626  came     3, 626          ;"91@ &6"
016764:  254000412760  jrst     412760          ;"5@ A7P"
016765:  200240000000  move     5, 0            ;"0"@   " " \n\0\0\0"
016766:  260000412712  pushj    0, 412712       ;"6  A7*"
016767:  275140000000  subi     3, 0            ;"7I@   " "/&\0\0\0"
016770:  200243000700  move     5, 700(3)       ;"0"C ' "
016771:  550045000000  hrrz     1, (5)          ;"M E   "
016772:  350000001072  aos      0, 1072         ;"=   (Z"
016773:  202345000000  movem    7, (5)          ;"03E   " " N(\0\0"
016774:  200340000004  move     7, 4            ;"0#@  $"
016775:  322140413002  jumpe    3, 413002       ;":1@A8""
016776:  202043000700  movem    1, 700(3)       ;"00C ' "
016777:  322040412770  jumpe    1, 412770       ;":0@A7X"
017000:  254000412760  jrst     412760          ;"5@ A7P"
017001:  263000000000  popj     0,              ;"68    " ",`\0\0\0"
017002:  544241000000  hlr      5, (1)          ;"LBA   "
017003:  260000412712  pushj    0, 412712       ;"6  A7*"
017004:  540241000000  hrr      5, (1)          ;"L"A   "
017005:  260000412712  pushj    0, 412712       ;"6  A7*"
017006:  200240000000  move     5, 0            ;"0"@   " " \n\0\0\0"
017007:  350000001072  aos      0, 1072         ;"=   (Z"
017010:  202345000000  movem    7, (5)          ;"03E   " " N(\0\0"
017011:  200340000004  move     7, 4            ;"0#@  $"
017012:  263000000000  popj     0,              ;"68    " ",`\0\0\0"
017013:  350000001072  aos      0, 1072         ;"=   (Z"
017014:  200050000000  move     1, (10)         ;"0 H   "
017015:  250350000000  exch     7, (10)         ;"5#H   "
017016:  250340000010  exch     7, 10           ;"5#@  ("
017017:  350000001072  aos      0, 1072         ;"=   (Z"
017020:  200101000000  move     2, (1)          ;"0!!   "
017021:  250341000000  exch     7, (1)          ;"5#A   "
017022:  250340000000  exch     7, 0            ;"5#@   "
017023:  403200000664  setzb    4, 664          ;"@:  &T"
017024:  627100777776  tlzn     2, 777776       ;"RY __^"
017025:  263000000000  popj     0,              ;"68    " ",`\0\0\0"
017026:  271200000000  addi     4, 0            ;"7*    " ".(\0\0\0"
017027:  350000001072  aos      0, 1072         ;"=   (Z"
017030:  200141000000  move     3, (1)          ;"0!A   "
017031:  250341000000  exch     7, (1)          ;"5#A   "
017032:  250340000000  exch     7, 0            ;"5#@   "
017033:  404140417032  and      3, 417032       ;"@A@AX:"
017034:  202144000664  movem    3, 664(4)       ;"01D &T"
017035:  602040777776  trne     1, 777776       ;"P0@__^"
017036:  344200413030  aoja     4, 413030       ;"<B A88"
017037:  202200000664  movem    4, 664          ;"02  &T"
017040:  263000000000  popj     0,              ;"68    " ",`\0\0\0"
017041:  606100777776  trnn     2, 777776       ;"PQ __^"
017042:  254000413204  jrst     413204          ;"5@ A:$"
017043:  200040000664  move     1, 664          ;"0 @ &T"
017044:  271040000000  addi     1, 0            ;"7(@   " ".\"\0\0\0"
017045:  311040001072  caml     1, 1072         ;"9(@ (Z"
017046:  263000000000  popj     0,              ;"68    " ",`\0\0\0"
017047:  554142000000  hlrz     3, (2)          ;"MAB   "
017050:  316140001130  camn     3, 1130         ;"9Q@ )8"
017051:  254000413056  jrst     413056          ;"5@ A8N"
017052:  271040000000  addi     1, 0            ;"7(@   " ".\"\0\0\0"
017053:  311040001072  caml     1, 1072         ;"9(@ (Z"
017054:  263000000000  popj     0,              ;"68    " ",`\0\0\0"
017055:  260000412612  pushj    0, 412612       ;"6  A6*"
017056:  336000000664  skipn    0, 664          ;";P  &T"
017057:  254000413162  jrst     413162          ;"5@ A9R"
017060:  200142000000  move     3, (2)          ;"0!B   "
017061:  135040417130  ldb      1, 417130       ;"+H@AY8"
017062:  514200417006  hrlz     4, 417006       ;"IB AX&"
017063:  312040417006  came     1, 417006       ;"90@AX&"
017064:  254000413072  jrst     413072          ;"5@ A8Z"
017065:  554043000000  hlrz     1, (3)          ;"M@C   "
017066:  316040000664  camn     1, 664          ;"9P@ &T"
017067:  254000413142  jrst     413142          ;"5@ A9B"
017070:  254000413076  jrst     413076          ;"5@ A8^"
017071:  312040417010  came     1, 417010       ;"90@AX("
017072:  254000413076  jrst     413076          ;"5@ A8^"
017073:  603140000020  tlne     3, 20           ;"P9@  0"
017074:  661200000020  tlo      4, 20           ;"V*   0"
017075:  261000000004  push     0, 4            ;"6(   $"
017076:  260000412642  pushj    0, 412642       ;"6  A6B"
017077:  370000001072  sos      0, 1072         ;"?   (Z"
017100:  200040000006  move     1, 6            ;"0 @  &"
017101:  542042000000  hrrm     1, (2)          ;"L0B   "
017102:  200347000000  move     7, (7)          ;"0#G   "
017103:  402001000000  setzm    (1)             ;"@0!   "
017104:  504140000664  hrl      3, 664          ;"HA@ &T"
017105:  541140000000  hrri     3, 0            ;"L)@   " "X&\0\0\0"
017106:  202141000000  movem    3, (1)          ;"01A   "
017107:  500042000000  hll      1, (2)          ;"H B   "
017110:  621040001776  tlz      1, 1776         ;"R(@ /^"
017111:  262000000002  pop      0, 2            ;"60   ""
017112:  434040000002  or       1, 2            ;"C@@  ""
017113:  202042000000  movem    1, (2)          ;"00B   "
017114:  201200000000  movei    4, 0            ;"0*    " " (\0\0\0"
017115:  200100000000  move     2, 0            ;"0!    "
017116:  370000001072  sos      0, 1072         ;"?   (Z"
017117:  200040000006  move     1, 6            ;"0 @  &"
017120:  542042000000  hrrm     1, (2)          ;"L0B   "
017121:  200347000000  move     7, (7)          ;"0#G   "
017122:  402001000000  setzm    (1)             ;"@0!   "
017123:  506042000000  hrlm     1, (2)          ;"HPB   "
017124:  200144000664  move     3, 664(4)       ;"0!D &T"
017125:  502141000000  hllm     3, (1)          ;"H1A   "
017126:  200100000000  move     2, 0            ;"0!    "
017127:  312200000664  came     4, 664          ;"92  &T"
017130:  344200413116  aoja     4, 413116       ;"<B A9."
017131:  200140000640  move     3, 640          ;"0!@ &@"
017132:  202142000000  movem    3, (2)          ;"01B   "
017133:  514140000640  hrlz     3, 640          ;"IA@ &@"
017134:  336000000636  skipn    0, 636          ;";P  &>"
017135:  505140000400  hrli     3, 400          ;"HI@ $ "
017136:  404140417034  and      3, 417034       ;"@A@AX<"
017137:  437142000000  orb      3, (2)          ;"CYB   "
017140:  262000000002  pop      0, 2            ;"60   ""
017141:  254003000000  jrst     (3)             ;"5@#   "
017142:  202140000624  movem    3, 624          ;"01@ &4"
017143:  260000412516  pushj    0, 412516       ;"6  A5."
017144:  254000413152  jrst     413152          ;"5@ A9J"
017145:  200142000000  move     3, (2)          ;"0!B   "
017146:  404140417032  and      3, 417032       ;"@A@AX:"
017147:  502142000000  hllm     3, (2)          ;"H1B   "
017150:  254000413132  jrst     413132          ;"5@ A9:"
017151:  200100000000  move     2, 0            ;"0!    "
017152:  370000001072  sos      0, 1072         ;"?   (Z"
017153:  540042000000  hrr      1, (2)          ;"L B   "
017154:  542342000000  hrrm     7, (2)          ;"L3B   "
017155:  250047000000  exch     1, (7)          ;"5 G   "
017156:  250340000000  exch     7, 0            ;"5#@   "
017157:  200200000700  move     4, 700          ;"0"  ' "
017160:  200104000700  move     2, 700(4)       ;"0!$ ' "
017161:  254000413124  jrst     413124          ;"5@ A94"
017162:  260000412642  pushj    0, 412642       ;"6  A6B"
017163:  336000000636  skipn    0, 636          ;";P  &>"
017164:  254000413206  jrst     413206          ;"5@ A:&"
017165:  370000001072  sos      0, 1072         ;"?   (Z"
017166:  200040000006  move     1, 6            ;"0 @  &"
017167:  542042000000  hrrm     1, (2)          ;"L0B   "
017170:  200347000000  move     7, (7)          ;"0#G   "
017171:  402001000000  setzm    (1)             ;"@0!   "
017172:  500042000000  hll      1, (2)          ;"H B   "
017173:  621040001776  tlz      1, 1776         ;"R(@ /^"
017174:  514140417004  hrlz     3, 417004       ;"IA@AX$"
017175:  434040000002  or       1, 2            ;"C@@  ""
017176:  202042000000  movem    1, (2)          ;"00B   "
017177:  200140000640  move     3, 640          ;"0!@ &@"
017200:  202141000000  movem    3, (1)          ;"01A   "
017201:  514140000640  hrlz     3, 640          ;"IA@ &@"
017202:  541140000000  hrri     3, 0            ;"L)@   " "X&\0\0\0"
017203:  202141000000  movem    3, (1)          ;"01A   "
017204:  262000000002  pop      0, 2            ;"60   ""
017205:  254003000000  jrst     (3)             ;"5@#   "
017206:  510042000000  hllz     1, (2)          ;"I B   "
017207:  621040001776  tlz      1, 1776         ;"R(@ /^"
017210:  200140417042  move     3, 417042       ;"0!@AXB"
017211:  332000000640  skipe    0, 640          ;";0  &@"
017212:  200140417044  move     3, 417044       ;"0!@AXD"
017213:  434040000002  or       1, 2            ;"C@@  ""
017214:  202042000000  movem    1, (2)          ;"00B   "
017215:  254000413204  jrst     413204          ;"5@ A:$"
017216:  550141000000  hrrz     3, (1)          ;"M!A   "
017217:  316140000002  camn     3, 2            ;"9Q@  ""
017220:  254000413224  jrst     413224          ;"5@ A:4"
017221:  200040000002  move     1, 2            ;"0 @  ""
017222:  254000413216  jrst     413216          ;"5@ A:."
017223:  540142000000  hrr      3, (2)          ;"L!B   "
017224:  542141000000  hrrm     3, (1)          ;"L1A   "
017225:  350000001072  aos      0, 1072         ;"=   (Z"
017226:  202342000000  movem    7, (2)          ;"03B   "
017227:  200340000002  move     7, 2            ;"0#@  ""
017230:  200106000700  move     2, 700(6)       ;"0!& ' "
017231:  200046000712  move     1, 712(6)       ;"0 F '*"
017232:  506142000000  hrlm     3, (2)          ;"HQB   "
017233:  550142000000  hrrz     3, (2)          ;"M!B   "
017234:  326140413250  jumpn    3, 413250       ;":Q@A:H"
017235:  367300413216  sojg     6, 413216       ;">[ A:."
017236:  350000001072  aos      0, 1072         ;"=   (Z"
017237:  202342000000  movem    7, (2)          ;"03B   "
017240:  200340000002  move     7, 2            ;"0#@  ""
017241:  200100000624  move     2, 624          ;"0!  &4"
017242:  200042000000  move     1, (2)          ;"0 B   "
017243:  621040001776  tlz      1, 1776         ;"R(@ /^"
017244:  514140417010  hrlz     3, 417010       ;"IA@AX("
017245:  434040000002  or       1, 2            ;"C@@  ""
017246:  512042000000  hllzm    1, (2)          ;"I0B   "
017247:  263000000000  popj     0,              ;"68    " ",`\0\0\0"
017250:  135040417126  ldb      1, 417126       ;"+H@AY6"
017251:  256001413252  xct      413252(1)       ;"5P!A:J"
017252:  263000000000  popj     0,              ;"68    " ",`\0\0\0"
017253:  254000413272  jrst     413272          ;"5@ A:Z"
017254:  263000000000  popj     0,              ;"68    " ",`\0\0\0"
017255:  263000000000  popj     0,              ;"68    " ",`\0\0\0"
017256:  263000000000  popj     0,              ;"68    " ",`\0\0\0"
017257:  263000000000  popj     0,              ;"68    " ",`\0\0\0"
017260:  263000000000  popj     0,              ;"68    " ",`\0\0\0"
017261:  254000413300  jrst     413300          ;"5@ A; "
017262:  254000413302  jrst     413302          ;"5@ A;""
017263:  254000413302  jrst     413302          ;"5@ A;""
017264:  254000413304  jrst     413304          ;"5@ A;$"
017265:  254000413306  jrst     413306          ;"5@ A;&"
017266:  263000000000  popj     0,              ;"68    " ",`\0\0\0"
017267:  263000000000  popj     0,              ;"68    " ",`\0\0\0"
017270:  254000413314  jrst     413314          ;"5@ A;,"
017271:  263000000000  popj     0,              ;"68    " ",`\0\0\0"
017272:  603100776000  tlne     2, 776000       ;"P9 _P "
017273:  263000000000  popj     0,              ;"68    " ",`\0\0\0"
017274:  350000001072  aos      0, 1072         ;"=   (Z"
017275:  202342000000  movem    7, (2)          ;"03B   "
017276:  200340000002  move     7, 2            ;"0#@  ""
017277:  263000000000  popj     0,              ;"68    " ",`\0\0\0"
017300:  260000412642  pushj    0, 412642       ;"6  A6B"
017301:  254000412630  jrst     412630          ;"5@ A68"
017302:  200240000002  move     5, 2            ;"0"@  ""
017303:  254000412712  jrst     412712          ;"5@ A7*"
017304:  200040000002  move     1, 2            ;"0 @  ""
017305:  254000413002  jrst     413002          ;"5@ A8""
017306:  606100777776  trnn     2, 777776       ;"PQ __^"
017307:  263000000000  popj     0,              ;"68    " ",`\0\0\0"
017310:  350000001072  aos      0, 1072         ;"=   (Z"
017311:  202342000000  movem    7, (2)          ;"03B   "
017312:  200340000002  move     7, 2            ;"0#@  ""
017313:  263000000000  popj     0,              ;"68    " ",`\0\0\0"
017314:  504400000002  hrl      10, 2           ;"HD   ""
017315:  550042000000  hrrz     1, (2)          ;"M B   "
017316:  322040413322  jumpe    1, 413322       ;":0@A;2"
017317:  200100000000  move     2, 0            ;"0!    "
017320:  254000413316  jrst     413316          ;"5@ A;."
017321:  542402000000  hrrm     10, (2)         ;"L4"   "
017322:  557000000010  hlrzs    0, 10           ;"MX   ("
017323:  254000413250  jrst     413250          ;"5@ A:H"
017324:  264000000774  jsr      774             ;"6@  '\"
017325:  263000000000  popj     0,              ;"68    " ",`\0\0\0"
017326:  202040000642  movem    1, 642          ;"00@ &B"
017327:  202100000642  movem    2, 642          ;"01  &B"
017330:  550200000660  hrrz     4, 660          ;"M"  &P"
017331:  274200417070  sub      4, 417070       ;"7B AXX"
017332:  551040001312  hrrzi    1, 1312         ;"M(@ +*"
017333:  254004413334  jrst     413334(4)       ;"5@$A;<"
017334:  260000404100  pushj    0, 404100       ;"6  @A "
017335:  254000413340  jrst     413340          ;"5@ A;@"
017336:  254000413342  jrst     413342          ;"5@ A;B"
017337:  551040001314  hrrzi    1, 1314         ;"M(@ +,"
017340:  332000000642  skipe    0, 642          ;";0  &B"
017341:  263000000000  popj     0,              ;"68    " ",`\0\0\0"
017342:  200140000642  move     3, 642          ;"0!@ &B"
017343:  260000413406  pushj    0, 413406       ;"6  A<&"
017344:  254000413362  jrst     413362          ;"5@ A;R"
017345:  550200000660  hrrz     4, 660          ;"M"  &P"
017346:  302200000010  caie     4, 10           ;"82   ("
017347:  254000413356  jrst     413356          ;"5@ A;N"
017350:  542100000664  hrrm     2, 664          ;"L1  &T"
017351:  506040000664  hrlm     1, 664          ;"HP@ &T"
017352:  200040000002  move     1, 2            ;"0 @  ""
017353:  200140000642  move     3, 642          ;"0!@ &B"
017354:  260000413420  pushj    0, 413420       ;"6  A<0"
017355:  254000413362  jrst     413362          ;"5@ A;R"
017356:  542100000662  hrrm     2, 662          ;"L1  &R"
017357:  506040000662  hrlm     1, 662          ;"HP@ &R"
017360:  262000000004  pop      0, 4            ;"60   $"
017361:  254005000002  jrst     2(5)            ;"5@%  ""
017362:  262000000004  pop      0, 4            ;"60   $"
017363:  254005000000  jrst     (5)             ;"5@%   "
017364:  135040417144  ldb      1, 417144       ;"+H@AYD"
017365:  202040000660  movem    1, 660          ;"00@ &P"
017366:  550100000002  hrrz     2, 2            ;"M!   ""
017367:  402000000660  setzm    660             ;"@0  &P"
017370:  322100413404  jumpe    2, 413404       ;":1 A<$"
017371:  200042000000  move     1, (2)          ;"0 B   "
017372:  574142000000  hlre     3, (2)          ;"OAB   "
017373:  202040000660  movem    1, 660          ;"00@ &P"
017374:  202140000662  movem    3, 662          ;"01@ &R"
017375:  350000001072  aos      0, 1072         ;"=   (Z"
017376:  202342000000  movem    7, (2)          ;"03B   "
017377:  200340000002  move     7, 2            ;"0#@  ""
017400:  200100000660  move     2, 660          ;"0!  &P"
017401:  302100000012  caie     2, 12           ;"81   *"
017402:  254000413324  jrst     413324          ;"5@ A;4"
017403:  262000000004  pop      0, 4            ;"60   $"
017404:  254005000002  jrst     2(5)            ;"5@%  ""
017405:  554101000000  hlrz     2, (1)          ;"MA!   "
017406:  322100413410  jumpe    2, 413410       ;":1 A<("
017407:  315142000000  camge    3, (2)          ;"9IB   "
017410:  263000000000  popj     0,              ;"68    " ",`\0\0\0"
017411:  317142000000  camg     3, (2)          ;"9YB   "
017412:  254000413416  jrst     413416          ;"5@ A<."
017413:  200040000002  move     1, 2            ;"0 @  ""
017414:  254000413406  jrst     413406          ;"5@ A<&"
017415:  262000000004  pop      0, 4            ;"60   $"
017416:  254004000000  jrst     (4)             ;"5@$   "
017417:  550101000000  hrrz     2, (1)          ;"M!!   "
017420:  322100413422  jumpe    2, 413422       ;":1 A<2"
017421:  315142000000  camge    3, (2)          ;"9IB   "
017422:  263000000000  popj     0,              ;"68    " ",`\0\0\0"
017423:  317142000000  camg     3, (2)          ;"9YB   "
017424:  254000413416  jrst     413416          ;"5@ A<."
017425:  200040000002  move     1, 2            ;"0 @  ""
017426:  254000413420  jrst     413420          ;"5@ A<0"
017427:  554120000650  hlrz     2, @650         ;"MA0 &H"
017430:  322100413532  jumpe    2, 413532       ;":1 A=:"
017431:  550120000650  hrrz     2, @650         ;"M!0 &H"
017432:  200142000000  move     3, (2)          ;"0!B   "
017433:  607140777000  tlnn     3, 777000       ;"PY@_X "
017434:  254000413442  jrst     413442          ;"5@ A<B"
017435:  542160000650  hrrm     3, @650         ;"L1P &H"
017436:  350000001072  aos      0, 1072         ;"=   (Z"
017437:  202342000000  movem    7, (2)          ;"03B   "
017440:  200340000002  move     7, 2            ;"0#@  ""
017441:  263000000000  popj     0,              ;"68    " ",`\0\0\0"
017442:  200042000000  move     1, (2)          ;"0 B   "
017443:  200103000000  move     2, (3)          ;"0!#   "
017444:  200243000000  move     5, (3)          ;"0"C   "
017445:  200205000000  move     4, (5)          ;"0"%   "
017446:  200305000000  move     6, (5)          ;"0#%   " " \f(\0\0"
017447:  554140000002  hlrz     3, 2            ;"MA@  ""
017450:  404140417032  and      3, 417032       ;"@A@AX:"
017451:  311140417042  caml     3, 417042       ;"9)@AXB"
017452:  464140417032  orcm     3, 417032       ;"FA@AX:"
017453:  554240000004  hlrz     5, 4            ;"MB@  $"
017454:  404240417032  and      5, 417032       ;"@B@AX:"
017455:  311240417042  caml     5, 417042       ;"9*@AXB"
017456:  464240417032  orcm     5, 417032       ;"FB@AX:"
017457:  554300000006  hlrz     6, 6            ;"MC   &"
017460:  404300417032  and      6, 417032       ;"@C AX:"
017461:  311300417042  caml     6, 417042       ;"9+ AXB"
017462:  464300417032  orcm     6, 417032       ;"FC AX:"
017463:  202100000652  movem    2, 652          ;"01  &J"
017464:  202240000652  movem    5, 652          ;"02@ &J"
017465:  202200000654  movem    4, 654          ;"02  &L"
017466:  202300000654  movem    6, 654          ;"03  &L"
017467:  264000001004  jsr      1004            ;"6@  ($"
017470:  326100413504  jumpn    2, 413504       ;":Q A=$"
017471:  540120000650  hrr      2, @650         ;"L!0 &H"
017472:  540142000000  hrr      3, (2)          ;"L!B   "
017473:  350000001072  aos      0, 1072         ;"=   (Z"
017474:  202342000000  movem    7, (2)          ;"03B   "
017475:  200340000002  move     7, 2            ;"0#@  ""
017476:  550103000000  hrrz     2, (3)          ;"M!#   "
017477:  350000001072  aos      0, 1072         ;"=   (Z"
017500:  202343000000  movem    7, (3)          ;"03C   "
017501:  200340000002  move     7, 2            ;"0#@  ""
017502:  542120000650  hrrm     2, @650         ;"L10 &H"
017503:  254000413432  jrst     413432          ;"5@ A<:"
017504:  202100000656  movem    2, 656          ;"01  &N"
017505:  200200000652  move     4, 652          ;"0"  &J"
017506:  200300000652  move     6, 652          ;"0#  &J"
017507:  264000000460  jsr      460             ;"6@  $P"
017510:  434040000002  or       1, 2            ;"C@@  ""
017511:  200200000654  move     4, 654          ;"0"  &L"
017512:  200300000654  move     6, 654          ;"0#  &L"
017513:  264000001004  jsr      1004            ;"6@  ($"
017514:  322100413524  jumpe    2, 413524       ;":1 A=4"
017515:  312100000656  came     2, 656          ;"91  &N"
017516:  254000413522  jrst     413522          ;"5@ A=2"
017517:  317140417046  camg     3, 417046       ;"9Y@AXF"
017520:  254000413524  jrst     413524          ;"5@ A=4"
017521:  200040000004  move     1, 4            ;"0 @  $"
017522:  200140000006  move     3, 6            ;"0!@  &"
017523:  315140417050  camge    3, 417050       ;"9I@AXH"
017524:  403040000002  setzb    1, 2            ;"@8@  ""
017525:  550120000650  hrrz     2, @650         ;"M!0 &H"
017526:  202042000000  movem    1, (2)          ;"00B   "
017527:  620140777000  trz      3, 777000       ;"R!@_X "
017530:  506142000000  hrlm     3, (2)          ;"HQB   "
017531:  263000000000  popj     0,              ;"68    " ",`\0\0\0"
017532:  550120000650  hrrz     2, @650         ;"M!0 &H"
017533:  200042000000  move     1, (2)          ;"0 B   "
017534:  574142000000  hlre     3, (2)          ;"OAB   "
017535:  200200417060  move     4, 417060       ;"0" AXP"
017536:  400300000000  setz     6,              ;"@#    " "@\f\0\0\0"
017537:  264000000502  jsr      502             ;"6@  %""
017540:  550120000650  hrrz     2, @650         ;"M!0 &H"
017541:  202042000000  movem    1, (2)          ;"00B   "
017542:  516142000000  hrlzm    3, (2)          ;"IQB   "
017543:  322040413546  jumpe    1, 413546       ;":0@A=F"
017544:  263000000000  popj     0,              ;"68    " ",`\0\0\0"
017545:  402020000650  setzm    @650            ;"@00 &H"
017546:  350000001072  aos      0, 1072         ;"=   (Z"
017547:  202342000000  movem    7, (2)          ;"03B   "
017550:  200340000002  move     7, 2            ;"0#@  ""
017551:  263000000000  popj     0,              ;"68    " ",`\0\0\0"
017552:  135040417140  ldb      1, 417140       ;"+H@AY@"
017553:  322040413556  jumpe    1, 413556       ;":0@A=N"
017554:  260000413002  pushj    0, 413002       ;"6  A8""
017555:  402000001326  setzm    1326            ;"@0  +6"
017556:  550040001320  hrrz     1, 1320         ;"M @ +0"
017557:  326040413562  jumpn    1, 413562       ;":P@A=R"
017560:  402000001322  setzm    1322            ;"@0  +2"
017561:  263000000000  popj     0,              ;"68    " ",`\0\0\0"
017562:  350000001072  aos      0, 1072         ;"=   (Z"
017563:  200101000000  move     2, (1)          ;"0!!   "
017564:  250341000000  exch     7, (1)          ;"5#A   "
017565:  250340000000  exch     7, 0            ;"5#@   "
017566:  202100001322  movem    2, 1322         ;"01  +2"
017567:  512040001324  hllzm    1, 1324         ;"I0@ +4"
017570:  350000001072  aos      0, 1072         ;"=   (Z"
017571:  200101000000  move     2, (1)          ;"0!!   "
017572:  250341000000  exch     7, (1)          ;"5#A   "
017573:  250340000000  exch     7, 0            ;"5#@   "
017574:  202100001324  movem    2, 1324         ;"01  +4"
017575:  546040001322  hlrm     1, 1322         ;"LP@ +2"
017576:  350000001072  aos      0, 1072         ;"=   (Z"
017577:  200101000000  move     2, (1)          ;"0!!   "
017600:  250341000000  exch     7, (1)          ;"5#A   "
017601:  250340000000  exch     7, 0            ;"5#@   "
017602:  202100001326  movem    2, 1326         ;"01  +6"
017603:  502040001322  hllm     1, 1322         ;"H0@ +2"
017604:  552040001320  hrrzm    1, 1320         ;"M0@ +0"
017605:  135040417136  ldb      1, 417136       ;"+H@AY>"
017606:  202040001316  movem    1, 1316         ;"00@ +."
017607:  263000000000  popj     0,              ;"68    " ",`\0\0\0"
017610:  200100001316  move     2, 1316         ;"0!  +."
017611:  137100417136  dpb      2, 417136       ;"+Y AY>"
017612:  550040001320  hrrz     1, 1320         ;"M @ +0"
017613:  200100001326  move     2, 1326         ;"0!  +6"
017614:  370000001072  sos      0, 1072         ;"?   (Z"
017615:  202107000000  movem    2, (7)          ;"01'   " " D8\0\0"
017616:  250047000000  exch     1, (7)          ;"5 G   "
017617:  250340000000  exch     7, 0            ;"5#@   "
017620:  200100001322  move     2, 1322         ;"0!  +2"
017621:  502101000000  hllm     2, (1)          ;"H1!   "
017622:  200100001324  move     2, 1324         ;"0!  +4"
017623:  370000001072  sos      0, 1072         ;"?   (Z"
017624:  202107000000  movem    2, (7)          ;"01'   " " D8\0\0"
017625:  250047000000  exch     1, (7)          ;"5 G   "
017626:  250340000000  exch     7, 0            ;"5#@   "
017627:  200100001322  move     2, 1322         ;"0!  +2"
017630:  506101000000  hrlm     2, (1)          ;"HQ!   "
017631:  200100001322  move     2, 1322         ;"0!  +2"
017632:  370000001072  sos      0, 1072         ;"?   (Z"
017633:  202107000000  movem    2, (7)          ;"01'   " " D8\0\0"
017634:  250047000000  exch     1, (7)          ;"5 G   "
017635:  250340000000  exch     7, 0            ;"5#@   "
017636:  200100001324  move     2, 1324         ;"0!  +4"
017637:  502101000000  hllm     2, (1)          ;"H1!   "
017640:  552040001320  hrrzm    1, 1320         ;"M0@ +0"
017641:  263000000000  popj     0,              ;"68    " ",`\0\0\0"
017642:  200040001322  move     1, 1322         ;"0 @ +2"
017643:  574140001324  hlre     3, 1324         ;"OA@ +4"
017644:  264000000774  jsr      774             ;"6@  '\"
017645:  260000404170  pushj    0, 404170       ;"6  @AX"
017646:  202040000642  movem    1, 642          ;"00@ &B"
017647:  202100000642  movem    2, 642          ;"01  &B"
017650:  200140000000  move     3, 0            ;"0!@   "
017651:  551040001312  hrrzi    1, 1312         ;"M(@ +*"
017652:  260000413406  pushj    0, 413406       ;"6  A<&"
017653:  260000404202  pushj    0, 404202       ;"6  @B""
017654:  200040000002  move     1, 2            ;"0 @  ""
017655:  200140000642  move     3, 642          ;"0!@ &B"
017656:  135240417132  ldb      5, 417132       ;"+J@AY:"
017657:  306240000000  cain     5, 0            ;"8R@   " "1J\0\0\0"
017660:  254000413666  jrst     413666          ;"5@ A>V"
017661:  260000413420  pushj    0, 413420       ;"6  A<0"
017662:  260000404202  pushj    0, 404202       ;"6  @B""
017663:  200040000002  move     1, 2            ;"0 @  ""
017664:  263000000000  popj     0,              ;"68    " ",`\0\0\0"
017665:  262000000002  pop      0, 2            ;"60   ""
017666:  254003000000  jrst     (3)             ;"5@#   "
017667:  550100001326  hrrz     2, 1326         ;"M!  +6"
017670:  326100413702  jumpn    2, 413702       ;":Q A?""
017671:  551040001312  hrrzi    1, 1312         ;"M(@ +*"
017672:  200140001324  move     3, 1324         ;"0!@ +4"
017673:  260000413406  pushj    0, 413406       ;"6  A<&"
017674:  263000000000  popj     0,              ;"68    " ",`\0\0\0"
017675:  200040000002  move     1, 2            ;"0 @  ""
017676:  200140001326  move     3, 1326         ;"0!@ +6"
017677:  260000413420  pushj    0, 413420       ;"6  A<0"
017700:  254000413714  jrst     413714          ;"5@ A?,"
017701:  552100001326  hrrzm    2, 1326         ;"M1  +6"
017702:  135240417136  ldb      5, 417136       ;"+J@AY>"
017703:  322240413712  jumpe    5, 413712       ;":2@A?*"
017704:  550102000000  hrrz     2, (2)          ;"M!"   "
017705:  322100413714  jumpe    2, 413714       ;":1 A?,"
017706:  202100001326  movem    2, 1326         ;"01  +6"
017707:  200142000000  move     3, (2)          ;"0!B   "
017710:  202140001326  movem    3, 1326         ;"01@ +6"
017711:  262000000002  pop      0, 2            ;"60   ""
017712:  254003000000  jrst     (3)             ;"5@#   "
017713:  263000000000  popj     0,              ;"68    " ",`\0\0\0"
017714:  550100000002  hrrz     2, 2            ;"M!   ""
017715:  322100413714  jumpe    2, 413714       ;":1 A?,"
017716:  135240417136  ldb      5, 417136       ;"+J@AY>"
017717:  322240413714  jumpe    5, 413714       ;":2@A?,"
017720:  200140001326  move     3, 1326         ;"0!@ +6"
017721:  313142000000  camle    3, (2)          ;"99B   "
017722:  263000000000  popj     0,              ;"68    " ",`\0\0\0"
017723:  254000413706  jrst     413706          ;"5@ A?&"
017724:  134740001120  ildb     17, 1120        ;"+G@ )0"
017725:  305740000100  caige    17, 100         ;"8O@ ! "
017726:  263000000000  popj     0,              ;"68    " ",`\0\0\0"
017727:  303740000116  caile    17, 116         ;"8?@ !."
017730:  263000000000  popj     0,              ;"68    " ",`\0\0\0"
017731:  550760001120  hrrz     17, @1120       ;"M'P )0"
017732:  322740413740  jumpe    17, 413740      ;":7@A?@"
017733:  505740341000  hrli     17, 341000      ;"HO@<( "
017734:  202740001120  movem    17, 1120        ;"07@ )0"
017735:  135740000016  ldb      17, 16          ;"+O@  ."
017736:  263000000000  popj     0,              ;"68    " ",`\0\0\0"
017737:  505740241000  hrli     17, 241000      ;"HO@4( "
017740:  502740001120  hllm     17, 1120        ;"H7@ )0"
017741:  201740000164  movei    17, 164         ;"0/@ !T"
017742:  263000000000  popj     0,              ;"68    " ",`\0\0\0"
017743:  403200000006  setzb    4, 6            ;"@:   &"
017744:  402000001256  setzm    1256            ;"@0  *N"
017745:  200740417120  move     17, 417120      ;"0'@AY0"
017746:  202740001132  movem    17, 1132        ;"07@ ):"
017747:  134740000002  ildb     17, 2           ;"+G@  ""
017750:  136740001132  idpb     17, 1132        ;"+W@ ):"
017751:  306740000026  cain     17, 26          ;"8W@  6"
017752:  350000001256  aos      0, 1256         ;"=   *N"
017753:  554757417202  hlrz     17, 417202(17)  ;"MGOAZ""
017754:  242740777766  lsh      17, 777766      ;"47@__V"
017755:  316100000000  camn     2, 0            ;"9Q    " "3D\0\0\0"
017756:  254000413772  jrst     413772          ;"5@ A?Z"
017757:  136740000004  idpb     17, 4           ;"+W@  $"
017760:  306740000170  cain     17, 170         ;"8W@ !X"
017761:  254000413750  jrst     413750          ;"5@ A?H"
017762:  306740000152  cain     17, 152         ;"8W@ !J"
017763:  254000413750  jrst     413750          ;"5@ A?H"
017764:  306740000146  cain     17, 146         ;"8W@ !F"
017765:  254000413750  jrst     413750          ;"5@ A?H"
017766:  326200413770  jumpn    4, 413770       ;":R A?X"
017767:  200200000004  move     4, 4            ;"0"   $"
017770:  200300000004  move     6, 4            ;"0#   $"
017771:  254000413750  jrst     413750          ;"5@ A?H"
017772:  350140001074  aos      3, 1074         ;"=!@ (\"
017773:  317140417066  camg     3, 417066       ;"9Y@AXV"
017774:  306740000150  cain     17, 150         ;"8W@ !H"
017775:  476000001074  setom    1074            ;"GP  (\"
017776:  402000001254  setzm    1254            ;"@0  *L"
017777:  322200414010  jumpe    4, 414010       ;":2 A@("
020000:  135740000004  ldb      17, 4           ;"+O@  $"
020001:  306740000144  cain     17, 144         ;"8W@ !D"
020002:  254000414010  jrst     414010          ;"5@ A@("
020003:  135740000006  ldb      17, 6           ;"+O@  &"
020004:  306740000144  cain     17, 144         ;"8W@ !D"
020005:  254000414010  jrst     414010          ;"5@ A@("
020006:  476000001254  setom    1254            ;"GP  *L"
020007:  202300001256  movem    6, 1256         ;"03  *N"
020010:  201740000164  movei    17, 164         ;"0/@ !T"
020011:  326300414014  jumpn    6, 414014       ;":S A@,"
020012:  200300000004  move     6, 4            ;"0#   $"
020013:  136740000006  idpb     17, 6           ;"+W@  &"
020014:  263000000000  popj     0,              ;"68    " ",`\0\0\0"
020015:  261000000016  push     0, 16           ;"6(   ."
020016:  261000000010  push     0, 10           ;"6(   ("
020017:  201300000000  movei    6, 0            ;"0+    " " ,\0\0\0"
020020:  550106417410  hrrz     2, 417410(6)    ;"M!&A\("
020021:  322100414044  jumpe    2, 414044       ;":1 A@D"
020022:  541440000610  hrri     11, 610         ;"L,@ &("
020023:  200700000602  move     16, 602         ;"0'  &""
020024:  200042000000  move     1, (2)          ;"0 B   "
020025:  200151000000  move     3, (11)         ;"0!I   "
020026:  620140000016  trz      3, 16           ;"R!@  ."
020027:  312040000002  came     1, 2            ;"90@  ""
020030:  344300414020  aoja     6, 414020       ;"<C A@0"
020031:  271100000000  addi     2, 0            ;"7)    " ".$\0\0\0"
020032:  271440000000  addi     11, 0           ;"7,@   " ".2\0\0\0"
020033:  367700414024  sojg     16, 414024      ;">_ A@4"
020034:  505100041000  hrli     2, 41000        ;"HI $( "
020035:  135040000002  ldb      1, 2            ;"+H@  ""
020036:  302040000164  caie     1, 164          ;"80@ !T"
020037:  326040414030  jumpn    1, 414030       ;":P@A@8"
020040:  262000000010  pop      0, 10           ;"60   ("
020041:  262000000016  pop      0, 16           ;"60   ."
020042:  262000000000  pop      0, 0            ;"60    " ",@\0\0\0"
020043:  254001000000  jrst     (1)             ;"5@!   "
020044:  262000000010  pop      0, 10           ;"60   ("
020045:  262000000016  pop      0, 16           ;"60   ."
020046:  263000000000  popj     0,              ;"68    " ",`\0\0\0"
020047:  250200001120  exch     4, 1120         ;"5"  )0"
020050:  260000413724  pushj    0, 413724       ;"6  A?4"
020051:  306740000164  cain     17, 164         ;"8W@ !T"
020052:  254000414072  jrst     414072          ;"5@ A@Z"
020053:  303740000170  caile    17, 170         ;"8?@ !X"
020054:  254000414064  jrst     414064          ;"5@ A@T"
020055:  306740000076  cain     17, 76          ;"8W@  ^"
020056:  254000414074  jrst     414074          ;"5@ A@\"
020057:  544757417202  hlr      17, 417202(17)  ;"LGOAZ""
020060:  315140001070  camge    3, 1070         ;"9I@ (X"
020061:  136740000006  idpb     17, 6           ;"+W@  &"
020062:  344140414050  aoja     3, 414050       ;"<A@A@H"
020063:  275740000170  subi     17, 170         ;"7O@ !X"
020064:  261000000004  push     0, 4            ;"6(   $"
020065:  200217417402  move     4, 417402(17)   ;"0"/A\""
020066:  260000414050  pushj    0, 414050       ;"6  A@H"
020067:  262000000004  pop      0, 4            ;"60   $"
020070:  254000414050  jrst     414050          ;"5@ A@H"
020071:  250200001120  exch     4, 1120         ;"5"  )0"
020072:  263000000000  popj     0,              ;"68    " ",`\0\0\0"
020073:  260000413724  pushj    0, 413724       ;"6  A?4"
020074:  261000000004  push     0, 4            ;"6(   $"
020075:  200217417520  move     4, 417520(17)   ;"0"/A]0"
020076:  254000414066  jrst     414066          ;"5@ A@V"
020077:  403140000576  setzb    3, 576          ;"@9@ %^"
020100:  402000000576  setzm    576             ;"@0  %^"
020101:  200045000000  move     1, (5)          ;"0 E   "
020102:  316040417066  camn     1, 417066       ;"9P@AXV"
020103:  254000414126  jrst     414126          ;"5@ AA6"
020104:  326040414112  jumpn    1, 414112       ;":P@AA*"
020105:  271240000000  addi     5, 0            ;"7*@   " ".*\0\0\0"
020106:  202240000576  movem    5, 576          ;"02@ %^"
020107:  202300000576  movem    6, 576          ;"03  %^"
020110:  254000414102  jrst     414102          ;"5@ AA""
020111:  603040400000  tlne     1, 400000       ;"P8@@  "
020112:  254000414122  jrst     414122          ;"5@ AA2"
020113:  200200000000  move     4, 0            ;"0"    "
020114:  603200777776  tlne     4, 777776       ;"P: __^"
020115:  254000414120  jrst     414120          ;"5@ AA0"
020116:  200204000000  move     4, (4)          ;"0"$   "
020117:  260000414050  pushj    0, 414050       ;"6  A@H"
020120:  344240414102  aoja     5, 414102       ;"<B@AA""
020121:  540200000004  hrr      4, 4            ;"L"   $"
020122:  505200341000  hrli     4, 341000       ;"HJ <( "
020123:  260000414050  pushj    0, 414050       ;"6  A@H"
020124:  550240000004  hrrz     5, 4            ;"M"@  $"
020125:  344240414102  aoja     5, 414102       ;"<B@AA""
020126:  317140001070  camg     3, 1070         ;"9Y@ (X"
020127:  254000414140  jrst     414140          ;"5@ AA@"
020130:  201740000014  movei    17, 14          ;"0/@  ,"
020131:  336000000576  skipn    0, 576          ;";P  %^"
020132:  254000414136  jrst     414136          ;"5@ AA>"
020133:  200240000576  move     5, 576          ;"0"@ %^"
020134:  200300000576  move     6, 576          ;"0#  %^"
020135:  133000000006  ibp      6               ;"+8   &"
020136:  137740000006  dpb      17, 6           ;"+_@  &"
020137:  201740000000  movei    17, 0           ;"0/@   " " >\0\0\0"
020140:  136740000006  idpb     17, 6           ;"+W@  &"
020141:  263000000000  popj     0,              ;"68    " ",`\0\0\0"
020142:  201300000006  movei    6, 6            ;"0+   &"
020143:  200140417062  move     3, 417062       ;"0!@AXR"
020144:  202142000000  movem    3, (2)          ;"01B   "
020145:  540142000000  hrr      3, (2)          ;"L!B   "
020146:  620140600000  trz      3, 600000       ;"R!@P  "
020147:  661140000000  tlo      3, 0            ;"V)@   " "l&\0\0\0"
020150:  202142000000  movem    3, (2)          ;"01B   "
020151:  550040000002  hrrz     1, 2            ;"M @  ""
020152:  275040000000  subi     1, 0            ;"7H@   " "/\"\0\0\0"
020153:  505040041000  hrli     1, 41000        ;"HH@$( "
020154:  370000001072  sos      0, 1072         ;"?   (Z"
020155:  134140001120  ildb     3, 1120         ;"+A@ )0"
020156:  136140000000  idpb     3, 0            ;"+Q@   "
020157:  306140000164  cain     3, 164          ;"8Q@ !T"
020160:  263000000000  popj     0,              ;"68    " ",`\0\0\0"
020161:  367300414156  sojg     6, 414156       ;">[ AAN"
020162:  550101000000  hrrz     2, (1)          ;"M!!   "
020163:  254000414142  jrst     414142          ;"5@ AAB"
020164:  400300000000  setz     6,              ;"@#    " "@\f\0\0\0"
020165:  260000413724  pushj    0, 413724       ;"6  A?4"
020166:  316740000004  camn     17, 4           ;"9W@  $"
020167:  254000414174  jrst     414174          ;"5@ AA\"
020170:  136740000004  idpb     17, 4           ;"+W@  $"
020171:  306740000164  cain     17, 164         ;"8W@ !T"
020172:  260000404100  pushj    0, 404100       ;"6  @A "
020173:  344300414166  aoja     6, 414166       ;"<C AAV"
020174:  201740000164  movei    17, 164         ;"0/@ !T"
020175:  136740000004  idpb     17, 4           ;"+W@  $"
020176:  271300000000  addi     6, 0            ;"7+    " ".,\0\0\0"
020177:  263000000000  popj     0,              ;"68    " ",`\0\0\0"
020200:  550300000006  hrrz     6, 6            ;"M#   &"
020201:  336000001316  skipn    0, 1316         ;";P  +."
020202:  254000414214  jrst     414214          ;"5@ AB,"
020203:  344300414206  aoja     6, 414206       ;"<C AB&"
020204:  550306000000  hrrz     6, (6)          ;"M#&   " "Z\f0\0\0"
020205:  275200000006  subi     4, 6            ;"7J   &"
020206:  327200414204  jumpg    4, 414204       ;":Z AB$"
020207:  275300000000  subi     6, 0            ;"7K    " "/,\0\0\0"
020210:  270304420464  add      6, 420464(4)    ;"7#$B$T"
020211:  263000000000  popj     0,              ;"68    " ",`\0\0\0"
020212:  271300000002  addi     6, 2            ;"7+   ""
020213:  275200000010  subi     4, 10           ;"7J   ("
020214:  327200414212  jumpg    4, 414212       ;":Z AB*"
020215:  270304420466  add      6, 420466(4)    ;"7#$B$V" ".\f$!\033"
020216:  263000000000  popj     0,              ;"68    " ",`\0\0\0"
020217:  400300000000  setz     6,              ;"@#    " "@\f\0\0\0"
020220:  265240412204  jsp      5, 412204       ;"6J@A2$"
020221:  554240000016  hlrz     5, 16           ;"MB@  ."
020222:  302240000002  caie     5, 2            ;"82@  ""
020223:  254000414244  jrst     414244          ;"5@ ABD"
020224:  322200414226  jumpe    4, 414226       ;":2 AB6"
020225:  260000404100  pushj    0, 404100       ;"6  @A "
020226:  200757421060  move     17, 421060(17)  ;"0'OB(P"
020227:  202740000650  movem    17, 650         ;"07@ &H"
020230:  265240412204  jsp      5, 412204       ;"6J@A2$"
020231:  603740777776  tlne     17, 777776      ;"P?@__^"
020232:  260000404100  pushj    0, 404100       ;"6  @A "
020233:  135740001120  ldb      17, 1120        ;"+O@ )0"
020234:  271300000000  addi     6, 0            ;"7+    " ".,\0\0\0"
020235:  202746000664  movem    17, 664(6)      ;"07F &T"
020236:  265240412204  jsp      5, 412204       ;"6J@A2$"
020237:  316740420650  camn     17, 420650      ;"9W@B&H"
020240:  254000414230  jrst     414230          ;"5@ AB8"
020241:  312740000650  came     17, 650         ;"97@ &H"
020242:  260000404100  pushj    0, 404100       ;"6  @A "
020243:  265240412204  jsp      5, 412204       ;"6J@A2$"
020244:  202300000664  movem    6, 664          ;"03  &T"
020245:  263000000000  popj     0,              ;"68    " ",`\0\0\0"
020246:  200240001120  move     5, 1120         ;"0"@ )0"
020247:  403200000576  setzb    4, 576          ;"@:  %^"
020250:  402000000664  setzm    664             ;"@0  &T"
020251:  402000000700  setzm    700             ;"@0  ' "
020252:  402000000712  setzm    712             ;"@0  '*"
020253:  261000000016  push     0, 16           ;"6(   ."
020254:  261000000010  push     0, 10           ;"6(   ("
020255:  254000414260  jrst     414260          ;"5@ ABP"
020256:  136740000004  idpb     17, 4           ;"+W@  $"
020257:  271200000000  addi     4, 0            ;"7*    " ".(\0\0\0"
020260:  134740001120  ildb     17, 1120        ;"+G@ )0"
020261:  306740000154  cain     17, 154         ;"8W@ !L"
020262:  254000414374  jrst     414374          ;"5@ AC\"
020263:  135700417144  ldb      16, 417144      ;"+O AYD"
020264:  303700000002  caile    16, 2           ;"8?   ""
020265:  254000414256  jrst     414256          ;"5@ ABN"
020266:  254016414270  jrst     414270(16)      ;"5@.ABX"
020267:  254000414306  jrst     414306          ;"5@ AC&"
020270:  254000414362  jrst     414362          ;"5@ ACR"
020271:  200300000016  move     6, 16           ;"0#   ."
020272:  134740001120  ildb     17, 1120        ;"+G@ )0"
020273:  302740000170  caie     17, 170         ;"87@ !X"
020274:  254000414302  jrst     414302          ;"5@ AC""
020275:  302300000176  caie     6, 176          ;"83  !^"
020276:  344300414272  aoja     6, 414272       ;"<C ABZ"
020277:  271200000000  addi     4, 0            ;"7*    " ".(\0\0\0"
020300:  136300000004  idpb     6, 4            ;"+S   $"
020301:  254000414272  jrst     414272          ;"5@ ABZ"
020302:  136300000004  idpb     6, 4            ;"+S   $"
020303:  271200000000  addi     4, 0            ;"7*    " ".(\0\0\0"
020304:  254000414262  jrst     414262          ;"5@ ABR"
020305:  202240000600  movem    5, 600          ;"02@ & "
020306:  202200000602  movem    4, 602          ;"02  &""
020307:  200440000610  move     11, 610         ;"0$@ &("
020310:  400300000000  setz     6,              ;"@#    " "@\f\0\0\0"
020311:  315300417050  camge    6, 417050       ;"9K AXH"
020312:  136740000010  idpb     17, 10          ;"+W@  ("
020313:  136740000004  idpb     17, 4           ;"+W@  $"
020314:  271200000000  addi     4, 0            ;"7*    " ".(\0\0\0"
020315:  271300000000  addi     6, 0            ;"7+    " ".,\0\0\0"
020316:  134740001120  ildb     17, 1120        ;"+G@ )0"
020317:  550717417202  hrrz     16, 417202(17)  ;"M'/AZ""
020320:  322700414312  jumpe    16, 414312      ;":7 AC*"
020321:  201700000164  movei    16, 164         ;"0/  !T"
020322:  136700000010  idpb     16, 10          ;"+W   ("
020323:  307300000000  caig     6, 0            ;"8[    " "1l\0\0\0"
020324:  254000414404  jrst     414404          ;"5@ AD$"
020325:  313300417050  camle    6, 417050       ;"9; AXH"
020326:  254000414404  jrst     414404          ;"5@ AD$"
020327:  271300000000  addi     6, 0            ;"7+    " ".,\0\0\0"
020330:  400700000000  setz     16,             ;"@'    "
020331:  606300000002  trnn     6, 2            ;"PS   ""
020332:  254000414336  jrst     414336          ;"5@ AC>"
020333:  136700000010  idpb     16, 10          ;"+W   ("
020334:  271300000000  addi     6, 0            ;"7+    " ".,\0\0\0"
020335:  254000414332  jrst     414332          ;"5@ AC:"
020336:  242300777776  lsh      6, 777776       ;"43 __^"
020337:  202300000602  movem    6, 602          ;"03  &""
020340:  336000001254  skipn    0, 1254         ;";P  *L"
020341:  254000414350  jrst     414350          ;"5@ ACH"
020342:  200440000610  move     11, 610         ;"0$@ &("
020343:  134300000010  ildb     6, 10           ;"+C   ("
020344:  275300000032  subi     6, 32           ;"7K   :"
020345:  303300000010  caile    6, 10           ;"8;   ("
020346:  137300000010  dpb      6, 10           ;"+[   ("
020347:  402000001254  setzm    1254            ;"@0  *L"
020350:  260000414016  pushj    0, 414016       ;"6  A@."
020351:  254000414404  jrst     414404          ;"5@ AD$"
020352:  271300000176  addi     6, 176          ;"7+  !^"
020353:  200240000600  move     5, 600          ;"0"@ & "
020354:  200200000602  move     4, 602          ;"0"  &""
020355:  302300000244  caie     6, 244          ;"83  "D"
020356:  254000414302  jrst     414302          ;"5@ AC""
020357:  202240000664  movem    5, 664          ;"02@ &T"
020360:  202200000700  movem    4, 700          ;"02  ' "
020361:  254000414302  jrst     414302          ;"5@ AC""
020362:  202240001256  movem    5, 1256         ;"02@ *N"
020363:  136740000004  idpb     17, 4           ;"+W@  $"
020364:  271200000000  addi     4, 0            ;"7*    " ".(\0\0\0"
020365:  200440000664  move     11, 664         ;"0$@ &T"
020366:  202440000576  movem    11, 576         ;"04@ %^"
020367:  200440000700  move     11, 700         ;"0$@ ' "
020370:  202440000600  movem    11, 600         ;"04@ & "
020371:  262000000010  pop      0, 10           ;"60   ("
020372:  262000000016  pop      0, 16           ;"60   ."
020373:  263000000000  popj     0,              ;"68    " ",`\0\0\0"
020374:  200700000576  move     16, 576         ;"0'  %^"
020375:  326700414400  jumpn    16, 414400      ;":W AD "
020376:  542200000576  hrrm     4, 576          ;"L2  %^"
020377:  254000414256  jrst     414256          ;"5@ ABN"
020400:  402000000664  setzm    664             ;"@0  &T"
020401:  402000000700  setzm    700             ;"@0  ' "
020402:  254000414256  jrst     414256          ;"5@ ABN"
020403:  402000001254  setzm    1254            ;"@0  *L"
020404:  254000414262  jrst     414262          ;"5@ ABR"
020405:  550240001130  hrrz     5, 1130         ;"M"@ )8"
020406:  260000412712  pushj    0, 412712       ;"6  A7*"
020407:  550240000010  hrrz     5, 10           ;"M"@  ("
020410:  260000412712  pushj    0, 412712       ;"6  A7*"
020411:  550400000010  hrrz     10, 10          ;"M$   ("
020412:  322400414422  jumpe    10, 414422      ;":4 AD2"
020413:  350000001072  aos      0, 1072         ;"=   (Z"
020414:  200110000000  move     2, (10)         ;"0!(   "
020415:  250350000000  exch     7, (10)         ;"5#H   "
020416:  250340000010  exch     7, 10           ;"5#@  ("
020417:  260000413250  pushj    0, 413250       ;"6  A:H"
020420:  254000414412  jrst     414412          ;"5@ AD*"
020421:  202340001112  movem    7, 1112         ;"03@ )*"
020422:  403700001114  setzb    16, 1114        ;"@?  ),"
020423:  403440001114  setzb    11, 1114        ;"@<@ ),"
020424:  403400001112  setzb    10, 1112        ;"@<  )*"
020425:  402000001130  setzm    1130            ;"@0  )8"
020426:  402000001120  setzm    1120            ;"@0  )0"
020427:  331000001126  skipl    0, 1126         ;";(  )6"
020430:  254000414434  jrst     414434          ;"5@ AD<"
020431:  370000001072  sos      0, 1072         ;"?   (Z"
020432:  370000001072  sos      0, 1072         ;"?   (Z"
020433:  402000001126  setzm    1126            ;"@0  )6"
020434:  402000001124  setzm    1124            ;"@0  )4"
020435:  200240001320  move     5, 1320         ;"0"@ +0"
020436:  202240001130  movem    5, 1130         ;"02@ )8"
020437:  262000000004  pop      0, 4            ;"60   $"
020440:  201000000736  movei    0, 736          ;"0(  '>"
020441:  254005000000  jrst     (5)             ;"5@%   "
020442:  202000001102  movem    0, 1102         ;"00  )""
020443:  505000000000  hrli     0, 0            ;"HH    " "Q \0\0\0"
020444:  541000001104  hrri     0, 1104         ;"L(  )$"
020445:  251000001114  blt      0, 1114         ;"5(  ),"
020446:  202700001114  movem    16, 1114        ;"07  ),"
020447:  202740001116  movem    17, 1116        ;"07@ )."
020450:  200000001102  move     0, 1102         ;"0   )""
020451:  254020000766  jrst     @766            ;"5@0 'V"
020452:  505000001104  hrli     0, 1104         ;"HH  )$"
020453:  541000000000  hrri     0, 0            ;"L(    " "X \0\0\0"
020454:  251000000010  blt      0, 10           ;"5(   ("
020455:  200700001114  move     16, 1114        ;"0'  ),"
020456:  200740001116  move     17, 1116        ;"0'@ )."
020457:  551000000736  hrrzi    0, 736          ;"M(  '>"
020460:  254020000770  jrst     @770            ;"5@0 'X"
020461:  550042000000  hrrz     1, (2)          ;"M B   "
020462:  200201000000  move     4, (1)          ;"0"!   "
020463:  200141000000  move     3, (1)          ;"0!A   "
020464:  202200000640  movem    4, 640          ;"02  &@"
020465:  550200417004  hrrz     4, 417004       ;"M" AX$"
020466:  554140000002  hlrz     3, 2            ;"MA@  ""
020467:  404140417032  and      3, 417032       ;"@A@AX:"
020470:  316140417042  camn     3, 417042       ;"9Q@AXB"
020471:  403140000004  setzb    3, 4            ;"@9@  $"
020472:  311140417042  caml     3, 417042       ;"9)@AXB"
020473:  464140417032  orcm     3, 417032       ;"FA@AX:"
020474:  202140000640  movem    3, 640          ;"01@ &@"
020475:  202200000636  movem    4, 636          ;"02  &>"
020476:  554042000000  hlrz     1, (2)          ;"M@B   "
020477:  400100000000  setz     2,              ;"@!    "
020500:  602040777776  trne     1, 777776       ;"P0@__^"
020501:  200101000000  move     2, (1)          ;"0!!   "
020502:  556100000664  hlrzm    2, 664          ;"MQ  &T"
020503:  201200000000  movei    4, 0            ;"0*    " " (\0\0\0"
020504:  313200000664  camle    4, 664          ;"9:  &T"
020505:  263000000000  popj     0,              ;"68    " ",`\0\0\0"
020506:  200041000000  move     1, (1)          ;"0 A   "
020507:  200141000000  move     3, (1)          ;"0!A   "
020510:  404140417032  and      3, 417032       ;"@A@AX:"
020511:  202144000664  movem    3, 664(4)       ;"01D &T"
020512:  344200414504  aoja     4, 414504       ;"<B AE$"
020513:  200045000000  move     1, (5)          ;"0 E   "
020514:  312040417066  came     1, 417066       ;"90@AXV"
020515:  254000414522  jrst     414522          ;"5@ AE2"
020516:  201740000164  movei    17, 164         ;"0/@ !T"
020517:  136740000002  idpb     17, 2           ;"+W@  ""
020520:  254005000000  jrst     (5)             ;"5@%   "
020521:  322040414514  jumpe    1, 414514       ;":0@AE,"
020522:  400200000000  setz     4,              ;"@"    "
020523:  603040400000  tlne     1, 400000       ;"P8@@  "
020524:  254000414530  jrst     414530          ;"5@ AE8"
020525:  607040777776  tlnn     1, 777776       ;"PX@__^"
020526:  200041000000  move     1, (1)          ;"0 A   "
020527:  254000414534  jrst     414534          ;"5@ AE<"
020530:  474200000000  seto     4,              ;"GB    "
020531:  540040000004  hrr      1, 4            ;"L @  $"
020532:  505040341000  hrli     1, 341000       ;"HH@<( "
020533:  250040001120  exch     1, 1120         ;"5 @ )0"
020534:  260000413724  pushj    0, 413724       ;"6  A?4"
020535:  306740000164  cain     17, 164         ;"8W@ !T"
020536:  254000414542  jrst     414542          ;"5@ AEB"
020537:  136740000002  idpb     17, 2           ;"+W@  ""
020540:  254000414534  jrst     414534          ;"5@ AE<"
020541:  250040001120  exch     1, 1120         ;"5 @ )0"
020542:  322200414544  jumpe    4, 414544       ;":2 AED"
020543:  550240000000  hrrz     5, 0            ;"M"@   " "Z\n\0\0\0"
020544:  344240414514  aoja     5, 414514       ;"<B@AE,"
020545:  200100001120  move     2, 1120         ;"0!  )0"
020546:  260000413724  pushj    0, 413724       ;"6  A?4"
020547:  200757420466  move     17, 420466(17)  ;"0'OB$V"
020550:  312740417064  came     17, 417064      ;"97@AXT"
020551:  254000414556  jrst     414556          ;"5@ AEN"
020552:  202100001120  movem    2, 1120         ;"01  )0"
020553:  262000000002  pop      0, 2            ;"60   ""
020554:  254002000000  jrst     (2)             ;"5@"   "
020555:  202100001120  movem    2, 1120         ;"01  )0"
020556:  263000000000  popj     0,              ;"68    " ",`\0\0\0"
020557:  403040000002  setzb    1, 2            ;"@8@  ""
020560:  400140000000  setz     3,              ;"@!@   "
020561:  200240001120  move     5, 1120         ;"0"@ )0"
020562:  260000413724  pushj    0, 413724       ;"6  A?4"
020563:  302740000164  caie     17, 164         ;"87@ !T"
020564:  254000414572  jrst     414572          ;"5@ AEZ"
020565:  202240001120  movem    5, 1120         ;"02@ )0"
020566:  506040000660  hrlm     1, 660          ;"HP@ &P"
020567:  542100000660  hrrm     2, 660          ;"L1  &P"
020570:  202140000660  movem    3, 660          ;"01@ &P"
020571:  263000000000  popj     0,              ;"68    " ",`\0\0\0"
020572:  306740000154  cain     17, 154         ;"8W@ !L"
020573:  344040414620  aoja     1, 414620       ;"<@@AF0"
020574:  302740000160  caie     17, 160         ;"87@ !P"
020575:  254000414562  jrst     414562          ;"5@ AER"
020576:  271140000000  addi     3, 0            ;"7)@   " ".&\0\0\0"
020577:  260000413724  pushj    0, 413724       ;"6  A?4"
020600:  306740000154  cain     17, 154         ;"8W@ !L"
020601:  344100414626  aoja     2, 414626       ;"<A AF6"
020602:  306740000160  cain     17, 160         ;"8W@ !P"
020603:  344140414600  aoja     3, 414600       ;"<A@AF "
020604:  322040414614  jumpe    1, 414614       ;":0@AF,"
020605:  362140414566  soje     3, 414566       ;">1@AEV"
020606:  362140414566  soje     3, 414566       ;">1@AEV"
020607:  362140414566  soje     3, 414566       ;">1@AEV"
020610:  307140000000  caig     3, 0            ;"8Y@   " "1f\0\0\0"
020611:  254000414566  jrst     414566          ;"5@ AEV"
020612:  260000404244  pushj    0, 404244       ;"6  @BD"
020613:  303140000002  caile    3, 2            ;"89@  ""
020614:  254000414566  jrst     414566          ;"5@ AEV"
020615:  306740000164  cain     17, 164         ;"8W@ !T"
020616:  254000414566  jrst     414566          ;"5@ AEV"
020617:  254000414560  jrst     414560          ;"5@ AEP"
020620:  260000413724  pushj    0, 413724       ;"6  A?4"
020621:  306740000154  cain     17, 154         ;"8W@ !L"
020622:  344040414620  aoja     1, 414620       ;"<@@AF0"
020623:  302740000160  caie     17, 160         ;"87@ !P"
020624:  254000414566  jrst     414566          ;"5@ AEV"
020625:  344140414600  aoja     3, 414600       ;"<A@AF "
020626:  260000413724  pushj    0, 413724       ;"6  A?4"
020627:  306740000154  cain     17, 154         ;"8W@ !L"
020630:  344100414626  aoja     2, 414626       ;"<A AF6"
020631:  306140000000  cain     3, 0            ;"8Q@   " "1F\0\0\0"
020632:  254000414566  jrst     414566          ;"5@ AEV"
020633:  260000404244  pushj    0, 404244       ;"6  @BD"
020634:  402000000736  setzm    736             ;"@0  '>"
020635:  325200414642  jumpge   4, 414642       ;":J AFB"
020636:  210200000004  movn     4, 4            ;"1"   $"
020637:  201240000140  movei    5, 140          ;"0*@ !@"
020640:  136240000002  idpb     5, 2            ;"+R@  ""
020641:  350000000736  aos      0, 736          ;"=   '>"
020642:  201300000000  movei    6, 0            ;"0+    " " ,\0\0\0"
020643:  231200000012  idivi    4, 12           ;"3*   *"
020644:  261000000004  push     0, 4            ;"6(   $"
020645:  322200414650  jumpe    4, 414650       ;":2 AFH"
020646:  344300414644  aoja     6, 414644       ;"<C AFD"
020647:  272300000736  addm     6, 736          ;"73  '>"
020650:  262000000004  pop      0, 4            ;"60   $"
020651:  136240000002  idpb     5, 2            ;"+R@  ""
020652:  367300414650  sojg     6, 414650       ;">[ AFH"
020653:  263000000000  popj     0,              ;"68    " ",`\0\0\0"
020654:  201300000004  movei    6, 4            ;"0+   $"
020655:  231200000012  idivi    4, 12           ;"3*   *"
020656:  261000000004  push     0, 4            ;"6(   $"
020657:  366300414656  sojn     6, 414656       ;">S AFN"
020660:  201300000004  movei    6, 4            ;"0+   $"
020661:  254000414650  jrst     414650          ;"5@ AFH"
020662:  336000001320  skipn    0, 1320         ;";P  +0"
020663:  263000000000  popj     0,              ;"68    " ",`\0\0\0"
020664:  260000413552  pushj    0, 413552       ;"6  A=J"
020665:  336000001254  skipn    0, 1254         ;";P  *L"
020666:  254000414662  jrst     414662          ;"5@ AFR"
020667:  332000001316  skipe    0, 1316         ;";0  +."
020670:  254000414662  jrst     414662          ;"5@ AFR"
020671:  263000000000  popj     0,              ;"68    " ",`\0\0\0"
020672:  264000001026  jsr      1026            ;"6@  (6"
020673:  201740000164  movei    17, 164         ;"0/@ !T"
020674:  136740000002  idpb     17, 2           ;"+W@  ""
020675:  263000000000  popj     0,              ;"68    " ",`\0\0\0"
020676:  264000001002  jsr      1002            ;"6@  (""
020677:  200100001240  move     2, 1240         ;"0!  *@"
020700:  264000000512  jsr      512             ;"6@  %*"
020701:  201740000164  movei    17, 164         ;"0/@ !T"
020702:  136740000002  idpb     17, 2           ;"+W@  ""
020703:  263000000000  popj     0,              ;"68    " ",`\0\0\0"
020704:  550240001130  hrrz     5, 1130         ;"M"@ )8"
020705:  322240414716  jumpe    5, 414716       ;":2@AG."
020706:  510305000000  hllz     6, (5)          ;"I#%   " "R\f(\0\0"
020707:  621300001776  tlz      6, 1776         ;"R+  /^"
020710:  550245000000  hrrz     5, (5)          ;"M"E   " "Z\n(\0\0"
020711:  322300414706  jumpe    6, 414706       ;":3 AG&"
020712:  661300000724  tlo      6, 724          ;"V+  '4"
020713:  202300001252  movem    6, 1252         ;"03  *J"
020714:  262000000004  pop      0, 4            ;"60   $"
020715:  254005000000  jrst     (5)             ;"5@%   "
020716:  263000000000  popj     0,              ;"68    " ",`\0\0\0"
020717:  200100001120  move     2, 1120         ;"0!  )0"
020720:  260000413724  pushj    0, 413724       ;"6  A?4"
020721:  200757420466  move     17, 420466(17)  ;"0'OB$V"
020722:  316740417064  camn     17, 417064      ;"9W@AXT"
020723:  254000414720  jrst     414720          ;"5@ AG0"
020724:  202100001120  movem    2, 1120         ;"01  )0"
020725:  263000000000  popj     0,              ;"68    " ",`\0\0\0"
020726:  552240001304  hrrzm    5, 1304         ;"M2@ +$"
020727:  200042414762  move     1, 414762(2)    ;"0 BAGR"
020730:  260000415366  pushj    0, 415366       ;"6  AKV"
020731:  200042414766  move     1, 414766(2)    ;"0 BAGV"
020732:  202040001232  movem    1, 1232         ;"00@ *:"
020733:  200202001074  move     4, 1074(2)      ;"0"" (\"
020734:  200040000002  move     1, 2            ;"0 @  ""
020735:  200100001202  move     2, 1202         ;"0!  *""
020736:  256001414752  xct      414752(1)       ;"5P!AGJ"
020737:  201740000164  movei    17, 164         ;"0/@ !T"
020740:  136740000002  idpb     17, 2           ;"+W@  ""
020741:  265240404740  jsp      5, 404740       ;"6J@@G@"
020742:  000000001252                           ;"    *J"
020743:  000000001232                           ;"    *:"
020744:  576715713520  hlrem    16, 713520(15)  ;"OW-Y=0"
020745:  000000001202                           ;"    *""
020746:  576645650000  hlrem    15, 650000(5)   ;"OVEU  " "_Z.P\0"
020747:  777777777776  conso    774, @777776(17);"_____^"
020750:  254020001304  jrst     @1304           ;"5@0 +$"
020751:  254000414756  jrst     414756          ;"5@ AGN"
020752:  260000414634  pushj    0, 414634       ;"6  AF<"
020753:  260000414654  pushj    0, 414654       ;"6  AFL"
020754:  260000414634  pushj    0, 414634       ;"6  AF<"
020755:  265240404740  jsp      5, 404740       ;"6J@@G@"
020756:  576645650000  hlrem    15, 650000(5)   ;"OVEU  " "_Z.P\0"
020757:  777777777776  conso    774, @777776(17);"_____^"
020760:  254020001304  jrst     @1304           ;"5@0 +$"
020761:  000000000000                           ;"      "
020762:  000000000004                           ;"     $"
020763:  000000000004                           ;"     $"
020764:  000000000004                           ;"     $"
020765:  352000000000  aose     0, 0            ;"=0    " ":@\0\0\0"
020766:  514724000000  hrlz     16, @(4)        ;"IG4   "
020767:  516724000000  hrlzm    16, @(4)        ;"IW4   " "S] \0\0"
020770:  520724000000  hllo     16, @(4)        ;"J'4   "
020771:  550200001072  hrrz     4, 1072         ;"M"  (Z"
020772:  275200001050  subi     4, 1050         ;"7J  (H"
020773:  274200417104  sub      4, 417104       ;"7B AY$"
020774:  242200777776  lsh      4, 777776       ;"42 __^"
020775:  270200417100  add      4, 417100       ;"7" AY "
020776:  274200001072  sub      4, 1072         ;"7B  (Z"
020777:  202200001074  movem    4, 1074         ;"02  (\"
021000:  200040000166  move     1, 166          ;"0 @ !V"
021001:  274040001102  sub      1, 1102         ;"7@@ )""
021002:  221040000012  imuli    1, 12           ;"2(@  *"
021003:  231040000006  idivi    1, 6            ;"3(@  &"
021004:  400140000000  setz     3,              ;"@!@   "
021005:  264000001002  jsr      1002            ;"6@  (""
021006:  322040415010  jumpe    1, 415010       ;":0@AH("
021007:  275140000002  subi     3, 2            ;"7I@  ""
021010:  202040001100  movem    1, 1100         ;"00@ ) "
021011:  202140001100  movem    3, 1100         ;"01@ ) "
021012:  200200000164  move     4, 164          ;"0"  !T"
021013:  221200000144  imuli    4, 144          ;"2*  !D"
021014:  270200000166  add      4, 166          ;"7"  !V"
021015:  202200001076  movem    4, 1076         ;"02  (^"
021016:  200200000164  move     4, 164          ;"0"  !T"
021017:  202200001076  movem    4, 1076         ;"02  (^"
021020:  263000000000  popj     0,              ;"68    " ",`\0\0\0"
021021:  200100417100  move     2, 417100       ;"0! AY "
021022:  202100001072  movem    2, 1072         ;"01  (Z"
021023:  271100000002  addi     2, 2            ;"7)   ""
021024:  201040001112  movei    1, 1112         ;"0(@ )*"
021025:  201140001506  movei    3, 1506         ;"0)@ -&"
021026:  200340000002  move     7, 2            ;"0#@  ""
021027:  202141000000  movem    3, (1)          ;"01A   "
021030:  271140000000  addi     3, 0            ;"7)@   " ".&\0\0\0"
021031:  200040000002  move     1, 2            ;"0 @  ""
021032:  271140000000  addi     3, 0            ;"7)@   " ".&\0\0\0"
021033:  367100415030  sojg     2, 415030       ;">Y AH8"
021034:  402001000000  setzm    (1)             ;"@0!   "
021035:  263000000000  popj     0,              ;"68    " ",`\0\0\0"
021036:  552240001304  hrrzm    5, 1304         ;"M2@ +$"
021037:  264000000766  jsr      766             ;"6@  'V"
021040:  200040000642  move     1, 642          ;"0 @ &B"
021041:  200142000000  move     3, (2)          ;"0!B   "
021042:  202140000642  movem    3, 642          ;"01@ &B"
021043:  260000414676  pushj    0, 414676       ;"6  AF^"
021044:  200100001104  move     2, 1104         ;"0!  )$"
021045:  554102000000  hlrz     2, (2)          ;"MA"   "
021046:  505100141000  hrli     2, 141000       ;"HI ,( "
021047:  202100001250  movem    2, 1250         ;"01  *H"
021050:  505100341000  hrli     2, 341000       ;"HI <( "
021051:  135200000002  ldb      4, 2            ;"+J   ""
021052:  200040001232  move     1, 1232         ;"0 @ *:"
021053:  400240000000  setz     5,              ;"@"@   " "@\n\0\0\0"
021054:  201740000176  movei    17, 176         ;"0/@ !^"
021055:  322200415064  jumpe    4, 415064       ;":2 AHT"
021056:  275200000010  subi     4, 10           ;"7J   ("
021057:  323200415062  jumple   4, 415062       ;":: AHR"
021060:  136740000000  idpb     17, 0           ;"+W@   "
021061:  254000415056  jrst     415056          ;"5@ AHN"
021062:  271200000176  addi     4, 176          ;"7*  !^"
021063:  136200000000  idpb     4, 0            ;"+R    "
021064:  201740000164  movei    17, 164         ;"0/@ !T"
021065:  136740000000  idpb     17, 0           ;"+W@   "
021066:  134200000002  ildb     4, 2            ;"+B   ""
021067:  200040001202  move     1, 1202         ;"0 @ *""
021070:  322200415076  jumpe    4, 415076       ;":2 AH^"
021071:  201740000160  movei    17, 160         ;"0/@ !P"
021072:  332000000642  skipe    0, 642          ;";0  &B"
021073:  400740000000  setz     17,             ;"@'@   "
021074:  136740000000  idpb     17, 0           ;"+W@   "
021075:  367200415074  sojg     4, 415074       ;">Z AH\"
021076:  201740000164  movei    17, 164         ;"0/@ !T"
021077:  136740000000  idpb     17, 0           ;"+W@   "
021100:  264000000770  jsr      770             ;"6@  'X"
021101:  265240404676  jsp      5, 404676       ;"6J@@F^"
021102:  000000000006                           ;"     &"
021103:  265240404740  jsp      5, 404740       ;"6J@@G@"
021104:  000000001232                           ;"    *:"
021105:  000000001240                           ;"    *@"
021106:  000000001202                           ;"    *""
021107:  000000000000                           ;"      "
021110:  000000001250                           ;"    *H"
021111:  576645650000  hlrem    15, 650000(5)   ;"OVEU  " "_Z.P\0"
021112:  777777777776  conso    774, @777776(17);"_____^"
021113:  254020001304  jrst     @1304           ;"5@0 +$"
021114:  552240001304  hrrzm    5, 1304         ;"M2@ +$"
021115:  550042000000  hrrz     1, (2)          ;"M B   "
021116:  275040000000  subi     1, 0            ;"7H@   " "/\"\0\0\0"
021117:  505040041000  hrli     1, 41000        ;"HH@$( "
021120:  202040001120  movem    1, 1120         ;"00@ )0"
021121:  202040001250  movem    1, 1250         ;"00@ *H"
021122:  554042000000  hlrz     1, (2)          ;"M@B   "
021123:  242040000000  lsh      1, 0            ;"40@   " "(B\0\0\0"
021124:  322040415126  jumpe    1, 415126       ;":0@AI6"
021125:  271040000000  addi     1, 0            ;"7(@   " ".\"\0\0\0"
021126:  271040000000  addi     1, 0            ;"7(@   " ".\"\0\0\0"
021127:  400200000000  setz     4,              ;"@"    "
021130:  260000413724  pushj    0, 413724       ;"6  A?4"
021131:  306740000164  cain     17, 164         ;"8W@ !T"
021132:  254000415152  jrst     415152          ;"5@ AIJ"
021133:  305740000170  caige    17, 170         ;"8O@ !X"
021134:  344200415130  aoja     4, 415130       ;"<B AI8"
021135:  303740000176  caile    17, 176         ;"8?@ !^"
021136:  254000415142  jrst     415142          ;"5@ AIB"
021137:  275740000166  subi     17, 166         ;"7O@ !V"
021140:  270200000016  add      4, 16           ;"7"   ."
021141:  254000415130  jrst     415130          ;"5@ AI8"
021142:  275740000170  subi     17, 170         ;"7O@ !X"
021143:  200317417402  move     6, 417402(17)   ;"0#/A\""
021144:  250300001120  exch     6, 1120         ;"5#  )0"
021145:  260000413724  pushj    0, 413724       ;"6  A?4"
021146:  302740000164  caie     17, 164         ;"87@ !T"
021147:  344200415146  aoja     4, 415146       ;"<B AIF"
021150:  250300001120  exch     6, 1120         ;"5#  )0"
021151:  254000415130  jrst     415130          ;"5@ AI8"
021152:  270200417072  add      4, 417072       ;"7" AXZ"
021153:  271200000004  addi     4, 4            ;"7*   $"
021154:  274200001070  sub      4, 1070         ;"7B  (X"
021155:  321200415160  jumpl    4, 415160       ;":* AIP"
021156:  270040000004  add      1, 4            ;"7 @  $"
021157:  260000415366  pushj    0, 415366       ;"6  AKV"
021160:  200740000002  move     17, 2           ;"0'@  ""
021161:  241740000010  rot      17, 10          ;"4/@  ("
021162:  200040001202  move     1, 1202         ;"0 @ *""
021163:  136740000000  idpb     17, 0           ;"+W@   "
021164:  554102000000  hlrz     2, (2)          ;"MA"   "
021165:  322100415204  jumpe    2, 415204       ;":1 AJ$"
021166:  275100000000  subi     2, 0            ;"7I    " "/$\0\0\0"
021167:  505100041000  hrli     2, 41000        ;"HI $( "
021170:  202100001120  movem    2, 1120         ;"01  )0"
021171:  201740000120  movei    17, 120         ;"0/@ !0"
021172:  136740000000  idpb     17, 0           ;"+W@   "
021173:  260000413724  pushj    0, 413724       ;"6  A?4"
021174:  306740000164  cain     17, 164         ;"8W@ !T"
021175:  254000415202  jrst     415202          ;"5@ AJ""
021176:  136740000000  idpb     17, 0           ;"+W@   "
021177:  201740000160  movei    17, 160         ;"0/@ !P"
021200:  136740000000  idpb     17, 0           ;"+W@   "
021201:  254000415174  jrst     415174          ;"5@ AI\"
021202:  201740000120  movei    17, 120         ;"0/@ !0"
021203:  137740000000  dpb      17, 0           ;"+_@   "
021204:  201740000164  movei    17, 164         ;"0/@ !T"
021205:  136740000000  idpb     17, 0           ;"+W@   "
021206:  332000001330  skipe    0, 1330         ;";0  +8"
021207:  254000415222  jrst     415222          ;"5@ AJ2"
021210:  265240404740  jsp      5, 404740       ;"6J@@G@"
021211:  000000001252                           ;"    *J"
021212:  000000001202                           ;"    *""
021213:  576715713520  hlrem    16, 713520(15)  ;"OW-Y=0"
021214:  000000000000                           ;"      "
021215:  000000001250                           ;"    *H"
021216:  576645650000  hlrem    15, 650000(5)   ;"OVEU  " "_Z.P\0"
021217:  777777777776  conso    774, @777776(17);"_____^"
021220:  254020001304  jrst     @1304           ;"5@0 +$"
021221:  265240404740  jsp      5, 404740       ;"6J@@G@"
021222:  577105703520  hlres    2, 703520(5)    ;"OY%X=0"
021223:  000000001202                           ;"    *""
021224:  576541650000  hlrem    13, 650000(1)   ;"OUAU  "
021225:  000000001250                           ;"    *H"
021226:  576731513520  hlrem    16, @513520(11) ;"OW9I=0"
021227:  777777777776  conso    774, @777776(17);"_____^"
021230:  254020001304  jrst     @1304           ;"5@0 +$"
021231:  552240001304  hrrzm    5, 1304         ;"M2@ +$"
021232:  200040001254  move     1, 1254         ;"0 @ *L"
021233:  202040001120  movem    1, 1120         ;"00@ )0"
021234:  260000414720  pushj    0, 414720       ;"6  AG0"
021235:  201040000664  movei    1, 664          ;"0(@ &T"
021236:  200100001202  move     2, 1202         ;"0!  *""
021237:  254000415242  jrst     415242          ;"5@ AJB"
021240:  136740000002  idpb     17, 2           ;"+W@  ""
021241:  200240000002  move     5, 2            ;"0"@  ""
021242:  260000413724  pushj    0, 413724       ;"6  A?4"
021243:  306740000166  cain     17, 166         ;"8W@ !V"
021244:  254000415314  jrst     415314          ;"5@ AK,"
021245:  316740001256  camn     17, 1256        ;"9W@ *N"
021246:  254000415314  jrst     415314          ;"5@ AK,"
021247:  301740000170  cail     17, 170         ;"8/@ !X"
021250:  254000415264  jrst     415264          ;"5@ AJT"
021251:  135140417142  ldb      3, 417142       ;"+I@AYB"
021252:  256003415254  xct      415254(3)       ;"5P#AJL"
021253:  254000415240  jrst     415240          ;"5@ AJ@"
021254:  254000415314  jrst     415314          ;"5@ AK,"
021255:  254000415240  jrst     415240          ;"5@ AJ@"
021256:  261040000002  push     1, 2            ;"6(@  ""
021257:  275040000000  subi     1, 0            ;"7H@   " "/\"\0\0\0"
021260:  254000415364  jrst     415364          ;"5@ AKT"
021261:  254000415360  jrst     415360          ;"5@ AKP"
021262:  254000415300  jrst     415300          ;"5@ AK "
021263:  275740000170  subi     17, 170         ;"7O@ !X"
021264:  200157417402  move     3, 417402(17)   ;"0!OA\""
021265:  250140001120  exch     3, 1120         ;"5!@ )0"
021266:  260000413724  pushj    0, 413724       ;"6  A?4"
021267:  302740000164  caie     17, 164         ;"87@ !T"
021270:  254000415274  jrst     415274          ;"5@ AJ\"
021271:  250140001120  exch     3, 1120         ;"5!@ )0"
021272:  254000415242  jrst     415242          ;"5@ AJB"
021273:  136740000002  idpb     17, 2           ;"+W@  ""
021274:  302740000170  caie     17, 170         ;"87@ !X"
021275:  200240000002  move     5, 2            ;"0"@  ""
021276:  254000415266  jrst     415266          ;"5@ AJV"
021277:  201140000000  movei    3, 0            ;"0)@   " " &\0\0\0"
021300:  260000413724  pushj    0, 413724       ;"6  A?4"
021301:  306740000120  cain     17, 120         ;"8W@ !0"
021302:  344140415300  aoja     3, 415300       ;"<A@AK "
021303:  306740000122  cain     17, 122         ;"8W@ !2"
021304:  344140415300  aoja     3, 415300       ;"<A@AK "
021305:  306740000120  cain     17, 120         ;"8W@ !0"
021306:  254000415312  jrst     415312          ;"5@ AK*"
021307:  302740000122  caie     17, 122         ;"87@ !2"
021310:  254000415300  jrst     415300          ;"5@ AK "
021311:  367140415300  sojg     3, 415300       ;">Y@AK "
021312:  364040415240  soja     1, 415240       ;">@@AJ@"
021313:  200040000004  move     1, 4            ;"0 @  $"
021314:  275040001202  subi     1, 1202         ;"7H@ *""
021315:  554140000000  hlrz     3, 0            ;"MA@   "
021316:  550040000000  hrrz     1, 0            ;"M @   "
021317:  242040000002  lsh      1, 2            ;"40@  ""
021320:  242140777760  lsh      3, 777760       ;"41@__P"
021321:  274040000002  sub      1, 2            ;"7@@  ""
021322:  200740001120  move     17, 1120        ;"0'@ )0"
021323:  202740001254  movem    17, 1254        ;"07@ *L"
021324:  201740000164  movei    17, 164         ;"0/@ !T"
021325:  136740000004  idpb     17, 4           ;"+W@  $"
021326:  260000415366  pushj    0, 415366       ;"6  AKV"
021327:  265240412452  jsp      5, 412452       ;"6J@A4J"
021330:  330000000000  skip     0, 0            ;";     " "6\0\0\0\0"
021331:  135300417126  ldb      6, 417126       ;"+K AY6"
021332:  326300415336  jumpn    6, 415336       ;":S AK>"
021333:  260000415350  pushj    0, 415350       ;"6  AKH"
021334:  254000415340  jrst     415340          ;"5@ AK@"
021335:  200100001240  move     2, 1240         ;"0!  *@"
021336:  260000414672  pushj    0, 414672       ;"6  AFZ"
021337:  265240404740  jsp      5, 404740       ;"6J@@G@"
021340:  000000001252                           ;"    *J"
021341:  000000001202                           ;"    *""
021342:  000000000000                           ;"      "
021343:  000000417070                           ;"   AXX"
021344:  000000001240                           ;"    *@"
021345:  576645650000  hlrem    15, 650000(5)   ;"OVEU  " "_Z.P\0"
021346:  777777777776  conso    774, @777776(17);"_____^"
021347:  254020001304  jrst     @1304           ;"5@0 +$"
021350:  200100415356  move     2, 415356       ;"0! AKN"
021351:  322040415354  jumpe    1, 415354       ;":0@AKL"
021352:  200100415360  move     2, 415360       ;"0! AKP"
021353:  201240000000  movei    5, 0            ;"0*@   " " *\0\0\0"
021354:  202105001240  movem    2, 1240(5)      ;"01% *@"
021355:  263000000000  popj     0,              ;"68    " ",`\0\0\0"
021356:  371315650000  sosl     6, 650000(15)   ;"?+-U  " ">,nP\0"
021357:  371321650000  sosl     6, @650000(1)   ;"?+1U  "
021360:  134741000000  ildb     17, (1)         ;"+GA   "
021361:  271740000000  addi     17, 0           ;"7/@   " ".>\0\0\0"
021362:  364040415240  soja     1, 415240       ;">@@AJ@"
021363:  200101000000  move     2, (1)          ;"0!!   "
021364:  133000000002  ibp      2               ;"+8   ""
021365:  254000415242  jrst     415242          ;"5@ AJB"
021366:  400200000000  setz     4,              ;"@"    "
021367:  274040417072  sub      1, 417072       ;"7@@AXZ"
021370:  323040415374  jumple   1, 415374       ;":8@AK\"
021371:  200200000000  move     4, 0            ;"0"    "
021372:  400040000000  setz     1,              ;"@ @   "
021373:  270040421244  add      1, 421244       ;"7 @B*D"
021374:  202040001252  movem    1, 1252         ;"00@ *J"
021375:  336000001330  skipn    0, 1330         ;";P  +8"
021376:  263000000000  popj     0,              ;"68    " ",`\0\0\0"
021377:  200040421244  move     1, 421244       ;"0 @B*D"
021400:  202040001252  movem    1, 1252         ;"00@ *J"
021401:  201200000010  movei    4, 10           ;"0*   ("
021402:  263000000000  popj     0,              ;"68    " ",`\0\0\0"
021403:  552240001304  hrrzm    5, 1304         ;"M2@ +$"
021404:  202100001260  movem    2, 1260         ;"01  *P"
021405:  336000001330  skipn    0, 1330         ;";P  +8"
021406:  254000415426  jrst     415426          ;"5@ AL6"
021407:  552240001304  hrrzm    5, 1304         ;"M2@ +$"
021410:  202100001260  movem    2, 1260         ;"01  *P"
021411:  200202000000  move     4, (2)          ;"0""   "
021412:  200100001202  move     2, 1202         ;"0!  *""
021413:  260000414634  pushj    0, 414634       ;"6  AF<"
021414:  201740000164  movei    17, 164         ;"0/@ !T"
021415:  136740000002  idpb     17, 2           ;"+W@  ""
021416:  370000001074  sos      0, 1074         ;"?   (\"
021417:  265240404740  jsp      5, 404740       ;"6J@@G@"
021420:  577165703520  hlres    3, @703520(5)   ;"OYUX=0"
021421:  000000001202                           ;"    *""
021422:  576715513520  hlrem    16, 513520(15)  ;"OW-I=0"
021423:  777777777776  conso    774, @777776(17);"_____^"
021424:  200100001260  move     2, 1260         ;"0!  *P"
021425:  350000001074  aos      0, 1074         ;"=   (\"
021426:  550102000000  hrrz     2, (2)          ;"M!"   "
021427:  275100000000  subi     2, 0            ;"7I    " "/$\0\0\0"
021430:  505100041000  hrli     2, 41000        ;"HI $( "
021431:  202100001250  movem    2, 1250         ;"01  *H"
021432:  265240404740  jsp      5, 404740       ;"6J@@G@"
021433:  000000001250                           ;"    *H"
021434:  576645650000  hlrem    15, 650000(5)   ;"OVEU  " "_Z.P\0"
021435:  777777777776  conso    774, @777776(17);"_____^"
021436:  254020001304  jrst     @1304           ;"5@0 +$"
021437:  552240001304  hrrzm    5, 1304         ;"M2@ +$"
021440:  200740000002  move     17, 2           ;"0'@  ""
021441:  241740000010  rot      17, 10          ;"4/@  ("
021442:  200040001202  move     1, 1202         ;"0 @ *""
021443:  136740000000  idpb     17, 0           ;"+W@   "
021444:  201740000164  movei    17, 164         ;"0/@ !T"
021445:  136740000000  idpb     17, 0           ;"+W@   "
021446:  201040000000  movei    1, 0            ;"0(@   " " \"\0\0\0"
021447:  260000415366  pushj    0, 415366       ;"6  AKV"
021450:  200042000000  move     1, (2)          ;"0 B   "
021451:  554142000000  hlrz     3, (2)          ;"MAB   "
021452:  260000412564  pushj    0, 412564       ;"6  A5T"
021453:  254000415332  jrst     415332          ;"5@ AK:"
021454:  260000415464  pushj    0, 415464       ;"6  ALT"
021455:  332000000664  skipe    0, 664          ;";0  &T"
021456:  254000415524  jrst     415524          ;"5@ AM4"
021457:  263000000000  popj     0,              ;"68    " ",`\0\0\0"
021460:  260000415464  pushj    0, 415464       ;"6  ALT"
021461:  332000000664  skipe    0, 664          ;";0  &T"
021462:  254000415526  jrst     415526          ;"5@ AM6"
021463:  263000000000  popj     0,              ;"68    " ",`\0\0\0"
021464:  241740000010  rot      17, 10          ;"4/@  ("
021465:  136740000002  idpb     17, 2           ;"+W@  ""
021466:  200040000664  move     1, 664          ;"0 @ &T"
021467:  322040415526  jumpe    1, 415526       ;":0@AM6"
021470:  271040000000  addi     1, 0            ;"7(@   " ".\"\0\0\0"
021471:  201740000120  movei    17, 120         ;"0/@ !0"
021472:  136740000002  idpb     17, 2           ;"+W@  ""
021473:  201140000000  movei    3, 0            ;"0)@   " " &\0\0\0"
021474:  317140417076  camg     3, 417076       ;"9Y@AX^"
021475:  254000415510  jrst     415510          ;"5@ AM("
021476:  201740000160  movei    17, 160         ;"0/@ !P"
021477:  136740000002  idpb     17, 2           ;"+W@  ""
021500:  136740000002  idpb     17, 2           ;"+W@  ""
021501:  136740000002  idpb     17, 2           ;"+W@  ""
021502:  274040000664  sub      1, 664          ;"7@@ &T"
021503:  271040000002  addi     1, 2            ;"7(@  ""
021504:  270040417076  add      1, 417076       ;"7 @AX^"
021505:  200140000664  move     3, 664          ;"0!@ &T"
021506:  254000415516  jrst     415516          ;"5@ AM."
021507:  554203000664  hlrz     4, 664(3)       ;"MB# &T"
021510:  242200777766  lsh      4, 777766       ;"42 __V"
021511:  404200417032  and      4, 417032       ;"@B AX:"
021512:  311200417042  caml     4, 417042       ;"9* AXB"
021513:  464200417032  orcm     4, 417032       ;"FB AX:"
021514:  260000414634  pushj    0, 414634       ;"6  AF<"
021515:  270040000736  add      1, 736          ;"7 @ '>"
021516:  201740000160  movei    17, 160         ;"0/@ !P"
021517:  136740000002  idpb     17, 2           ;"+W@  ""
021520:  312140000664  came     3, 664          ;"91@ &T"
021521:  344140415474  aoja     3, 415474       ;"<A@AL\"
021522:  263000000000  popj     0,              ;"68    " ",`\0\0\0"
021523:  201740000120  movei    17, 120         ;"0/@ !0"
021524:  137740000002  dpb      17, 2           ;"+_@  ""
021525:  271040000000  addi     1, 0            ;"7(@   " ".\"\0\0\0"
021526:  201740000164  movei    17, 164         ;"0/@ !T"
021527:  136740000002  idpb     17, 2           ;"+W@  ""
021530:  263000000000  popj     0,              ;"68    " ",`\0\0\0"
021531:  552240001304  hrrzm    5, 1304         ;"M2@ +$"
021532:  202100001260  movem    2, 1260         ;"01  *P"
021533:  254000415562  jrst     415562          ;"5@ AMR"
021534:  200100001260  move     2, 1260         ;"0!  *P"
021535:  607100000020  tlnn     2, 20           ;"PY   0"
021536:  254020001304  jrst     @1304           ;"5@0 +$"
021537:  200740000002  move     17, 2           ;"0'@  ""
021540:  200100001202  move     2, 1202         ;"0!  *""
021541:  402000000664  setzm    664             ;"@0  &T"
021542:  260000415454  pushj    0, 415454       ;"6  ALL"
021543:  332000001330  skipe    0, 1330         ;";0  +8"
021544:  254000415554  jrst     415554          ;"5@ AML"
021545:  265240404740  jsp      5, 404740       ;"6J@@G@"
021546:  000000001202                           ;"    *""
021547:  576740541540  hlrem    17, 541540      ;"OW@L-@"
021550:  361415513520  sojl     10, 513520(15)  ;">,-I=0"
021551:  777777777776  conso    774, @777776(17);"_____^"
021552:  254020001304  jrst     @1304           ;"5@0 +$"
021553:  265240404740  jsp      5, 404740       ;"6J@@G@"
021554:  577105703520  hlres    2, 703520(5)    ;"OY%X=0"
021555:  000000001202                           ;"    *""
021556:  576743023600  hlrem    17, 23600(3)    ;"OWC"> "
021557:  606701513520  trnn     16, 513520(1)   ;"PW!I=0"
021560:  777777777776  conso    774, @777776(17);"_____^"
021561:  254020001304  jrst     @1304           ;"5@0 +$"
021562:  554042000000  hlrz     1, (2)          ;"M@B   "
021563:  202040001260  movem    1, 1260         ;"00@ *P"
021564:  400040000000  setz     1,              ;"@ @   "
021565:  550102000000  hrrz     2, (2)          ;"M!"   "
021566:  271040000000  addi     1, 0            ;"7(@   " ".\"\0\0\0"
021567:  202101001270  movem    2, 1270(1)      ;"01! *X"
021570:  312040001260  came     1, 1260         ;"90@ *P"
021571:  254000415566  jrst     415566          ;"5@ AMV"
021572:  202100001262  movem    2, 1262         ;"01  *R"
021573:  202040001264  movem    1, 1264         ;"00@ *T"
021574:  200040001260  move     1, 1260         ;"0 @ *P"
021575:  275040000000  subi     1, 0            ;"7H@   " "/\"\0\0\0"
021576:  202040000664  movem    1, 664          ;"00@ &T"
021577:  322040415606  jumpe    1, 415606       ;":0@AN&"
021600:  200301001270  move     6, 1270(1)      ;"0#! *X"
021601:  200146000000  move     3, (6)          ;"0!F   "
021602:  404140417032  and      3, 417032       ;"@A@AX:"
021603:  202141000664  movem    3, 664(1)       ;"01A &T"
021604:  367040415600  sojg     1, 415600       ;">X@AN "
021605:  200100001202  move     2, 1202         ;"0!  *""
021606:  200740001260  move     17, 1260        ;"0'@ *P"
021607:  260000415460  pushj    0, 415460       ;"6  ALP"
021610:  332000000664  skipe    0, 664          ;";0  &T"
021611:  254000415620  jrst     415620          ;"5@ AN0"
021612:  201740000120  movei    17, 120         ;"0/@ !0"
021613:  137740000002  dpb      17, 2           ;"+_@  ""
021614:  201740000164  movei    17, 164         ;"0/@ !T"
021615:  136740000002  idpb     17, 2           ;"+W@  ""
021616:  271040000000  addi     1, 0            ;"7(@   " ".\"\0\0\0"
021617:  202040001262  movem    1, 1262         ;"00@ *R"
021620:  550100001262  hrrz     2, 1262         ;"M!  *R"
021621:  322100415670  jumpe    2, 415670       ;":1 ANX"
021622:  554142000000  hlrz     3, (2)          ;"MAB   "
021623:  260000412562  pushj    0, 412562       ;"6  A5R"
021624:  200200000002  move     4, 2            ;"0"   ""
021625:  200100001232  move     2, 1232         ;"0!  *:"
021626:  260000414634  pushj    0, 414634       ;"6  AF<"
021627:  201740000120  movei    17, 120         ;"0/@ !0"
021630:  136740000002  idpb     17, 2           ;"+W@  ""
021631:  201740000164  movei    17, 164         ;"0/@ !T"
021632:  136740000002  idpb     17, 2           ;"+W@  ""
021633:  200040001262  move     1, 1262         ;"0 @ *R"
021634:  270040000736  add      1, 736          ;"7 @ '>"
021635:  271040000000  addi     1, 0            ;"7(@   " ".\"\0\0\0"
021636:  260000415366  pushj    0, 415366       ;"6  AKV"
021637:  200100001262  move     2, 1262         ;"0!  *R"
021640:  200142000000  move     3, (2)          ;"0!B   "
021641:  552140001262  hrrzm    3, 1262         ;"M1@ *R"
021642:  200042000000  move     1, (2)          ;"0 B   "
021643:  554140000002  hlrz     3, 2            ;"MA@  ""
021644:  404140417032  and      3, 417032       ;"@A@AX:"
021645:  312140417042  came     3, 417042       ;"91@AXB"
021646:  254000415652  jrst     415652          ;"5@ ANJ"
021647:  260000415350  pushj    0, 415350       ;"6  AKH"
021650:  254000415654  jrst     415654          ;"5@ ANL"
021651:  260000412564  pushj    0, 412564       ;"6  A5T"
021652:  200100001240  move     2, 1240         ;"0!  *@"
021653:  260000414672  pushj    0, 414672       ;"6  AFZ"
021654:  265240404676  jsp      5, 404676       ;"6J@@F^"
021655:  000000000006                           ;"     &"
021656:  265240404740  jsp      5, 404740       ;"6J@@G@"
021657:  000000001252                           ;"    *J"
021660:  000000001202                           ;"    *""
021661:  000000001232                           ;"    *:"
021662:  000000000000                           ;"      "
021663:  000000417070                           ;"   AXX"
021664:  000000001240                           ;"    *@"
021665:  576645650000  hlrem    15, 650000(5)   ;"OVEU  " "_Z.P\0"
021666:  777777777776  conso    774, @777776(17);"_____^"
021667:  254000415620  jrst     415620          ;"5@ AN0"
021670:  377040001264  sosg     1, 1264         ;"?X@ *T"
021671:  254000415534  jrst     415534          ;"5@ AM<"
021672:  200101001270  move     2, 1270(1)      ;"0!! *X"
021673:  550102000000  hrrz     2, (2)          ;"M!"   "
021674:  322100415670  jumpe    2, 415670       ;":1 ANX"
021675:  202101001270  movem    2, 1270(1)      ;"01! *X"
021676:  254000415566  jrst     415566          ;"5@ AMV"
021677:  552240001302  hrrzm    5, 1302         ;"M2@ +""
021700:  202100001260  movem    2, 1260         ;"01  *P"
021701:  200242000000  move     5, (2)          ;"0"B   "
021702:  202240001264  movem    5, 1264         ;"02@ *T"
021703:  200100001264  move     2, 1264         ;"0!  *T"
021704:  202100000642  movem    2, 642          ;"01  &B"
021705:  200100001260  move     2, 1260         ;"0!  *P"
021706:  550102000000  hrrz     2, (2)          ;"M!"   "
021707:  202100001260  movem    2, 1260         ;"01  *P"
021710:  322120001302  jumpe    2, @1302        ;":10 +""
021711:  265240415036  jsp      5, 415036       ;"6J@AH>"
021712:  254000415704  jrst     415704          ;"5@ AO$"
021713:  552240001302  hrrzm    5, 1302         ;"M2@ +""
021714:  563000001266  hrros    0, 1266         ;"N8  *V"
021715:  202100001264  movem    2, 1264         ;"01  *T"
021716:  541100001336  hrri     2, 1336         ;"L)  +>"
021717:  506100001264  hrlm     2, 1264         ;"HQ  *T"
021720:  554100001264  hlrz     2, 1264         ;"MA  *T"
021721:  554142000000  hlrz     3, (2)          ;"MAB   "
021722:  312140001130  came     3, 1130         ;"91@ )8"
021723:  254000415744  jrst     415744          ;"5@ AOD"
021724:  200102000000  move     2, (2)          ;"0!"   "
021725:  202100001260  movem    2, 1260         ;"01  *P"
021726:  135040417126  ldb      1, 417126       ;"+H@AY6"
021727:  200140001264  move     3, 1264         ;"0!@ *T"
021730:  256003415750  xct      415750(3)       ;"5P#AOH"
021731:  254000415744  jrst     415744          ;"5@ AOD"
021732:  265240404676  jsp      5, 404676       ;"6J@@F^"
021733:  000000000006                           ;"     &"
021734:  331000001266  skipl    0, 1266         ;";(  *V"
021735:  254000415742  jrst     415742          ;"5@ AOB"
021736:  553000001266  hrrzs    0, 1266         ;"M8  *V"
021737:  265240404740  jsp      5, 404740       ;"6J@@G@"
021740:  576645650000  hlrem    15, 650000(5)   ;"OVEU  " "_Z.P\0"
021741:  777777777776  conso    774, @777776(17);"_____^"
021742:  256003415754  xct      415754(3)       ;"5P#AOL"
021743:  554100001264  hlrz     2, 1264         ;"MA  *T"
021744:  271100000002  addi     2, 2            ;"7)   ""
021745:  305100001506  caige    2, 1506         ;"8I  -&"
021746:  254000415720  jrst     415720          ;"5@ AO0"
021747:  254020001302  jrst     @1302           ;"5@0 +""
021750:  312040417006  came     1, 417006       ;"90@AX&"
021751:  265240415756  jsp      5, 415756       ;"6J@AON"
021752:  313040417004  camle    1, 417004       ;"98@AX$"
021753:  265240415114  jsp      5, 415114       ;"6J@AI,"
021754:  265240415532  jsp      5, 415532       ;"6J@AM:"
021755:  265240415440  jsp      5, 415440       ;"6J@AL@"
021756:  312040417006  came     1, 417006       ;"90@AX&"
021757:  254000415744  jrst     415744          ;"5@ AOD"
021760:  554042000000  hlrz     1, (2)          ;"M@B   "
021761:  312040001266  came     1, 1266         ;"90@ *V"
021762:  254000415744  jrst     415744          ;"5@ AOD"
021763:  563000001266  hrros    0, 1266         ;"N8  *V"
021764:  254005000000  jrst     (5)             ;"5@%   "
021765:  554040000002  hlrz     1, 2            ;"M@@  ""
021766:  550100000002  hrrz     2, 2            ;"M!   ""
021767:  554242000000  hlrz     5, (2)          ;"MBB   "
021770:  260000412712  pushj    0, 412712       ;"6  A7*"
021771:  550242000000  hrrz     5, (2)          ;"M"B   "
021772:  542241000000  hrrm     5, (1)          ;"L2A   "
021773:  350000001072  aos      0, 1072         ;"=   (Z"
021774:  202342000000  movem    7, (2)          ;"03B   "
021775:  200340000002  move     7, 2            ;"0#@  ""
021776:  316100001326  camn     2, 1326         ;"9Q  +6"
021777:  402000001326  setzm    1326            ;"@0  +6"
022000:  540100000664  hrr      2, 664          ;"L!  &T"
022001:  550242000000  hrrz     5, (2)          ;"M"B   "
022002:  322240416004  jumpe    5, 416004       ;":2@AP$"
022003:  263000000000  popj     0,              ;"68    " ",`\0\0\0"
022004:  544040000664  hlr      1, 664          ;"L@@ &T"
022005:  500242000000  hll      5, (2)          ;"H"B   "
022006:  502241000000  hllm     5, (1)          ;"H2A   "
022007:  350000001072  aos      0, 1072         ;"=   (Z"
022010:  202342000000  movem    7, (2)          ;"03B   "
022011:  200340000002  move     7, 2            ;"0#@  ""
022012:  262000000000  pop      0, 0            ;"60    " ",@\0\0\0"
022013:  254001000000  jrst     (1)             ;"5@!   "
022014:  332000000664  skipe    0, 664          ;";0  &T"
022015:  254000416020  jrst     416020          ;"5@ AP0"
022016:  260000412642  pushj    0, 412642       ;"6  A6B"
022017:  263000000000  popj     0,              ;"68    " ",`\0\0\0"
022020:  200142000000  move     3, (2)          ;"0!B   "
022021:  135040417130  ldb      1, 417130       ;"+H@AY8"
022022:  312040417006  came     1, 417006       ;"90@AX&"
022023:  263000000000  popj     0,              ;"68    " ",`\0\0\0"
022024:  554043000000  hlrz     1, (3)          ;"M@C   "
022025:  312040000664  came     1, 664          ;"90@ &T"
022026:  263000000000  popj     0,              ;"68    " ",`\0\0\0"
022027:  202100000624  movem    2, 624          ;"01  &4"
022030:  202140000624  movem    3, 624          ;"01@ &4"
022031:  260000412516  pushj    0, 412516       ;"6  A5."
022032:  263000000000  popj     0,              ;"68    " ",`\0\0\0"
022033:  260000413216  pushj    0, 413216       ;"6  A:."
022034:  263000000000  popj     0,              ;"68    " ",`\0\0\0"
022035:  554040000002  hlrz     1, 2            ;"M@@  ""
022036:  550100000002  hrrz     2, 2            ;"M!   ""
022037:  550242000000  hrrz     5, (2)          ;"M"B   "
022040:  260000412712  pushj    0, 412712       ;"6  A7*"
022041:  554242000000  hlrz     5, (2)          ;"MBB   "
022042:  506241000000  hrlm     5, (1)          ;"HRA   "
022043:  350000001072  aos      0, 1072         ;"=   (Z"
022044:  202342000000  movem    7, (2)          ;"03B   "
022045:  200340000002  move     7, 2            ;"0#@  ""
022046:  263000000000  popj     0,              ;"68    " ",`\0\0\0"
022047:  202100001264  movem    2, 1264         ;"01  *T"
022050:  541100001336  hrri     2, 1336         ;"L)  +>"
022051:  506100001264  hrlm     2, 1264         ;"HQ  *T"
022052:  200042000000  move     1, (2)          ;"0 B   "
022053:  135040417126  ldb      1, 417126       ;"+H@AY6"
022054:  200140001264  move     3, 1264         ;"0!@ *T"
022055:  256003416064  xct      416064(3)       ;"5P#APT"
022056:  260000412642  pushj    0, 412642       ;"6  A6B"
022057:  554100001264  hlrz     2, 1264         ;"MA  *T"
022060:  271100000002  addi     2, 2            ;"7)   ""
022061:  305100001506  caige    2, 1506         ;"8I  -&"
022062:  254000416052  jrst     416052          ;"5@ APJ"
022063:  263000000000  popj     0,              ;"68    " ",`\0\0\0"
022064:  316040417006  camn     1, 417006       ;"9P@AX&"
022065:  316040417006  camn     1, 417006       ;"9P@AX&"
022066:  317040417004  camg     1, 417004       ;"9X@AX$"
022067:  200740001330  move     17, 1330        ;"0'@ +8"
022070:  307740000004  caig     17, 4           ;"8_@  $"
022071:  254017416072  jrst     416072(17)      ;"5@/APZ"
022072:  260000404346  pushj    0, 404346       ;"6  @CF"
022073:  260000404346  pushj    0, 404346       ;"6  @CF"
022074:  254000416170  jrst     416170          ;"5@ AQX"
022075:  260000404346  pushj    0, 404346       ;"6  @CF"
022076:  260000404346  pushj    0, 404346       ;"6  @CF"
022077:  260000404346  pushj    0, 404346       ;"6  @CF"
022100:  552240001302  hrrzm    5, 1302         ;"M2@ +""
022101:  260000414546  pushj    0, 414546       ;"6  AEF"
022102:  260000404100  pushj    0, 404100       ;"6  @A "
022103:  265240407620  jsp      5, 407620       ;"6J@@^0"
022104:  265240412452  jsp      5, 412452       ;"6J@A4J"
022105:  260000404100  pushj    0, 404100       ;"6  @A "
022106:  264000000774  jsr      774             ;"6@  '\"
022107:  254020001302  jrst     @1302           ;"5@0 +""
022110:  326120001302  jumpn    2, @1302        ;":Q0 +""
022111:  202040001336  movem    1, 1336         ;"00@ +>"
022112:  200200001106  move     4, 1106         ;"0"  )&"
022113:  200240001302  move     5, 1302         ;"0"@ +""
022114:  400100000000  setz     2,              ;"@!    "
022115:  316740001122  camn     17, 1122        ;"9W@ )2"
022116:  254005000002  jrst     2(5)            ;"5@%  ""
022117:  135300417130  ldb      6, 417130       ;"+K AY8"
022120:  302300000002  caie     6, 2            ;"83   ""
022121:  260000404100  pushj    0, 404100       ;"6  @A "
022122:  322200416122  jumpe    4, 416122       ;":2 AQ2"
022123:  344240416124  aoja     5, 416124       ;"<B@AQ4"
022124:  552240001302  hrrzm    5, 1302         ;"M2@ +""
022125:  550200000016  hrrz     4, 16           ;"M"   ."
022126:  242200000000  lsh      4, 0            ;"42    " "(H\0\0\0"
022127:  271200000120  addi     4, 120          ;"7*  !0"
022130:  200100001202  move     2, 1202         ;"0!  *""
022131:  400040000000  setz     1,              ;"@ @   "
022132:  260000413724  pushj    0, 413724       ;"6  A?4"
022133:  316740000004  camn     17, 4           ;"9W@  $"
022134:  254000416146  jrst     416146          ;"5@ AQF"
022135:  307740000074  caig     17, 74          ;"8_@  \"
022136:  254000416144  jrst     416144          ;"5@ AQD"
022137:  316740000164  camn     17, 164         ;"9W@ !T"
022140:  260000404100  pushj    0, 404100       ;"6  @A "
022141:  307740000176  caig     17, 176         ;"8_@ !^"
022142:  254020001302  jrst     @1302           ;"5@0 +""
022143:  136740000002  idpb     17, 2           ;"+W@  ""
022144:  344040416132  aoja     1, 416132       ;"<@@AQ:"
022145:  201740000164  movei    17, 164         ;"0/@ !T"
022146:  136740000002  idpb     17, 2           ;"+W@  ""
022147:  326040416152  jumpn    1, 416152       ;":P@AQJ"
022150:  260000404100  pushj    0, 404100       ;"6  @A "
022151:  265240412204  jsp      5, 412204       ;"6J@A2$"
022152:  312740001122  came     17, 1122        ;"97@ )2"
022153:  260000404100  pushj    0, 404100       ;"6  @A "
022154:  200200001202  move     4, 1202         ;"0"  *""
022155:  505300010700  hrli     6, 10700        ;"HK !' "
022156:  541300001154  hrri     6, 1154         ;"L+  )L"
022157:  403146000000  setzb    3, (6)          ;"@9F   " "@f0\0\0"
022160:  260000414050  pushj    0, 414050       ;"6  A@H"
022161:  303140000004  caile    3, 4            ;"89@  $"
022162:  254020001302  jrst     @1302           ;"5@0 +""
022163:  200106000000  move     2, (6)          ;"0!&   "
022164:  200240001302  move     5, 1302         ;"0"@ +""
022165:  260000416666  pushj    0, 416666       ;"6  AVV"
022166:  254005000000  jrst     (5)             ;"5@%   "
022167:  200100001332  move     2, 1332         ;"0!  +:"
022170:  316100417114  camn     2, 417114       ;"9Q AY,"
022171:  254000416236  jrst     416236          ;"5@ AR>"
022172:  200045000000  move     1, (5)          ;"0 E   "
022173:  326040416176  jumpn    1, 416176       ;":P@AQ^"
022174:  344240416172  aoja     5, 416172       ;"<B@AQZ"
022175:  312040417066  came     1, 417066       ;"90@AXV"
022176:  254000416206  jrst     416206          ;"5@ AR&"
022177:  201740000164  movei    17, 164         ;"0/@ !T"
022200:  136740000002  idpb     17, 2           ;"+W@  ""
022201:  202100001332  movem    2, 1332         ;"01  +:"
022202:  202240001110  movem    5, 1110         ;"02@ )("
022203:  264000000770  jsr      770             ;"6@  'X"
022204:  254005000000  jrst     (5)             ;"5@%   "
022205:  400200000000  setz     4,              ;"@"    "
022206:  603040400000  tlne     1, 400000       ;"P8@@  "
022207:  254000416214  jrst     416214          ;"5@ AR,"
022210:  607040777776  tlnn     1, 777776       ;"PX@__^"
022211:  200041000000  move     1, (1)          ;"0 A   "
022212:  254000416216  jrst     416216          ;"5@ AR."
022213:  474200000000  seto     4,              ;"GB    "
022214:  540040000004  hrr      1, 4            ;"L @  $"
022215:  505040341000  hrli     1, 341000       ;"HH@<( "
022216:  250040001120  exch     1, 1120         ;"5 @ )0"
022217:  260000413724  pushj    0, 413724       ;"6  A?4"
022220:  306740000150  cain     17, 150         ;"8W@ !H"
022221:  254000416220  jrst     416220          ;"5@ AR0"
022222:  306740000164  cain     17, 164         ;"8W@ !T"
022223:  254000416230  jrst     416230          ;"5@ AR8"
022224:  316100417112  camn     2, 417112       ;"9Q AY*"
022225:  254000416234  jrst     416234          ;"5@ AR<"
022226:  136740000002  idpb     17, 2           ;"+W@  ""
022227:  254000416220  jrst     416220          ;"5@ AR0"
022230:  250040001120  exch     1, 1120         ;"5 @ )0"
022231:  322200416234  jumpe    4, 416234       ;":2 AR<"
022232:  550240000000  hrrz     5, 0            ;"M"@   " "Z\n\0\0\0"
022233:  344240416172  aoja     5, 416172       ;"<B@AQZ"
022234:  200100001332  move     2, 1332         ;"0!  +:"
022235:  402000000172  setzm    172             ;"@0  !Z"
022236:  201740000136  movei    17, 136         ;"0/@ !>"
022237:  136740000002  idpb     17, 2           ;"+W@  ""
022240:  200100417114  move     2, 417114       ;"0! AY,"
022241:  202100001332  movem    2, 1332         ;"01  +:"
022242:  201100000002  movei    2, 2            ;"0)   ""
022243:  265240404672  jsp      5, 404672       ;"6J@@FZ"
022244:  416246403672  setmm    5, 403672(6)    ;"ARF@>Z"
022245:  264000000770  jsr      770             ;"6@  'X"
022246:  550740000176  hrrz     17, 176         ;"M'@ !^"
022247:  201200416266  movei    4, 416266       ;"0* ARV"
022250:  135757416760  ldb      17, 416760(17)  ;"+OOAWP"
022251:  256017416252  xct      416252(17)      ;"5P/ARJ"
022252:  260000404346  pushj    0, 404346       ;"6  @CF"
022253:  260000404350  pushj    0, 404350       ;"6  @CH"
022254:  254000416260  jrst     416260          ;"5@ ARP"
022255:  254000416262  jrst     416262          ;"5@ ARR"
022256:  260000404362  pushj    0, 404362       ;"6  @CR"
022257:  332000000172  skipe    0, 172          ;";0  !Z"
022260:  260000404346  pushj    0, 404346       ;"6  @CF"
022261:  254000416170  jrst     416170          ;"5@ AQX"
022262:  332000000172  skipe    0, 172          ;";0  !Z"
022263:  254000416274  jrst     416274          ;"5@ AR\"
022264:  260000404346  pushj    0, 404346       ;"6  @CF"
022265:  023000000044                           ;""8   D"
022266:  100000000000                           ;"(     "
022267:  200100001332  move     2, 1332         ;"0!  +:"
022270:  316100417114  camn     2, 417114       ;"9Q AY,"
022271:  254000416274  jrst     416274          ;"5@ AR\"
022272:  476000000172  setom    172             ;"GP  !Z"
022273:  254000416236  jrst     416236          ;"5@ AR>"
022274:  265240404672  jsp      5, 404672       ;"6J@@FZ"
022275:  416277403710  setmm    5, @403710(17)  ;"AR_@?("
022276:  541040416314  hrri     1, 416314       ;"L(@AS,"
022277:  505040041000  hrli     1, 41000        ;"HH@$( "
022300:  200740001330  move     17, 1330        ;"0'@ +8"
022301:  306740000004  cain     17, 4           ;"8W@  $"
022302:  541040416316  hrri     1, 416316       ;"L(@AS."
022303:  202040001250  movem    1, 1250         ;"00@ *H"
022304:  264000000770  jsr      770             ;"6@  'X"
022305:  402000001330  setzm    1330            ;"@0  +8"
022306:  332000001316  skipe    0, 1316         ;";0  +."
022307:  254000405324  jrst     405324          ;"5@ @K4"
022310:  265240404740  jsp      5, 404740       ;"6J@@G@"
022311:  000000001250                           ;"    *H"
022312:  777777777776  conso    774, @777776(17);"_____^"
022313:  254000405324  jrst     405324          ;"5@ @K4"
022314:  032310611200                           ;"#3(Q* "
022315:  340645650000  aoj      15, 650000(5)   ;"<&EU  "
022316:  066310521200                           ;"&S(J* " "\rLE\"@"
022317:  152701513520  fsbm     16, 513520(1)   ;"-7!I=0"
022320:  332000001316  skipe    0, 1316         ;";0  +."
022321:  260000417176  pushj    0, 417176       ;"6  AY^"
022322:  265240412204  jsp      5, 412204       ;"6J@A2$"
022323:  312740420756  came     17, 420756      ;"97@B'N"
022324:  260000404100  pushj    0, 404100       ;"6  @A "
022325:  265240416100  jsp      5, 416100       ;"6J@AQ "
022326:  260000404320  pushj    0, 404320       ;"6  @C0"
022327:  260000404330  pushj    0, 404330       ;"6  @C8"
022330:  200040001336  move     1, 1336         ;"0 @ +>"
022331:  313040417116  camle    1, 417116       ;"98@AY."
022332:  260000404320  pushj    0, 404320       ;"6  @C0"
022333:  250100001334  exch     2, 1334         ;"5!  +<"
022334:  202100001104  movem    2, 1104         ;"01  )$"
022335:  250040001332  exch     1, 1332         ;"5 @ +:"
022336:  202040001104  movem    1, 1104         ;"00@ )$"
022337:  260000414406  pushj    0, 414406       ;"6  AD&"
022340:  265240404672  jsp      5, 404672       ;"6J@@FZ"
022341:  416343403650  setmm    7, 403650(3)    ;"ASC@>H"
022342:  201100000004  movei    2, 4            ;"0)   $"
022343:  265240404672  jsp      5, 404672       ;"6J@@FZ"
022344:  416346403670  setmm    7, 403670(6)    ;"ASF@>X"
022345:  264000000770  jsr      770             ;"6@  'X"
022346:  550740000176  hrrz     17, 176         ;"M'@ !^"
022347:  201200416362  movei    4, 416362       ;"0* ASR"
022350:  135757416760  ldb      17, 416760(17)  ;"+OOAWP"
022351:  306740000002  cain     17, 2           ;"8W@  ""
022352:  254000416274  jrst     416274          ;"5@ AR\"
022353:  202100001334  movem    2, 1334         ;"01  +<"
022354:  202040001332  movem    1, 1332         ;"00@ +:"
022355:  256017416356  xct      416356(17)      ;"5P/ASN"
022356:  260000404346  pushj    0, 404346       ;"6  @CF"
022357:  260000404350  pushj    0, 404350       ;"6  @CH"
022360:  254000416274  jrst     416274          ;"5@ AR\"
022361:  260000404332  pushj    0, 404332       ;"6  @C:"
022362:  000000000300                           ;"    # "
022363:  102000000000  lpm      0               ;"(0    "
022364:  332000001316  skipe    0, 1316         ;";0  +."
022365:  260000417176  pushj    0, 417176       ;"6  AY^"
022366:  336000001332  skipn    0, 1332         ;";P  +:"
022367:  260000404360  pushj    0, 404360       ;"6  @CP"
022370:  265240412204  jsp      5, 412204       ;"6J@A2$"
022371:  312740420760  came     17, 420760      ;"97@B'P"
022372:  260000404100  pushj    0, 404100       ;"6  @A "
022373:  265240416100  jsp      5, 416100       ;"6J@AQ "
022374:  260000404352  pushj    0, 404352       ;"6  @CJ"
022375:  260000404330  pushj    0, 404330       ;"6  @C8"
022376:  202100001334  movem    2, 1334         ;"01  +<"
022377:  200100001336  move     2, 1336         ;"0!  +>"
022400:  313100417116  camle    2, 417116       ;"99 AY."
022401:  260000404352  pushj    0, 404352       ;"6  @CJ"
022402:  260000414406  pushj    0, 414406       ;"6  AD&"
022403:  265240404672  jsp      5, 404672       ;"6J@@FZ"
022404:  416406403650  setmm    10, 403650(6)   ;"AT&@>H"
022405:  201100000002  movei    2, 2            ;"0)   ""
022406:  265240404672  jsp      5, 404672       ;"6J@@FZ"
022407:  416411403670  setmm    10, 403670(11)  ;"AT)@>X"
022410:  264000000770  jsr      770             ;"6@  'X"
022411:  550740000176  hrrz     17, 176         ;"M'@ !^"
022412:  201200416422  movei    4, 416422       ;"0* AT2"
022413:  135757416760  ldb      17, 416760(17)  ;"+OOAWP"
022414:  256017416416  xct      416416(17)      ;"5P/AT."
022415:  260000404346  pushj    0, 404346       ;"6  @CF"
022416:  260000404350  pushj    0, 404350       ;"6  @CH"
022417:  254000416274  jrst     416274          ;"5@ AR\"
022420:  260000404364  pushj    0, 404364       ;"6  @CT"
022421:  000002003000                           ;"  " 8 "
022422:  130000000000                           ;"+     "
022423:  332000001316  skipe    0, 1316         ;";0  +."
022424:  260000417176  pushj    0, 417176       ;"6  AY^"
022425:  336000001332  skipn    0, 1332         ;";P  +:"
022426:  260000404360  pushj    0, 404360       ;"6  @CP"
022427:  350000001072  aos      0, 1072         ;"=   (Z"
022430:  350000001072  aos      0, 1072         ;"=   (Z"
022431:  476000001126  setom    1126            ;"GP  )6"
022432:  402000001256  setzm    1256            ;"@0  *N"
022433:  265240411030  jsp      5, 411030       ;"6J@A(8"
022434:  265240411104  jsp      5, 411104       ;"6J@A)$"
022435:  350000001256  aos      0, 1256         ;"=   *N"
022436:  316740420650  camn     17, 420650      ;"9W@B&H"
022437:  254000416434  jrst     416434          ;"5@ AT<"
022440:  312740420760  came     17, 420760      ;"97@B'P"
022441:  260000404100  pushj    0, 404100       ;"6  @A "
022442:  265240412204  jsp      5, 412204       ;"6J@A2$"
022443:  312740420760  came     17, 420760      ;"97@B'P"
022444:  260000404100  pushj    0, 404100       ;"6  @A "
022445:  265240416100  jsp      5, 416100       ;"6J@AQ "
022446:  260000404352  pushj    0, 404352       ;"6  @CJ"
022447:  260000404330  pushj    0, 404330       ;"6  @C8"
022450:  202100001334  movem    2, 1334         ;"01  +<"
022451:  200100001336  move     2, 1336         ;"0!  +>"
022452:  313100417116  camle    2, 417116       ;"99 AY."
022453:  260000404352  pushj    0, 404352       ;"6  @CJ"
022454:  264000000766  jsr      766             ;"6@  'V"
022455:  265240404672  jsp      5, 404672       ;"6J@@FZ"
022456:  416460403650  setmm    11, @403650     ;"ATP@>H"
022457:  402000000200  setzm    200             ;"@0  " "
022460:  402000000172  setzm    172             ;"@0  !Z"
022461:  201100000002  movei    2, 2            ;"0)   ""
022462:  265240404672  jsp      5, 404672       ;"6J@@FZ"
022463:  416465403670  setmm    11, @403670(5)  ;"ATU@>X"
022464:  264000000770  jsr      770             ;"6@  'X"
022465:  550740000176  hrrz     17, 176         ;"M'@ !^"
022466:  201200416476  movei    4, 416476       ;"0* AT^"
022467:  135757416760  ldb      17, 416760(17)  ;"+OOAWP"
022470:  256017416472  xct      416472(17)      ;"5P/ATZ"
022471:  260000404346  pushj    0, 404346       ;"6  @CF"
022472:  260000404350  pushj    0, 404350       ;"6  @CH"
022473:  254000416500  jrst     416500          ;"5@ AU "
022474:  260000404362  pushj    0, 404362       ;"6  @CR"
022475:  260000404366  pushj    0, 404366       ;"6  @CV"
022476:  020000000032                           ;""    :"
022477:  100400000000                           ;"($    "
022500:  402000000172  setzm    172             ;"@0  !Z"
022501:  200100417114  move     2, 417114       ;"0! AY,"
022502:  202100001332  movem    2, 1332         ;"01  +:"
022503:  200110000000  move     2, (10)         ;"0!(   "
022504:  135300417126  ldb      6, 417126       ;"+K AY6"
022505:  316300417012  camn     6, 417012       ;"9S AX*"
022506:  254000416542  jrst     416542          ;"5@ AUB"
022507:  350000001072  aos      0, 1072         ;"=   (Z"
022510:  200110000000  move     2, (10)         ;"0!(   "
022511:  250350000000  exch     7, (10)         ;"5#H   "
022512:  250340000010  exch     7, 10           ;"5#@  ("
022513:  202100001260  movem    2, 1260         ;"01  *P"
022514:  316300417016  camn     6, 417016       ;"9S AX."
022515:  254000416534  jrst     416534          ;"5@ AU<"
022516:  312300417030  came     6, 417030       ;"93 AX8"
022517:  260000404346  pushj    0, 404346       ;"6  @CF"
022520:  200102000000  move     2, (2)          ;"0!"   "
022521:  202100001260  movem    2, 1260         ;"01  *P"
022522:  135300417126  ldb      6, 417126       ;"+K AY6"
022523:  256006416530  xct      416530(6)       ;"5P&AU8"
022524:  373000001256  sosle    0, 1256         ;"?8  *N"
022525:  254000416504  jrst     416504          ;"5@ AU$"
022526:  260000414406  pushj    0, 414406       ;"6  AD&"
022527:  254000416270  jrst     416270          ;"5@ ARX"
022530:  265240415440  jsp      5, 415440       ;"6J@AL@"
022531:  265240415440  jsp      5, 415440       ;"6J@AL@"
022532:  265240415532  jsp      5, 415532       ;"6J@AM:"
022533:  265240415114  jsp      5, 415114       ;"6J@AI,"
022534:  260000413364  pushj    0, 413364       ;"6  A;T"
022535:  260000404346  pushj    0, 404346       ;"6  @CF"
022536:  260000404346  pushj    0, 404346       ;"6  @CF"
022537:  265240406130  jsp      5, 406130       ;"6J@@Q8"
022540:  254000416524  jrst     416524          ;"5@ AU4"
022541:  260000413014  pushj    0, 413014       ;"6  A8,"
022542:  552100000624  hrrzm    2, 624          ;"M1  &4"
022543:  336000000664  skipn    0, 664          ;";P  &T"
022544:  254000416520  jrst     416520          ;"5@ AU0"
022545:  200742000000  move     17, (2)         ;"0'B   "
022546:  200100001202  move     2, 1202         ;"0!  *""
022547:  260000415454  pushj    0, 415454       ;"6  ALL"
022550:  201240416524  movei    5, 416524       ;"0*@AU4"
022551:  202240001304  movem    5, 1304         ;"02@ +$"
022552:  254000415326  jrst     415326          ;"5@ AK6"
022553:  332000001316  skipe    0, 1316         ;";0  +."
022554:  260000417176  pushj    0, 417176       ;"6  AY^"
022555:  336000001332  skipn    0, 1332         ;";P  +:"
022556:  260000404360  pushj    0, 404360       ;"6  @CP"
022557:  265240412204  jsp      5, 412204       ;"6J@A2$"
022560:  312740420760  came     17, 420760      ;"97@B'P"
022561:  260000404100  pushj    0, 404100       ;"6  @A "
022562:  265240416100  jsp      5, 416100       ;"6J@AQ "
022563:  260000404352  pushj    0, 404352       ;"6  @CJ"
022564:  260000404330  pushj    0, 404330       ;"6  @C8"
022565:  202100001334  movem    2, 1334         ;"01  +<"
022566:  200100001336  move     2, 1336         ;"0!  +>"
022567:  313100417116  camle    2, 417116       ;"99 AY."
022570:  260000404352  pushj    0, 404352       ;"6  @CJ"
022571:  260000414406  pushj    0, 414406       ;"6  AD&"
022572:  265240404672  jsp      5, 404672       ;"6J@@FZ"
022573:  416575403650  setmm    13, @403650(15) ;"AU]@>H"
022574:  201100000000  movei    2, 0            ;"0)    " " $\0\0\0"
022575:  265240404672  jsp      5, 404672       ;"6J@@FZ"
022576:  416600403670  setmm    14, 403670      ;"AV @>X"
022577:  264000000770  jsr      770             ;"6@  'X"
022600:  550740000176  hrrz     17, 176         ;"M'@ !^"
022601:  201200416612  movei    4, 416612       ;"0* AV*"
022602:  135757416760  ldb      17, 416760(17)  ;"+OOAWP"
022603:  256017416604  xct      416604(17)      ;"5P/AV$"
022604:  260000404346  pushj    0, 404346       ;"6  @CF"
022605:  260000404350  pushj    0, 404350       ;"6  @CH"
022606:  254000416614  jrst     416614          ;"5@ AV,"
022607:  254000416614  jrst     416614          ;"5@ AV,"
022610:  260000404364  pushj    0, 404364       ;"6  @CT"
022611:  000230004000                           ;" "8 @ "
022612:  140000000000  fad      0, 0            ;",     "
022613:  200100417114  move     2, 417114       ;"0! AY,"
022614:  202100001332  movem    2, 1332         ;"01  +:"
022615:  200100417114  move     2, 417114       ;"0! AY,"
022616:  201740000136  movei    17, 136         ;"0/@ !>"
022617:  136740000002  idpb     17, 2           ;"+W@  ""
022620:  201100000116  movei    2, 116          ;"0)  !."
022621:  202100001070  movem    2, 1070         ;"01  (X"
022622:  402000001254  setzm    1254            ;"@0  *L"
022623:  200100001332  move     2, 1332         ;"0!  +:"
022624:  134740000002  ildb     17, 2           ;"+G@  ""
022625:  306740000136  cain     17, 136         ;"8W@ !>"
022626:  254000416660  jrst     416660          ;"5@ AVP"
022627:  200200001332  move     4, 1332         ;"0"  +:"
022630:  200300417120  move     6, 417120       ;"0# AY0"
022631:  400140000000  setz     3,              ;"@!@   "
022632:  260000414050  pushj    0, 414050       ;"6  A@H"
022633:  202200001332  movem    4, 1332         ;"02  +:"
022634:  200040000006  move     1, 6            ;"0 @  &"
022635:  201740000014  movei    17, 14          ;"0/@  ,"
022636:  136740000000  idpb     17, 0           ;"+W@   "
022637:  402000001254  setzm    1254            ;"@0  *L"
022640:  200100417120  move     2, 417120       ;"0! AY0"
022641:  200240001154  move     5, 1154         ;"0"@ )L"
022642:  332000001330  skipe    0, 1330         ;";0  +8"
022643:  254000416650  jrst     416650          ;"5@ AVH"
022644:  505240141000  hrli     5, 141000       ;"HJ@,( "
022645:  271240000000  addi     5, 0            ;"7*@   " ".*\0\0\0"
022646:  402005000000  setzm    (5)             ;"@0%   " "@@(\0\0"
022647:  370000001074  sos      0, 1074         ;"?   (\"
022650:  260000413744  pushj    0, 413744       ;"6  A?D"
022651:  260000414406  pushj    0, 414406       ;"6  AD&"
022652:  332000001330  skipe    0, 1330         ;";0  +8"
022653:  254000407534  jrst     407534          ;"5@ @]<"
022654:  336000001254  skipn    0, 1254         ;";P  *L"
022655:  254000416624  jrst     416624          ;"5@ AV4"
022656:  254000405006  jrst     405006          ;"5@ @H&"
022657:  200100000176  move     2, 176          ;"0!  !^"
022660:  302100000002  caie     2, 2            ;"81   ""
022661:  254000416274  jrst     416274          ;"5@ AR\"
022662:  201100000000  movei    2, 0            ;"0)    " " $\0\0\0"
022663:  265240404672  jsp      5, 404672       ;"6J@@FZ"
022664:  416600403672  setmm    14, 403672      ;"AV @>Z"
022665:  505040010700  hrli     1, 10700        ;"HH@!' "
022666:  541040000000  hrri     1, 0            ;"L(@   " "X\"\0\0\0"
022667:  134740000000  ildb     17, 0           ;"+G@   "
022670:  301740000140  cail     17, 140         ;"8/@ !@"
022671:  275740000040  subi     17, 40          ;"7O@  @"
022672:  137740000000  dpb      17, 0           ;"+_@   "
022673:  367140416670  sojg     3, 416670       ;">Y@AVX"
022674:  263000000000  popj     0,              ;"68    " ",`\0\0\0"
022675:  332000001316  skipe    0, 1316         ;";0  +."
022676:  260000417176  pushj    0, 417176       ;"6  AY^"
022677:  336000001332  skipn    0, 1332         ;";P  +:"
022700:  260000404360  pushj    0, 404360       ;"6  @CP"
022701:  260000414406  pushj    0, 414406       ;"6  AD&"
022702:  265240404672  jsp      5, 404672       ;"6J@@FZ"
022703:  416705403650  setmm    16, 403650(5)   ;"AW%@>H"
022704:  201100000004  movei    2, 4            ;"0)   $"
022705:  265240404672  jsp      5, 404672       ;"6J@@FZ"
022706:  416710403670  setmm    16, 403670(10)  ;"AW(@>X"
022707:  264000000770  jsr      770             ;"6@  'X"
022710:  402000001336  setzm    1336            ;"@0  +>"
022711:  550740000176  hrrz     17, 176         ;"M'@ !^"
022712:  201200416756  movei    4, 416756       ;"0* AWN"
022713:  135757416760  ldb      17, 416760(17)  ;"+OOAWP"
022714:  254017416716  jrst     416716(17)      ;"5@/AW."
022715:  255000000000  nop                      ;"5H    " "+ \0\0\0"
022716:  255000000000  nop                      ;"5H    " "+ \0\0\0"
022717:  476000001336  setom    1336            ;"GP  +>"
022720:  265240404672  jsp      5, 404672       ;"6J@@FZ"
022721:  416723403642  setmm    16, @403642(3)  ;"AW3@>B"
022722:  322040403724  jumpe    1, 403724       ;":0@@?4"
022723:  505040000252  hrli     1, 252          ;"HH@ "J"
022724:  540040001072  hrr      1, 1072         ;"L @ (Z"
022725:  402001000000  setzm    (1)             ;"@0!   "
022726:  332000001336  skipe    0, 1336         ;";0  +>"
022727:  254000416734  jrst     416734          ;"5@ AW<"
022730:  550140000000  hrrz     3, 0            ;"M!@   "
022731:  271140000200  addi     3, 200          ;"7)@ " "
022732:  251060000002  blt      1, @2           ;"5(P  ""
022733:  265240404672  jsp      5, 404672       ;"6J@@FZ"
022734:  416736403710  setmm    16, @403710(16) ;"AW>@?("
022735:  402000001330  setzm    1330            ;"@0  +8"
022736:  402000001336  setzm    1336            ;"@0  +>"
022737:  265240404672  jsp      5, 404672       ;"6J@@FZ"
022740:  416742403634  setmm    17, 403634(2)   ;"AWB@><"
022741:  202200001066  movem    4, 1066         ;"02  (V"
022742:  550100000004  hrrz     2, 4            ;"M!   $"
022743:  271100000002  addi     2, 2            ;"7)   ""
022744:  505100010700  hrli     2, 10700        ;"HI !' "
022745:  550140001072  hrrz     3, 1072         ;"M!@ (Z"
022746:  200040001336  move     1, 1336         ;"0 @ +>"
022747:  264000000770  jsr      770             ;"6@  'X"
022750:  265240404672  jsp      5, 404672       ;"6J@@FZ"
022751:  416753403636  setmm    17, 403636(13)  ;"AWK@>>"
022752:  265240404672  jsp      5, 404672       ;"6J@@FZ"
022753:  416755403644  setmm    17, 403644(15)  ;"AWM@>D"
022754:  264000000770  jsr      770             ;"6@  'X"
022755:  254000405324  jrst     405324          ;"5@ @K4"
022756:  000000302000                           ;"   80 "
022757:  100000000000                           ;"(     "
022760:  410304000000  andca    6, (4)          ;"A#$   " "B\f \0\0"
022761:  360304000000  soj      6, (4)          ;">#$   " "<\f \0\0"
022762:  330304000000  skip     6, (4)          ;";#$   " "6\f \0\0"
022763:  300304000000  cai      6, (4)          ;"8#$   " "0\f \0\0"
022764:  250304000000  exch     6, (4)          ;"5#$   " "*\f \0\0"
022765:  220304000000  imul     6, (4)          ;"2#$   " "$\f \0\0"
022766:  170304000000  fdv      6, (4)          ;"/#$   "
022767:  140304000000  fad      6, (4)          ;",#$   "
022770:  110304000000                           ;")#$   "
022771:  060304000000                           ;"&#$   " "\f\f \0\0"
022772:  030304000000                           ;"##$   "
022773:  000304000000                           ;" #$   "
022774:  410304000000  andca    6, (4)          ;"A#$   " "B\f \0\0"
022775:  360304000000  soj      6, (4)          ;">#$   " "<\f \0\0"
022776:  330304000000  skip     6, (4)          ;";#$   " "6\f \0\0"
022777:  300304000000  cai      6, (4)          ;"8#$   " "0\f \0\0"
023000:  250304000000  exch     6, (4)          ;"5#$   " "*\f \0\0"
023001:  220304000000  imul     6, (4)          ;"2#$   " "$\f \0\0"
023002:  170304000000  fdv      6, (4)          ;"/#$   "
023003:  000000000000                           ;"      "
023004:  000000000000                           ;"      "
023005:  000000000002                           ;"     ""
023006:  000000000002                           ;"     ""
023007:  000000000004                           ;"     $"
023010:  000000000006                           ;"     &"
023011:  000000000006                           ;"     &"
023012:  000000000010                           ;"     ("
023013:  000000000010                           ;"     ("
023014:  000000000012                           ;"     *"
023015:  000000000012                           ;"     *"
023016:  000000001000                           ;"    ( "
023017:  000000000014                           ;"     ,"
023020:  000000000010                           ;"     ("
023021:  000000001010                           ;"    (("
023022:  000000002010                           ;"    0("
023023:  000000003010                           ;"    8("
023024:  000000004010                           ;"    @("
023025:  000000005010                           ;"    H("
023026:  000013000012                           ;"  +  *"
023027:  000000000014                           ;"     ,"
023030:  000000000016                           ;"     ."
023031:  777000000000  blki     770, 0          ;"_X    "
023032:  000000000776                           ;"    '^"
023033:  000777000000                           ;" '_   "
023034:  776000000000  blki     760, 0          ;"_P    "
023035:  000017000000                           ;"  /   "
023036:  000017000000                           ;"  /   "
023037:  017000000000                           ;"!X    "
023040:  400000000000  setz     0,              ;"@     " "@\0\0\0\0"
023041:  000000000400                           ;"    $ "
023042:  000000001310                           ;"    +("
023043:  000000001306                           ;"    +&"
023044:  000000000000                           ;"      "
023045:  000001000000                           ;"  !   "
023046:  000000000142                           ;"    !B"
023047:  777777777634  conso    774, @777634(17);"____^<"
023050:  000000000012                           ;"     *"
023051:  000000000100                           ;"    ! "
023052:  400000000000  setz     0,              ;"@     " "@\0\0\0\0"
023053:  000002000022                           ;"  "  2"
023054:  000000000000                           ;"      "
023055:  000000000000                           ;"      "
023056:  000000000000                           ;"      "
023057:  000000000000                           ;"      "
023060:  000575360400                           ;" %]>$ "
023061:  352725653520  aose     16, @653520(5)  ;"=75U=0" ":].W("
023062:  000000000010                           ;"     ("
023063:  000000000010                           ;"     ("
023064:  777777000000  conso    774, @(17)      ;"___   "
023065:  777777777776  conso    774, @777776(17);"_____^"
023066:  000000000066                           ;"     V"
023067:  000000000006                           ;"     &"
023070:  041000417070  .open    0, 417070       ;"$( AXX"
023071:  360541703520  soj      13, 703520(1)   ;">%AX=0"
023072:  000000000014                           ;"     ,"
023073:  000000000066                           ;"     V"
023074:  000000000000                           ;"      "
023075:  000000000012                           ;"     *"
023076:  000000000120                           ;"    !0"
023077:  007346544776                           ;" [FLG^"
023100:  000000000556                           ;"    %N"
023101:  407346544776  andb     7, 544776(6)    ;"@[FLG^"
023102:  001000000000                           ;" (    "
023103:  000000000000                           ;"      "
023104:  000000002000                           ;"    0 "
023105:  000000000000                           ;"      "
023106:  334724000000  skipa    16, @(4)        ;";G4   "
023107:  000000000000                           ;"      "
023110:  005011000000                           ;" H)   "
023111:  024006000000                           ;""@&   "
023112:  241000000452  rot      0, 452          ;"4(  $J"
023113:  141000000452                           ;",(  $J"
023114:  041000000252  .open    0, 252          ;"$(  "J"
023115:  000000005276                           ;"    J^"
023116:  000000000030                           ;"     8"
023117:  010700001132                           ;"!'  ):"
023120:  000000000000                           ;"      "
023121:  000000000000                           ;"      "
023122:  405563000022  andi     13, @22(3)      ;"@MS  2"
023123:  410561000022  andca    13, @22(1)      ;"A%Q  2"
023124:  410563000022  andca    13, @22(3)      ;"A%S  2"
023125:  220400000000  imul     10, 0           ;"2$    "
023126:  220400000002  imul     10, 2           ;"2$   ""
023127:  220400000002  imul     10, 2           ;"2$   ""
023130:  220400000016  imul     10, 16          ;"2$   ."
023131:  330400000016  skip     10, 16          ;";$   ."
023132:  400200001322  setz     4, 1322         ;"@"  +2"
023133:  360100001322  soj      2, 1322         ;">!  +2"
023134:  320200001322  jump     4, 1322         ;":"  +2"
023135:  300100001322  cai      2, 1322         ;"8!  +2"
023136:  260100001322  pushj    2, 1322         ;"6!  +2"
023137:  002200001322                           ;" 2  +2"
023140:  341002000000  aojl     0, (2)          ;"<("   "
023141:  341000000002  aojl     0, 2            ;"<(   ""
023142:  111117417202                           ;"))/AZ""
023143:  001117417202                           ;" )/AZ""
023144:  260400000002  pushj    10, 2           ;"6$   ""
023145:  220410000000  imul     10, (10)        ;"2$(   "
023146:  336000417056  skipn    0, 417056       ;";P AXN"
023147:  254000404100  jrst     404100          ;"5@ @A "
023150:  263000000000  popj     0,              ;"68    " ",`\0\0\0"
023151:  336000417054  skipn    0, 417054       ;";P AXL"
023152:  254000404100  jrst     404100          ;"5@ @A "
023153:  322040417156  jumpe    1, 417156       ;":0@AYN"
023154:  200040001306  move     1, 1306         ;"0 @ +&"
023155:  400140000000  setz     3,              ;"@!@   "
023156:  263000000000  popj     0,              ;"68    " ",`\0\0\0"
023157:  336000417054  skipn    0, 417054       ;";P AXL"
023160:  254000404100  jrst     404100          ;"5@ @A "
023161:  322200417164  jumpe    4, 417164       ;":2 AYT"
023162:  200200001306  move     4, 1306         ;"0"  +&"
023163:  400300000000  setz     6,              ;"@#    " "@\f\0\0\0"
023164:  263000000000  popj     0,              ;"68    " ",`\0\0\0"
023165:  336000417060  skipn    0, 417060       ;";P AXP"
023166:  254000404100  jrst     404100          ;"5@ @A "
023167:  263000000000  popj     0,              ;"68    " ",`\0\0\0"
023170:  336000417056  skipn    0, 417056       ;";P AXN"
023171:  254000404100  jrst     404100          ;"5@ @A "
023172:  263000000000  popj     0,              ;"68    " ",`\0\0\0"
023173:  336000417120  skipn    0, 417120       ;";P AY0"
023174:  260000403714  pushj    0, 403714       ;"6  @?,"
023175:  263000000000  popj     0,              ;"68    " ",`\0\0\0"
023176:  336000417122  skipn    0, 417122       ;";P AY2"
023177:  260000403714  pushj    0, 403714       ;"6  @?,"
023200:  263000000000  popj     0,              ;"68    " ",`\0\0\0"
023201:  156060000002  fsbrm    1, @2           ;"-PP  ""
023202:  156061000002  fsbrm    1, @2(1)        ;"-PQ  ""
023203:  156062000002  fsbrm    1, @2(2)        ;"-PR  ""
023204:  156063000002  fsbrm    1, @2(3)        ;"-PS  ""
023205:  156064000002  fsbrm    1, @2(4)        ;"-PT  ""
023206:  156065000002  fsbrm    1, @2(5)        ;"-PU  ""
023207:  156066000002  fsbrm    1, @2(6)        ;"-PV  ""
023210:  156067000002  fsbrm    1, @2(7)        ;"-PW  ""
023211:  156070000002  fsbrm    1, @2(10)       ;"-PX  ""
023212:  152071000002  fsbm     1, @2(11)       ;"-0Y  ""
023213:  156101000000  fsbrm    2, (1)          ;"-Q!   "
023214:  156102000000  fsbrm    2, (2)          ;"-Q"   "
023215:  150103000000  fsb      2, (3)          ;"-!#   "
023216:  151104000000                           ;"-)$   "
023217:  156105000000  fsbrm    2, (5)          ;"-Q%   " "\033D(\0\0"
023220:  156106000000  fsbrm    2, (6)          ;"-Q&   " "\033D0\0\0"
023221:  156107000000  fsbrm    2, (7)          ;"-Q'   " "\033D8\0\0"
023222:  156110000000  fsbrm    2, (10)         ;"-Q(   " "\033D@\0\0"
023223:  156111000000  fsbrm    2, (11)         ;"-Q)   " "\033DH\0\0"
023224:  156112000000  fsbrm    2, (12)         ;"-Q*   " "\033DP\0\0"
023225:  156113000000  fsbrm    2, (13)         ;"-Q+   " "\033DX\0\0"
023226:  156114000000  fsbrm    2, (14)         ;"-Q,   " "\033D`\0\0"
023227:  156115000000  fsbrm    2, (15)         ;"-Q-   " "\033Dh\0\0"
023230:  156116000000  fsbrm    2, (16)         ;"-Q.   " "\033Dp\0\0"
023231:  156117000000  fsbrm    2, (17)         ;"-Q/   " "\033Dx\0\0"
023232:  147120000000  fadrb    2, @0           ;",Y0   "
023233:  156121000000  fsbrm    2, @(1)         ;"-Q1   "
023234:  156122000000  fsbrm    2, @(2)         ;"-Q2   "
023235:  156123000000  fsbrm    2, @(3)         ;"-Q3   "
023236:  156124000000  fsbrm    2, @(4)         ;"-Q4   " "\033E \0\0"
023237:  156125000000  fsbrm    2, @(5)         ;"-Q5   " "\033E(\0\0"
023240:  156126000000  fsbrm    2, @(6)         ;"-Q6   " "\033E0\0\0"
023241:  170127000000  fdv      2, @(7)         ;"/!7   "
023242:  124130000000                           ;"*A8   "
023243:  154131000000  fsbr     2, @(11)        ;"-A9   "
023244:  156132000000  fsbrm    2, @(12)        ;"-Q:   " "\033EP\0\0"
023245:  157141000000  fsbrb    3, (1)          ;"-YA   "
023246:  131142000000                           ;"+)B   "
023247:  142143000000  fadm     3, (3)          ;",1C   "
023250:  153144000000  fsbb     3, (4)          ;"-9D   "
023251:  120145000000                           ;"*!E   "
023252:  121146000000                           ;"*)F   "
023253:  144147000000  fadr     3, (7)          ;",AG   "
023254:  140150000000  fad      3, (10)         ;",!H   "
023255:  161151000000                           ;".)I   "
023256:  141152000000                           ;",)J   "
023257:  160153000000  fmp      3, (13)         ;".!K   "
023260:  143154000000  fadb     3, (14)         ;",9L   "
023261:  000155000000                           ;" !M   "
023262:  001156000000                           ;" )N   "
023263:  002157000000                           ;" 1O   "
023264:  003160000000                           ;" 9P   "
023265:  004161000000                           ;" AQ   "
023266:  005162000000                           ;" IR   "
023267:  006163000000                           ;" QS   "
023270:  007164000000                           ;" YT   "
023271:  010165000000                           ;"!!U   "
023272:  011166000000                           ;"!)V   "
023273:  163167000000  fmpb     3, @(7)         ;".9W   "
023274:  162170000000  fmpm     3, @(10)        ;".1X   "
023275:  132171000000  fsc      3, @(11)        ;"+1Y   "
023276:  130172000000                           ;"+!Z   "
023277:  133043000004                           ;"+8C  $"
023300:  164043000004  fmpr     1, 4(3)         ;".@C  $"
023301:  135043000004  ldb      1, 4(3)         ;"+HC  $"
023302:  012043000004                           ;"!0C  $"
023303:  013043000004                           ;"!8C  $"
023304:  014043000004                           ;"!@C  $"
023305:  015043000004                           ;"!HC  $"
023306:  016043000004                           ;"!PC  $"
023307:  017043000004                           ;"!XC  $"
023310:  020043000004                           ;"" C  $"
023311:  021043000004                           ;""(C  $"
023312:  022043000004                           ;""0C  $"
023313:  023043000004                           ;""8C  $"
023314:  024043000004                           ;""@C  $"
023315:  025043000004                           ;""HC  $"
023316:  026043000004                           ;""PC  $"
023317:  027043000004                           ;""XC  $"
023320:  030043000004                           ;"# C  $"
023321:  031050003006                           ;"#(H 8&"
023322:  032051004006                           ;"#0I @&"
023323:  033133003006                           ;"#9; 8&"
023324:  034135004006                           ;"#A= @&"
023325:  035041000006                           ;"#HA  &"
023326:  036050005006                           ;"#PH H&"
023327:  037051006006                           ;"#XI P&"
023330:  040054007004  .iot     1, 7004(14)     ;"$ L X$"
023331:  041075000010  .open    1, @10(15)      ;"$(]  ("
023332:  042045000010                           ;"$0E  ("
023333:  043074000010  .dismis  @10(14)         ;"$8\  ("
023334:  122076000010                           ;"*0^  ("
023335:  134134000010  ildb     2, @10(14)      ;"+A<  ("
023336:  123100000010                           ;"*9   ("
023337:  155043000004  fsbri    1, 4(3)         ;"-HC  $"
023340:  156043000004  fsbrm    1, 4(3)         ;"-PC  $"
023341:  156053000010  fsbrm    1, 10(13)       ;"-PK  ("
023342:  044055000010  .uset    1, 10(15)       ;"$@M  ("
023343:  045046000010  .break   1, 10(6)        ;"$HF  ("
023344:  046057000010  .status  1, 10(17)       ;"$PO  ("
023345:  047052000010  .access  1, 10(12)       ;"$XJ  ("
023346:  050043000004                           ;"% C  $"
023347:  051043000004                           ;"%(C  $"
023350:  052031000012                           ;"%09  *"
023351:  053014000012                           ;"%8,  *"
023352:  054015000012                           ;"%@-  *"
023353:  055011000012                           ;"%H)  *"
023354:  056047000006                           ;"%PG  &"
023355:  057042000006                           ;"%XB  &"
023356:  060136000006                           ;"&!>  &"
023357:  061043000006                           ;"&(C  &"
023360:  062044000006                           ;"&0D  &"
023361:  063056000004                           ;"&8N  $"
023362:  064054000004                           ;"&@L  $"
023363:  065073002004                           ;"&H[ 0$"
023364:  066072000004                           ;"&PZ  $"
023365:  067077000004                           ;"&X_  $"
023366:  070000001000                           ;"'   ( "
023367:  071056000004                           ;"'(N  $"
023370:  072054000004                           ;"'0L  $"
023371:  073040000002                           ;"'8@  ""
023372:  074040000002                           ;"'@@  ""
023373:  075040000002                           ;"'H@  ""
023374:  156040000002  fsbrm    1, 2            ;"-P@  ""
023375:  156040000002  fsbrm    1, 2            ;"-P@  ""
023376:  156040000002  fsbrm    1, 2            ;"-P@  ""
023377:  156040000002  fsbrm    1, 2            ;"-P@  ""
023400:  156040000002  fsbrm    1, 2            ;"-P@  ""
023401:  141000417556                           ;",( A]N"
023402:  241000417556  rot      0, 417556       ;"4( A]N"
023403:  341000417556  aojl     0, 417556       ;"<( A]N"
023404:  041000417554  .open    0, 417554       ;"$( A]L"
023405:  141000417554                           ;",( A]L"
023406:  241000417554  rot      0, 417554       ;"4( A]L"
023407:  341000417554  aojl     0, 417554       ;"<( A]L"
023410:  041000417554  .open    0, 417554       ;"$( A]L"
023411:  041000417556  .open    0, 417556       ;"$( A]N"
023412:  041000417560  .open    0, 417560       ;"$( A]P"
023413:  041000417560  .open    0, 417560       ;"$( A]P"
023414:  041000417562  .open    0, 417562       ;"$( A]R"
023415:  041000417564  .open    0, 417564       ;"$( A]T"
023416:  041000417564  .open    0, 417564       ;"$( A]T"
023417:  041000417566  .open    0, 417566       ;"$( A]V"
023420:  041000417566  .open    0, 417566       ;"$( A]V"
023421:  041000417570  .open    0, 417570       ;"$( A]X"
023422:  041000417570  .open    0, 417570       ;"$( A]X"
023423:  041000417572  .open    0, 417572       ;"$( A]Z"
023424:  041000417572  .open    0, 417572       ;"$( A]Z"
023425:  041000417574  .open    0, 417574       ;"$( A]\"
023426:  041000417574  .open    0, 417574       ;"$( A]\"
023427:  041000417576  .open    0, 417576       ;"$( A]^"
023430:  041000417576  .open    0, 417576       ;"$( A]^"
023431:  041000417600  .open    0, 417600       ;"$( A^ "
023432:  041000417600  .open    0, 417600       ;"$( A^ "
023433:  041000417602  .open    0, 417602       ;"$( A^""
023434:  041000417602  .open    0, 417602       ;"$( A^""
023435:  041000417604  .open    0, 417604       ;"$( A^$"
023436:  041000417606  .open    0, 417606       ;"$( A^&"
023437:  041000417610  .open    0, 417610       ;"$( A^("
023440:  041000417612  .open    0, 417612       ;"$( A^*"
023441:  041000417614  .open    0, 417614       ;"$( A^,"
023442:  041000417616  .open    0, 417616       ;"$( A^."
023443:  041000417616  .open    0, 417616       ;"$( A^."
023444:  041000417620  .open    0, 417620       ;"$( A^0"
023445:  041000417622  .open    0, 417622       ;"$( A^2"
023446:  041000417624  .open    0, 417624       ;"$( A^4"
023447:  041000417626  .open    0, 417626       ;"$( A^6"
023450:  041000417630  .open    0, 417630       ;"$( A^8"
023451:  041000417632  .open    0, 417632       ;"$( A^:"
023452:  041000417634  .open    0, 417634       ;"$( A^<"
023453:  041000417636  .open    0, 417636       ;"$( A^>"
023454:  041000417640  .open    0, 417640       ;"$( A^@"
023455:  041000417640  .open    0, 417640       ;"$( A^@"
023456:  041000417642  .open    0, 417642       ;"$( A^B"
023457:  041000417642  .open    0, 417642       ;"$( A^B"
023460:  041000417644  .open    0, 417644       ;"$( A^D"
023461:  041000417646  .open    0, 417646       ;"$( A^F"
023462:  041000417650  .open    0, 417650       ;"$( A^H"
023463:  041000417652  .open    0, 417652       ;"$( A^J"
023464:  041000417654  .open    0, 417654       ;"$( A^L"
023465:  041000417656  .open    0, 417656       ;"$( A^N"
023466:  041000417660  .open    0, 417660       ;"$( A^P"
023467:  041000417662  .open    0, 417662       ;"$( A^R"
023470:  041000417642  .open    0, 417642       ;"$( A^B"
023471:  041000417664  .open    0, 417664       ;"$( A^T"
023472:  041000417602  .open    0, 417602       ;"$( A^""
023473:  041000417612  .open    0, 417612       ;"$( A^*"
023474:  041000417666  .open    0, 417666       ;"$( A^V"
023475:  041000417670  .open    0, 417670       ;"$( A^X"
023476:  041000417672  .open    0, 417672       ;"$( A^Z"
023477:  041000417674  .open    0, 417674       ;"$( A^\"
023500:  041000417676  .open    0, 417676       ;"$( A^^"
023501:  041000417700  .open    0, 417700       ;"$( A_ "
023502:  041000417702  .open    0, 417702       ;"$( A_""
023503:  041000417704  .open    0, 417704       ;"$( A_$"
023504:  041000417704  .open    0, 417704       ;"$( A_$"
023505:  041000417706  .open    0, 417706       ;"$( A_&"
023506:  041000417710  .open    0, 417710       ;"$( A_("
023507:  041000417712  .open    0, 417712       ;"$( A_*"
023510:  041000417714  .open    0, 417714       ;"$( A_,"
023511:  041000417716  .open    0, 417716       ;"$( A_."
023512:  041000417720  .open    0, 417720       ;"$( A_0"
023513:  041000417722  .open    0, 417722       ;"$( A_2"
023514:  041000417722  .open    0, 417722       ;"$( A_2"
023515:  041000417724  .open    0, 417724       ;"$( A_4"
023516:  000000000000                           ;"      "
023517:  041000417726  .open    0, 417726       ;"$( A_6"
023520:  041000417730  .open    0, 417730       ;"$( A_8"
023521:  041000417732  .open    0, 417732       ;"$( A_:"
023522:  041000417736  .open    0, 417736       ;"$( A_>"
023523:  041000417742  .open    0, 417742       ;"$( A_B"
023524:  041000417746  .open    0, 417746       ;"$( A_F"
023525:  041000417750  .open    0, 417750       ;"$( A_H"
023526:  041000417754  .open    0, 417754       ;"$( A_L"
023527:  041000420454  .open    0, 420454       ;"$( B$L"
023530:  041000001240  .open    0, 1240         ;"$(  *@"
023531:  041000417762  .open    0, 417762       ;"$( A_R"
023532:  041000417766  .open    0, 417766       ;"$( A_V"
023533:  041000420010  .open    0, 420010       ;"$( B ("
023534:  041000420016  .open    0, 420016       ;"$( B ."
023535:  041000420020  .open    0, 420020       ;"$( B 0"
023536:  041000420024  .open    0, 420024       ;"$( B 4"
023537:  041000420030  .open    0, 420030       ;"$( B 8"
023540:  041000420044  .open    0, 420044       ;"$( B D"
023541:  041000420050  .open    0, 420050       ;"$( B H"
023542:  041000420126  .open    0, 420126       ;"$( B!6"
023543:  041000420154  .open    0, 420154       ;"$( B!L"
023544:  041000420206  .open    0, 420206       ;"$( B"&"
023545:  041000420240  .open    0, 420240       ;"$( B"@"
023546:  041000420276  .open    0, 420276       ;"$( B"^"
023547:  041000420320  .open    0, 420320       ;"$( B#0"
023550:  041000001252  .open    0, 1252         ;"$(  *J"
023551:  041000420344  .open    0, 420344       ;"$( B#D"
023552:  041000420400  .open    0, 420400       ;"$( B$ "
023553:  041000001202  .open    0, 1202         ;"$(  *""
023554:  360741703600  soj      17, 703600(1)   ;">'AX> "
023555:  360741703600  soj      17, 703600(1)   ;">'AX> "
023556:  352000000000  aose     0, 0            ;"=0    " ":@\0\0\0"
023557:  110304473520                           ;")#$G=0"
023560:  144325650000  fadr     6, @650000(5)   ;",C5U  "
023561:  142310673520  fadm     6, 673520(10)   ;",3(W=0"
023562:  154320651560  fsbr     6, @651560      ;"-C0U-P"
023563:  352000000000  aose     0, 0            ;"=0    " ":@\0\0\0"
023564:  136310523520  idpb     6, 523520(10)   ;"+S(J=0"
023565:  120354633520                           ;"*#LS=0"
023566:  154260613520  fsbr     5, @613520      ;"-BPQ=0"
023567:  114310663520                           ;")C(V=0"
023570:  110324523520                           ;")#4J=0"
023571:  130315650000                           ;"+#-U  "
023572:  122315650000                           ;"*3-U  "
023573:  116315650000                           ;")S-U  "
023574:  166315650000  fmprm    6, 650000(15)   ;".S-U  "
023575:  154250613520  fsbr     5, 613520(10)   ;"-BHQ=0"
023576:  140220733520  fad      4, @733520      ;","0[=0"
023577:  140260613520  fad      5, @613520      ;","PQ=0"
023600:  070240673520                           ;"'"@W=0"
023601:  052240673520                           ;"%2@W=0"
023602:  032311650000                           ;"#3)U  "
023603:  072360631200                           ;"'3PS* "
023604:  352000000000  aose     0, 0            ;"=0    " ":@\0\0\0"
023605:  032240571200                           ;"#2@O* "
023606:  156241650000  fsbrm    5, 650000(1)    ;"-RAU  "
023607:  052260611200                           ;"%2PQ* "
023610:  352000000000  aose     0, 0            ;"=0    " ":@\0\0\0"
023611:  062220521200                           ;"&20J* "
023612:  352000000000  aose     0, 0            ;"=0    " ":@\0\0\0"
023613:  030220611140                           ;"#"0Q)@"
023614:  120275650000                           ;"*"]U  "
023615:  040311650000  .iot     6, 650000(11)   ;"$#)U  "
023616:  072311650000                           ;"'3)U  "
023617:  032310611200                           ;"#3(Q* "
023620:  352000000000  aose     0, 0            ;"=0    " ":@\0\0\0"
023621:  070334621460                           ;"'#<R,P"
023622:  352000000000  aose     0, 0            ;"=0    " ":@\0\0\0"
023623:  032240601100                           ;"#2@P) "
023624:  142235650000  fadm     4, @650000(15)  ;",2=U  "
023625:  036310651400                           ;"#S(U, "
023626:  352000000000  aose     0, 0            ;"=0    " ":@\0\0\0"
023627:  154334501460  fsbr     6, @501460(14)  ;"-C<H,P"
023630:  154724000000  fsbr     16, @(4)        ;"-G4   "
023631:  146220651560  fadrm    4, @651560      ;",R0U-P"
023632:  154724000000  fsbr     16, @(4)        ;"-G4   "
023633:  122310651400                           ;"*3(U, "
023634:  154724000000  fsbr     16, @(4)        ;"-G4   "
023635:  162220571600  fmpm     4, @571600      ;".20O. "
023636:  120331650000                           ;"*#9U  "
023637:  110274573520                           ;")"\O=0"
023640:  130305650000                           ;"+#%U  "
023641:  122310653520                           ;"*3(U=0"
023642:  130245650000                           ;"+"EU  "
023643:  154260751200  fsbr     5, @751200      ;"-BP]* "
023644:  352000000000  aose     0, 0            ;"=0    " ":@\0\0\0"
023645:  156260601200  fsbrm    5, @601200      ;"-RPP* "
023646:  352000000000  aose     0, 0            ;"=0    " ":@\0\0\0"
023647:  160330501520  fmp      6, @501520(10)  ;".#8H-0"
023650:  154724000000  fsbr     16, @(4)        ;"-G4   "
023651:  154334501460  fsbr     6, @501460(14)  ;"-C<H,P"
023652:  352000000000  aose     0, 0            ;"=0    " ":@\0\0\0"
023653:  146220651560  fadrm    4, @651560      ;",R0U-P"
023654:  352000000000  aose     0, 0            ;"=0    " ":@\0\0\0"
023655:  122310651400                           ;"*3(U, "
023656:  352000000000  aose     0, 0            ;"=0    " ":@\0\0\0"
023657:  154340603520  fsbr     7, 603520       ;"-C@P=0"
023660:  122310651400                           ;"*3(U, "
023661:  160274441540  fmp      5, @441540(14)  ;"."\D-@"
023662:  352000000000  aose     0, 0            ;"=0    " ":@\0\0\0"
023663:  146324621160  fadrm    6, @621160(4)   ;",S4R)P"
023664:  352000000000  aose     0, 0            ;"=0    " ":@\0\0\0"
023665:  156345650000  fsbrm    7, 650000(5)    ;"-SEU  " "\033N.P\0"
023666:  122220571540                           ;"*20O-@"
023667:  120724000000                           ;"*'4   "
023670:  156324701200  fsbrm    6, @701200(4)   ;"-S4X* "
023671:  352000000000  aose     0, 0            ;"=0    " ":@\0\0\0"
023672:  122310651400                           ;"*3(U, "
023673:  160274443520  fmp      5, @443520(14)  ;"."\D=0"
023674:  156260601200  fsbrm    5, @601200      ;"-RPP* "
023675:  154724000000  fsbr     16, @(4)        ;"-G4   "
023676:  122260651540                           ;"*2PU-@"
023677:  156724000000  fsbrm    16, @(4)        ;"-W4   " "\033] \0\0"
023700:  122260571200                           ;"*2PO* "
023701:  352000000000  aose     0, 0            ;"=0    " ":@\0\0\0"
023702:  130334501400                           ;"+#<H, "
023703:  352000000000  aose     0, 0            ;"=0    " ":@\0\0\0"
023704:  110331650000                           ;")#9U  "
023705:  032260661140                           ;"#2PV)@"
023706:  110324473520                           ;")#4G=0"
023707:  036260571200                           ;"#RPO* "
023710:  352000000000  aose     0, 0            ;"=0    " ":@\0\0\0"
023711:  066240461100                           ;"&R@F) "
023712:  136275650000  idpb     5, @650000(15)  ;"+R]U  "
023713:  074330503520                           ;"'C8H=0"
023714:  064340541560                           ;"&C@L-P"
023715:  352000000000  aose     0, 0            ;"=0    " ":@\0\0\0"
023716:  136260661560  idpb     5, @661560      ;"+RPV-P"
023717:  352000000000  aose     0, 0            ;"=0    " ":@\0\0\0"
023720:  156260601200  fsbrm    5, @601200      ;"-RPP* "
023721:  152724000000  fsbm     16, @(4)        ;"-74   "
023722:  112241650000                           ;")2AU  "
023723:  154314441520  fsbr     6, 441520(14)   ;"-C,D-0" "\033\fdC("
023724:  154241650000  fsbr     5, 650000(1)    ;"-BAU  "
023725:  066240661200                           ;"&R@V* "
023726:  156724000000  fsbrm    16, @(4)        ;"-W4   " "\033] \0\0"
023727:  034324651440                           ;"#C4U,@"
023730:  152724000000  fsbm     16, @(4)        ;"-74   "
023731:  360220451440  soj      4, @451440      ;">"0E,@"
023732:  162241650000  fmpm     5, 650000(1)    ;".2AU  "
023733:  360220673600  soj      4, @673600      ;">"0W> "
023734:  522740770220  hllom    17, 770220      ;"J7@_"0"
023735:  352000000000  aose     0, 0            ;"=0    " ":@\0\0\0"
023736:  360234701520  soj      4, @701520(14)  ;">"<X-0"
023737:  130304523600                           ;"+#$J> "
023740:  110224621620                           ;")"4R.0"
023741:  120724000000                           ;"*'4   "
023742:  360234701520  soj      4, @701520(14)  ;">"<X-0"
023743:  130304523600                           ;"+#$J> "
023744:  522740770220  hllom    17, 770220      ;"J7@_"0"
023745:  352000000000  aose     0, 0            ;"=0    " ":@\0\0\0"
023746:  044654603600  .uset    15, 603600(14)  ;"$FLP> "
023747:  110335705220                           ;")#=XJ0"
023750:  352000000000  aose     0, 0            ;"=0    " ":@\0\0\0"
023751:  070334621460                           ;"'#<R,P"
023752:  146240473600  fadrm    5, 473600       ;",R@G> "
023753:  112361705220                           ;")3QXJ0"
023754:  352000000000  aose     0, 0            ;"=0    " ":@\0\0\0"
023755:  066240711440                           ;"&R@Y,@"
023756:  134240473600  ildb     5, 473600       ;"+B@G> "
023757:  112361701300                           ;")3QX+ "
023760:  142334501520  fadm     6, @501520(14)  ;",3<H-0"
023761:  152340631560  fsbm     7, 631560       ;"-3@S-P"
023762:  352000000000  aose     0, 0            ;"=0    " ":@\0\0\0"
023763:  044335531540  .uset    6, @531540(15)  ;"$C=K-@" "\t\rm30"
023764:  360221701400  soj      4, @701400(1)   ;">"1X, "
023765:  120330663540                           ;"*#8V=@"
023766:  360724000000  soj      16, @(4)        ;">'4   "
023767:  052240673260                           ;"%2@W:P"
023770:  154740661560  fsbr     17, 661560      ;"-G@V-P"
023771:  110324673600                           ;")#4W> "
023772:  144344501520  fadr     7, 501520(4)    ;",CDH-0"
023773:  352000000000  aose     0, 0            ;"=0    " ":@\0\0\0"
023774:  176061701100  fdvrm    1, @701100(1)   ;"/PQX) "
023775:  156742513520  fsbrm    17, 513520(2)   ;"-WBI=0"
023776:  176061701220  fdvrm    1, @701220(1)   ;"/PQX*0"
023777:  152310603600  fsbm     6, 603600(10)   ;"-3(P> "
024000:  522724000000  hllom    16, @(4)        ;"J74   " "T] \0\0"
024001:  176061701300  fdvrm    1, @701300(1)   ;"/PQX+ "
024002:  142742513520  fadm     17, 513520(2)   ;",7BI=0"
024003:  342740441360  aoje     17, 441360      ;"<7@D+P"
024004:  156254623600  fsbrm    5, 623600(14)   ;"-RLR> " "\033Jf'@"
024005:  044740461100  .uset    17, 461100      ;"$G@F) "
024006:  142654673600  fadm     15, 673600(14)  ;",6LW> "
024007:  122260611160                           ;"*2PQ)P"
024010:  360260673520  soj      5, @673520      ;">"PW=0"
024011:  464701700440  orcm     16, 700440(1)   ;"FG!X$@"
024012:  326301701520  jumpn    6, 701520(1)    ;":S!X-0"
024013:  120220471700                           ;"*"0G/ "
024014:  360334623600  soj      6, @623600(14)  ;">#<R> " "<\rf'@"
024015:  124311650000                           ;"*C)U  "
024016:  044740531100  .uset    17, 531100      ;"$G@K) "
024017:  162241703520  fmpm     5, 703520(1)    ;".2AX=0"
024020:  044740461100  .uset    17, 461100      ;"$G@F) "
024021:  142654673600  fadm     15, 673600(14)  ;",6LW> "
024022:  122260611160                           ;"*2PQ)P"
024023:  360334531200  soj      6, @531200(14)  ;">#<K* " "<\re2@"
024024:  360724000000  soj      16, @(4)        ;">'4   "
024025:  152240641600  fsbm     5, 641600       ;"-2@T. "
024026:  130324501160                           ;"+#4H)P"
024027:  360724000000  soj      16, @(4)        ;">'4   "
024030:  361221701300  sojl     4, @701300(1)   ;">*1X+ "
024031:  156240651100  fsbrm    5, 651100       ;"-R@U) "
024032:  156260621420  fsbrm    5, @621420      ;"-RPR,0"
024033:  352000000000  aose     0, 0            ;"=0    " ":@\0\0\0"
024034:  176040613600  fdvrm    1, 613600       ;"/P@Q> "
024035:  144344501520  fadr     7, 501520(4)    ;",CDH-0"
024036:  122274621640                           ;"*2\R.@"
024037:  352000000000  aose     0, 0            ;"=0    " ":@\0\0\0"
024040:  176041701720  fdvrm    1, 701720(1)    ;"/PAX/0"
024041:  120324623600                           ;"*#4R> "
024042:  116260711300                           ;")RPY+ "
024043:  154310653520  fsbr     6, 653520(10)   ;"-C(U=0" "\033\fFW("
024044:  360260663600  soj      5, @663600      ;">"PV> "
024045:  404740471200  and      17, 471200      ;"@G@G* "
024046:  122260611200                           ;"*2PQ* "
024047:  116724000000                           ;")W4   "
024050:  032310613260                           ;"#3(Q:P"
024051:  156740521300  fsbrm    17, 521300      ;"-W@J+ "
024052:  162241701560  fmpm     5, 701560(1)    ;".2AX-P"
024053:  126260663600                           ;"*RPV> "
024054:  114310601400                           ;")C(P, "
024055:  110304473520                           ;")#$G=0"
024056:  176041701420  fdvrm    1, 701420(1)    ;"/PAX,0"
024057:  120250441560                           ;"*"HD-P"
024060:  130344503600                           ;"+#DH> "
024061:  110324521600                           ;")#4J. "
024062:  140240611560  fad      5, 611560       ;","@Q-P"
024063:  361221704060  sojl     4, @704060(1)   ;">*1X@P"
024064:  352000000000  aose     0, 0            ;"=0    " ":@\0\0\0"
024065:  176040613600  fdvrm    1, 613600       ;"/P@Q> "
024066:  110324521600                           ;")#4J. "
024067:  140240611560  fad      5, 611560       ;","@Q-P"
024070:  360561700000  soj      13, @700000(1)  ;">%QX  "
024071:  361221704100  sojl     4, @704100(1)   ;">*1XA "
024072:  352000000000  aose     0, 0            ;"=0    " ":@\0\0\0"
024073:  176041701420  fdvrm    1, 701420(1)    ;"/PAX,0"
024074:  120250441560                           ;"*"HD-P"
024075:  130344503600                           ;"+#DH> "
024076:  112220661200                           ;")20V* "
024077:  360334623600  soj      6, @623600(14)  ;">#<R> " "<\rf'@"
024100:  110740511520                           ;")'@I-0"
024101:  110230671300                           ;")"8W+ "
024102:  144304441360  fadr     6, 441360(4)    ;",C$D+P"
024103:  360314621640  soj      6, 621640(14)   ;">#,R.@" "<\ff#P"
024104:  120325650000                           ;"*#5U  "
024105:  176064751200  fdvrm    1, @751200(4)   ;"/PT]* "
024106:  152311701560  fsbm     6, 701560(11)   ;"-3)X-P"
024107:  144740443600  fadr     17, 443600      ;",G@D> "
024110:  142240521100  fadm     5, 521100       ;",2@J) "
024111:  156260711200  fsbrm    5, @711200      ;"-RPY* "
024112:  360314621640  soj      6, 621640(14)   ;">#,R.@" "<\ff#P"
024113:  120325650000                           ;"*#5U  "
024114:  176064671440  fdvrm    1, @671440(4)   ;"/PTW,@"
024115:  144740511200  fadr     17, 511200      ;",G@I* "
024116:  164742413600  fmpr     17, 413600(2)   ;".GBA> "
024117:  510740671260  hllz     17, 671260      ;"I'@W*P"
024120:  120742533520                           ;"*'BK=0"
024121:  176064671440  fdvrm    1, @671440(4)   ;"/PTW,@"
024122:  144740601100  fadr     17, 601100      ;",G@P) "
024123:  142361705020  fadm     7, @705020(1)   ;",3QXH0"
024124:  361221701560  sojl     4, @701560(1)   ;">*1X-P"
024125:  126241705260                           ;"*RAXJP"
024126:  352000000000  aose     0, 0            ;"=0    " ":@\0\0\0"
024127:  140340661560  fad      7, 661560       ;",#@V-P"
024130:  360224503600  soj      4, @503600(4)   ;">"4H> "
024131:  130304671200                           ;"+#$W* "
024132:  124240653600                           ;"*B@U> "
024133:  400741650000  setz     17, 650000(1)   ;"@'AU  "
024134:  176111701160  fdvrm    2, 701160(11)   ;"/Q)X)P"
024135:  130324501140                           ;"+#4H)@"
024136:  156274743520  fsbrm    5, @743520(14)  ;"-R\\=0" "\033KgG("
024137:  176111705060  fdvrm    2, 705060(11)   ;"/Q)XHP"
024140:  116260651200                           ;")RPU* "
024141:  114334571700                           ;")C<O/ "
024142:  352000000000  aose     0, 0            ;"=0    " ":@\0\0\0"
024143:  176070770360  fdvrm    1, @770360(10)  ;"/PX_#P"
024144:  522724000000  hllom    16, @(4)        ;"J74   " "T] \0\0"
024145:  176070770360  fdvrm    1, @770360(10)  ;"/PX_#P"
024146:  524724000000  hrlo     16, @(4)        ;"JG4   "
024147:  176070770360  fdvrm    1, @770360(10)  ;"/PX_#P"
024150:  526724000000  hrlom    16, @(4)        ;"JW4   " "U] \0\0"
024151:  176070770360  fdvrm    1, @770360(10)  ;"/PX_#P"
024152:  522374203520  hllom    7, @203520(14)  ;"J3\0=0"
024153:  176070770360  fdvrm    1, @770360(10)  ;"/PX_#P"
024154:  524374203520  hrlo     7, @203520(14)  ;"JC\0=0"
024155:  142340601120  fadm     7, 601120       ;",3@P)0"
024156:  120325703520                           ;"*#5X=0"
024157:  044304471200  .uset    6, 471200(4)    ;"$C$G* " "\t\f$r@"
024160:  166740711100  fmprm    17, 711100      ;".W@Y) "
024161:  136340503600  idpb     7, 503600       ;"+S@H> "
024162:  662520541420  troe     12, @541420     ;"V50L,0"
024163:  116240732500                           ;")R@[5 "
024164:  270010050000  add      0, 50000(10)    ;"7 (%  "
024165:  352000000000  aose     0, 0            ;"=0    " ":@\0\0\0"
024166:  472740770500  orcbm    17, 770500      ;"G7@_% "
024167:  176114012700  fdvrm    2, 12700(14)    ;"/Q,!7 "
024170:  526550010000  hrlom    13, 10000(10)   ;"JUH!  "
024171:  310045650000  cam      1, 650000(5)    ;"9 EU  "
024172:  062220651560                           ;"&20U-P"
024173:  360374241760  soj      7, @241760(14)  ;">#\4/P"
024174:  046005345240  .status  0, 345240(5)    ;"$P%<J@" "\t@+JP"
024175:  264004003100  jsr      3100(4)         ;"6@$ 9 "
024176:  022724000000                           ;""74   "
024177:  070334501460                           ;"'#<H,P"
024200:  360374241400  soj      7, @241400(14)  ;">#\4, "
024201:  160330673600  fmp      6, @673600(10)  ;".#8W> "
024202:  154220671300  fsbr     4, @671300      ;"-B0W+ "
024203:  154244743600  fsbr     5, 743600(4)    ;"-BD\> " "\033\n'G@"
024204:  002562512640                           ;" 5RI6@"
024205:  002001440220                           ;" 0!D"0"
024206:  352000000000  aose     0, 0            ;"=0    " ":@\0\0\0"
024207:  062274501100                           ;"&2\H) "
024210:  154241701360  fsbr     5, 701360(1)    ;"-BAX+P"
024211:  130300541560                           ;"+# L-P"
024212:  360724000000  soj      16, @(4)        ;">'4   "
024213:  062274501100                           ;"&2\H) "
024214:  154241701340  fsbr     5, 701340(1)    ;"-BAX+@"
024215:  120240633600                           ;"*"@S> "
024216:  250355242640  exch     7, 242640(15)   ;"5#M46@"
024217:  002000003600                           ;" 0  > "
024220:  510742062400  hllz     17, 62400(2)    ;"I'B&4 "
024221:  166505704020  fmprm    12, 704020(5)   ;".U%X@0"
024222:  361035201660  sojl     0, @201660(15)  ;">(=0.P"
024223:  242724000000  lsh      16, @(4)        ;"474   " "(] \0\0"
024224:  044740611200  .uset    17, 611200      ;"$G@Q* "
024225:  120235701300                           ;"*"=X+ "
024226:  142234541620  fadm     4, @541620(14)  ;",2<L.0"
024227:  130234701100                           ;"+"<X) "
024230:  136742413600  idpb     17, 413600(2)   ;"+WBA> "
024231:  510740443600  hllz     17, 443600      ;"I'@D> "
024232:  526724000000  hrlom    16, @(4)        ;"JW4   " "U] \0\0"
024233:  044274571200  .uset    5, @571200(14)  ;"$B\O* "
024234:  124220573600                           ;"*B0O> "
024235:  154240673600  fsbr     5, 673600       ;"-B@W> "
024236:  144245705020  fadr     5, 705020(5)    ;",BEXH0"
024237:  176101650000  fdvrm    2, 650000(1)    ;"/Q!U  "
024240:  156311700220  fsbrm    6, 700220(11)   ;"-S)X"0"
024241:  360330541240  soj      6, @541240(10)  ;">#8L*@" "<\rEBP"
024242:  142260511300  fadm     5, @511300      ;",2PI+ "
024243:  114220611560                           ;")B0Q-P"
024244:  360234541240  soj      4, @541240(14)  ;">"<L*@" "<\teBP"
024245:  130334663520                           ;"+#<V=0"
024246:  176126513600  fdvrm    2, @513600(6)   ;"/Q6I> "
024247:  136220451200  idpb     4, @451200      ;"+R0E* "
024250:  136331701760  idpb     6, @701760(11)  ;"+S9X/P"
024251:  054724000000                           ;"%G4   "
024252:  176124611600  fdvrm    2, @611600(4)   ;"/Q4Q. "
024253:  140224501520  fad      4, @501520(4)   ;","4H-0"
024254:  154740770540  fsbr     17, 770540      ;"-G@_%@"
024255:  352000000000  aose     0, 0            ;"=0    " ":@\0\0\0"
024256:  034255650000                           ;"#BMU  "
024257:  176064611440  fdvrm    1, @611440(4)   ;"/PTQ,@"
024260:  156254541420  fsbrm    5, 541420(14)   ;"-RLL,0"
024261:  124740671440                           ;"*G@W,@"
024262:  360234623520  soj      4, @623520(14)  ;">"<R=0" "<\tf'("
024263:  176124770500  fdvrm    2, @770500(4)   ;"/Q4_% "
024264:  144245701300  fadr     5, 701300(5)    ;",BEX+ "
024265:  142234541140  fadm     4, @541140(14)  ;",2<L)@"
024266:  120331701560                           ;"*#9X-P"
024267:  144740010000  fadr     17, 10000       ;",G@!  "
024270:  352000000000  aose     0, 0            ;"=0    " ":@\0\0\0"
024271:  176124770500  fdvrm    2, @770500(4)   ;"/Q4_% "
024272:  144245701460  fadr     5, 701460(5)    ;",BEX,P"
024273:  110324441400                           ;")#4D, "
024274:  120334501520                           ;"*#<H-0"
024275:  154740671440  fsbr     17, 671440      ;"-G@W,@"
024276:  360004003520  soj      0, 3520(4)      ;"> $ =0"
024277:  044740461100  .uset    17, 461100      ;"$G@F) "
024300:  142654673600  fadm     15, 673600(14)  ;",6LW> "
024301:  352000000000  aose     0, 0            ;"=0    " ":@\0\0\0"
024302:  176134501660  fdvrm    2, @501660(14)  ;"/Q<H.P"
024303:  146324501540  fadrm    6, @501540(4)   ;",S4H-@"
024304:  154740711100  fsbr     17, 711100      ;"-G@Y) "
024305:  136340503600  idpb     7, 503600       ;"+S@H> "
024306:  506740741440  hrlm     17, 741440      ;"HW@\,@"
024307:  160325705260  fmp      6, @705260(5)   ;".#5XJP"
024310:  352000000000  aose     0, 0            ;"=0    " ":@\0\0\0"
024311:  176134601100  fdvrm    2, @601100(14)  ;"/Q<P) "
024312:  134241701440  ildb     5, 701440(1)    ;"+BAX,@"
024313:  160335701700  fmp      6, @701700(15)  ;".#=X/ "
024314:  144340653600  fadr     7, 653600       ;",C@U> "
024315:  122260501360                           ;"*2PH+P"
024316:  116331705060                           ;")S9XHP"
024317:  360334531200  soj      6, @531200(14)  ;">#<K* " "<\re2@"
024320:  361255650000  sojl     5, 650000(15)   ;">*MU  " "<*nP\0"
024321:  506742653600  hrlm     17, 653600(2)   ;"HWBU> "
024322:  352000000000  aose     0, 0            ;"=0    " ":@\0\0\0"
024323:  056340601120                           ;"%S@P)0"
024324:  120325411440                           ;"*#5A,@"
024325:  122606663600                           ;"*6&V> "
024326:  176115353600  fdvrm    2, 353600(15)   ;"/Q-=> "
024327:  000724000000                           ;" '4   "
024330:  176070770360  fdvrm    1, @770360(10)  ;"/PX_#P"
024331:  560724000000  hrro     16, @(4)        ;"N'4   "
024332:  176070770360  fdvrm    1, @770360(10)  ;"/PX_#P"
024333:  562724000000  hrrom    16, @(4)        ;"N74   " "\\] \0\0"
024334:  176124220320  fdvrm    2, @220320(4)   ;"/Q42#0"
024335:  326331701560  jumpn    6, @701560(11)  ;":S9X-P"
024336:  144740053600  fadr     17, 53600       ;",G@%> "
024337:  136240671560  idpb     5, 671560       ;"+R@W-P"
024340:  120324663600                           ;"*#4V> "
024341:  400616013600  setz     14, 13600(16)   ;"@&.!> "
024342:  116260521300                           ;")RPJ+ "
024343:  156331650000  fsbrm    6, @650000(11)  ;"-S9U  " "\033MNP\0"
024344:  140340661560  fad      7, 661560       ;",#@V-P"
024345:  360224503600  soj      4, @503600(4)   ;">"4H> "
024346:  146310661300  fadrm    6, 661300(10)   ;",S(V+ "
024347:  156260711200  fsbrm    5, @711200      ;"-RPY* "
024350:  360260611560  soj      5, @611560      ;">"PQ-P"
024351:  120250501520                           ;"*"HH-0"
024352:  360561703520  soj      13, @703520(1)  ;">%QX=0"
024353:  570740770500  hrre     17, 770500      ;"O'@_% "
024354:  176150770700  fdvrm    3, 770700(10)   ;"/QH_' "
024355:  352000000000  aose     0, 0            ;"=0    " ":@\0\0\0"
024356:  044334501400  .uset    6, @501400(14)  ;"$C<H, "
024357:  360374241760  soj      7, @241760(14)  ;">#\4/P"
024360:  064374343520                           ;"&C\<=0"
024361:  104310703600                           ;"(C(X> "
024362:  126220711200                           ;"*R0Y* "
024363:  142654673600  fadm     15, 673600(14)  ;",6LW> "
024364:  156310571160  fsbrm    6, 571160(10)   ;"-S(O)P" "\033LEr8"
024365:  360300503600  soj      6, 503600       ;"># H> "
024366:  164254441560  fmpr     5, 441560(14)   ;".BLD-P"
024367:  361341701560  sojl     7, 701560(1)    ;">+AX-P"
024370:  144740701540  fadr     17, 701540      ;",G@X-@"
024371:  120724000000                           ;"*'4   "
024372:  044654711200  .uset    15, 711200(14)  ;"$FLY* "
024373:  360324701420  soj      6, @701420(4)   ;">#4X,0"
024374:  360310701560  soj      6, 701560(10)   ;">#(X-P"
024375:  360310513600  soj      6, 513600(10)   ;">#(I> "
024376:  560740661460  hrro     17, 661460      ;"N'@V,P"
024377:  110230503520                           ;")"8H=0"
024400:  070310601200                           ;"'#(P* "
024401:  156254541420  fsbrm    5, 541420(14)   ;"-RLL,0"
024402:  124654663600                           ;"*FLV> "
024403:  164324621420  fmpr     6, @621420(4)   ;".C4R,0"
024404:  124701650000                           ;"*G!U  "
024405:  176155700720  fdvrm    3, 700720(15)   ;"/QMX'0"
024406:  152361701100  fsbm     7, @701100(1)   ;"-3QX) "
024407:  124220541420                           ;"*B0L,0"
024410:  352000000000  aose     0, 0            ;"=0    " ":@\0\0\0"
024411:  176155700700  fdvrm    3, 700700(15)   ;"/QMX' "
024412:  110361701100                           ;")#QX) "
024413:  124220541420                           ;"*B0L,0"
024414:  352000000000  aose     0, 0            ;"=0    " ":@\0\0\0"
024415:  176155701760  fdvrm    3, 701760(15)   ;"/QMX/P"
024416:  056220461140                           ;"%R0F)@"
024417:  120330663600                           ;"*#8V> "
024420:  156254503600  fsbrm    5, 503600(14)   ;"-RLH> "
024421:  560331650000  hrro     6, @650000(11)  ;"N#9U  " "\\\rNP\0"
024422:  062274501100                           ;"&2\H) "
024423:  154241701160  fsbr     5, 701160(1)    ;"-BAX)P"
024424:  130330461100                           ;"+#8F) "
024425:  152235701560  fsbm     4, @701560(15)  ;"-2=X-P"
024426:  126241705620                           ;"*RAXN0"
024427:  361005701600  sojl     0, 701600(5)    ;">(%X. "
024430:  154241701100  fsbr     5, 701100(1)    ;"-BAX) "
024431:  360304501640  soj      6, 501640(4)    ;">#$H.@"
024432:  361345701420  sojl     7, 701420(5)    ;">+EX,0"
024433:  160300451200  fmp      6, 451200       ;".# E* "
024434:  152724000000  fsbm     16, @(4)        ;"-74   "
024435:  062274501100                           ;"&2\H) "
024436:  154241701600  fsbr     5, 701600(1)    ;"-BAX. "
024437:  154241701460  fsbr     5, 701460(1)    ;"-BAX,P"
024440:  110324501420                           ;")#4H,0"
024441:  154740621520  fsbr     17, 621520      ;"-G@R-0"
024442:  360224651100  soj      4, @651100(4)   ;">"4U) " "<\t&R "
024443:  114270501560                           ;")BXH-P"
024444:  154740671440  fsbr     17, 671440      ;"-G@W,@"
024445:  360330501560  soj      6, @501560(10)  ;">#8H-P"
024446:  302310511220  caie     6, 511220(10)   ;"83(I*0"
024447:  360220601120  soj      4, @601120      ;">"0P)0"
024450:  130250701440                           ;"+"HX,@"
024451:  160331701200  fmp      6, @701200(11)  ;".#9X* "
024452:  150340441360  fsb      7, 441360       ;"-#@D+P"
024453:  154740661300  fsbr     17, 661300      ;"-G@V+ "
024454:  124304663520                           ;"*C$V=0"
024455:  176064443520  fdvrm    1, @443520(4)   ;"/PTD=0"
024456:  041000000000  .open    0, 0            ;"$(    "
024457:  341000000000  aojl     0, 0            ;"<(    " "8 \0\0\0"
024460:  241000000000  rot      0, 0            ;"4(    " "( \0\0\0"
024461:  141000000000                           ;",(    "
024462:  041000000000  .open    0, 0            ;"$(    "
024463:  341000000002  aojl     0, 2            ;"<(   ""
024464:  241000000002  rot      0, 2            ;"4(   ""
024465:  141000000002                           ;",(   ""
024466:  777777000000  conso    774, @(17)      ;"___   "
024467:  777777000000  conso    774, @(17)      ;"___   "
024470:  777777000000  conso    774, @(17)      ;"___   "
024471:  777777000000  conso    774, @(17)      ;"___   "
024472:  777777000000  conso    774, @(17)      ;"___   "
024473:  777777000000  conso    774, @(17)      ;"___   "
024474:  777777000000  conso    774, @(17)      ;"___   "
024475:  777777000000  conso    774, @(17)      ;"___   "
024476:  777777000000  conso    774, @(17)      ;"___   "
024477:  777777000000  conso    774, @(17)      ;"___   "
024500:  000000001336                           ;"    +>"
024501:  000000001340                           ;"    +@"
024502:  000000001342                           ;"    +B"
024503:  000000001344                           ;"    +D"
024504:  000000001346                           ;"    +F"
024505:  000000001350                           ;"    +H"
024506:  000000001352                           ;"    +J"
024507:  000000001354                           ;"    +L"
024510:  000000001356                           ;"    +N"
024511:  000000001360                           ;"    +P"
024512:  000000001362                           ;"    +R"
024513:  000000001364                           ;"    +T"
024514:  000000001366                           ;"    +V"
024515:  000000001370                           ;"    +X"
024516:  000000001372                           ;"    +Z"
024517:  000000001374                           ;"    +\"
024520:  000000001376                           ;"    +^"
024521:  000000001400                           ;"    , "
024522:  000000001402                           ;"    ,""
024523:  000000001404                           ;"    ,$"
024524:  000000001406                           ;"    ,&"
024525:  000000001410                           ;"    ,("
024526:  000000001412                           ;"    ,*"
024527:  000000001414                           ;"    ,,"
024530:  000000001416                           ;"    ,."
024531:  000000001420                           ;"    ,0"
024532:  000000001422                           ;"    ,2"
024533:  000000001424                           ;"    ,4"
024534:  000000001426                           ;"    ,6"
024535:  000000001430                           ;"    ,8"
024536:  000000001432                           ;"    ,:"
024537:  000000001434                           ;"    ,<"
024540:  000000001436                           ;"    ,>"
024541:  000000001440                           ;"    ,@"
024542:  000000001442                           ;"    ,B"
024543:  000000001444                           ;"    ,D"
024544:  000000001446                           ;"    ,F"
024545:  000000001450                           ;"    ,H"
024546:  000000001452                           ;"    ,J"
024547:  000000001454                           ;"    ,L"
024550:  000000001456                           ;"    ,N"
024551:  000000001460                           ;"    ,P"
024552:  000000001462                           ;"    ,R"
024553:  000000001464                           ;"    ,T"
024554:  000000001466                           ;"    ,V"
024555:  000000001470                           ;"    ,X"
024556:  000000001472                           ;"    ,Z"
024557:  000000001474                           ;"    ,\"
024560:  000000001476                           ;"    ,^"
024561:  000000001500                           ;"    - "
024562:  000000001502                           ;"    -""
024563:  000000001504                           ;"    -$"
024564:  000010000014                           ;"  (  ,"
024565:  000010000014                           ;"  (  ,"
024566:  777777000002  conso    774, @2(17)     ;"___  ""
024567:  777777000002  conso    774, @2(17)     ;"___  ""
024570:  777777000002  conso    774, @2(17)     ;"___  ""
024571:  777777000002  conso    774, @2(17)     ;"___  ""
024572:  777777000002  conso    774, @2(17)     ;"___  ""
024573:  777777000002  conso    774, @2(17)     ;"___  ""
024574:  777777000002  conso    774, @2(17)     ;"___  ""
024575:  777777000002  conso    774, @2(17)     ;"___  ""
024576:  777777000002  conso    774, @2(17)     ;"___  ""
024577:  777777000002  conso    774, @2(17)     ;"___  ""
024600:  777777000002  conso    774, @2(17)     ;"___  ""
024601:  777777000002  conso    774, @2(17)     ;"___  ""
024602:  777777000002  conso    774, @2(17)     ;"___  ""
024603:  777777000002  conso    774, @2(17)     ;"___  ""
024604:  777777000002  conso    774, @2(17)     ;"___  ""
024605:  777777000002  conso    774, @2(17)     ;"___  ""
024606:  000002000000                           ;"  "   "
024607:  000010000000                           ;"  (   "
024610:  000002000000                           ;"  "   "
024611:  000010000000                           ;"  (   "
024612:  000003000002                           ;"  #  ""
024613:  000002000000                           ;"  "   "
024614:  000010000000                           ;"  (   "
024615:  000010000002                           ;"  (  ""
024616:  000007000012                           ;"  '  *"
024617:  000007000014                           ;"  '  ,"
024620:  000007000014                           ;"  '  ,"
024621:  000007000016                           ;"  '  ."
024622:  000007000016                           ;"  '  ."
024623:  000007000020                           ;"  '  0"
024624:  000010000014                           ;"  (  ,"
024625:  000010000014                           ;"  (  ,"
024626:  000004000002                           ;"  $  ""
024627:  000004000004                           ;"  $  $"
024630:  000004000004                           ;"  $  $"
024631:  000004000006                           ;"  $  &"
024632:  000004000006                           ;"  $  &"
024633:  000010000014                           ;"  (  ,"
024634:  000010000014                           ;"  (  ,"
024635:  000010000014                           ;"  (  ,"
024636:  000010000006                           ;"  (  &"
024637:  000010000006                           ;"  (  &"
024640:  000010000014                           ;"  (  ,"
024641:  000010000010                           ;"  (  ("
024642:  000010000012                           ;"  (  *"
024643:  777777000002  conso    774, @2(17)     ;"___  ""
024644:  000010000014                           ;"  (  ,"
024645:  006001001074                           ;" P! (\"
024646:  777777000000  conso    774, @(17)      ;"___   "
024647:  000010000002                           ;"  (  ""
024650:  000010000002                           ;"  (  ""
024651:  000010000004                           ;"  (  $"
024652:  000010000006                           ;"  (  &"
024653:  000010000010                           ;"  (  ("
024654:  000010000004                           ;"  (  $"
024655:  000010000002                           ;"  (  ""
024656:  777777000000  conso    774, @(17)      ;"___   "
024657:  777777000000  conso    774, @(17)      ;"___   "
024660:  777777000000  conso    774, @(17)      ;"___   "
024661:  777777000000  conso    774, @(17)      ;"___   "
024662:  777777000000  conso    774, @(17)      ;"___   "
024663:  777777000000  conso    774, @(17)      ;"___   "
024664:  777777000000  conso    774, @(17)      ;"___   "
024665:  777777000000  conso    774, @(17)      ;"___   "
024666:  000006000010                           ;"  &  ("
024667:  000006000012                           ;"  &  *"
024670:  000005000010                           ;"  %  ("
024671:  004001000000                           ;" @!   "
024672:  004001000004                           ;" @!  $"
024673:  004001000002                           ;" @!  ""
024674:  004001000006                           ;" @!  &"
024675:  004001000010                           ;" @!  ("
024676:  004001000012                           ;" @!  *"
024677:  004001000014                           ;" @!  ,"
024700:  004001000016                           ;" @!  ."
024701:  004001000020                           ;" @!  0"
024702:  004001000022                           ;" @!  2"
024703:  004001000024                           ;" @!  4"
024704:  005001000002                           ;" H!  ""
024705:  005001000002                           ;" H!  ""
024706:  000011000000                           ;"  )   "
024707:  000011000000                           ;"  )   "
024710:  000011000002                           ;"  )  ""
024711:  000011000002                           ;"  )  ""
024712:  000011000004                           ;"  )  $"
024713:  000011000004                           ;"  )  $"
024714:  000011000006                           ;"  )  &"
024715:  000011000006                           ;"  )  &"
024716:  000011000010                           ;"  )  ("
024717:  000011000010                           ;"  )  ("
024720:  000011000012                           ;"  )  *"
024721:  000011000012                           ;"  )  *"
024722:  000011000014                           ;"  )  ,"
024723:  000011000014                           ;"  )  ,"
024724:  002011000002                           ;" 0)  ""
024725:  002011000000                           ;" 0)   "
024726:  002011000002                           ;" 0)  ""
024727:  002011000004                           ;" 0)  $"
024730:  003011000000                           ;" 8)   "
024731:  004011000002                           ;" @)  ""
024732:  004011000002                           ;" @)  ""
024733:  004011000000                           ;" @)   "
024734:  005011000000                           ;" H)   "
024735:  005011000002                           ;" H)  ""
024736:  005011000002                           ;" H)  ""
024737:  001011000002                           ;" ()  ""
024740:  001011000000                           ;" ()   "
024741:  001011000002                           ;" ()  ""
024742:  005001000000                           ;" H!   "
024743:  002011000004                           ;" 0)  $"
024744:  005001000000                           ;" H!   "
024745:  004011000000                           ;" @)   "
024746:  004001000026                           ;" @!  6"
024747:  000011000016                           ;"  )  ."
024750:  000011000016                           ;"  )  ."
024751:  000001001310                           ;"  ! +("
024752:  000001001306                           ;"  ! +&"
024753:  001011000004                           ;" ()  $"
024754:  004011000004                           ;" @)  $"
024755:  005001000004                           ;" H!  $"
024756:  001011000006                           ;" ()  &"
024757:  001011000006                           ;" ()  &"
024760:  004011000004                           ;" @)  $"
024761:  000011000020                           ;"  )  0"
024762:  000011000020                           ;"  )  0"
024763:  000011000022                           ;"  )  2"
024764:  000011000022                           ;"  )  2"
024765:  000011000024                           ;"  )  4"
024766:  004011000006                           ;" @)  &"
024767:  007001001100                           ;" X! ) "
024770:  004011000006                           ;" @)  &"
024771:  004011000010                           ;" @)  ("
024772:  000011000024                           ;"  )  4"
024773:  000000412042                           ;"   A0B"
024774:  000001000000                           ;"  !   "
024775:  000000412050                           ;"   A0H"
024776:  000001000000                           ;"  !   "
024777:  000000412054                           ;"   A0L"
025000:  000001000000                           ;"  !   "
025001:  000000412062                           ;"   A0R"
025002:  000001000000                           ;"  !   "
025003:  000000412066                           ;"   A0V"
025004:  000001000000                           ;"  !   "
025005:  000000412074                           ;"   A0\"
025006:  000002000000                           ;"  "   "
025007:  000000412102                           ;"   A1""
025010:  000001000000                           ;"  !   "
025011:  000000412106                           ;"   A1&"
025012:  000001000000                           ;"  !   "
025013:  000000412112                           ;"   A1*"
025014:  000001000000                           ;"  !   "
025015:  000000412116                           ;"   A1."
025016:  000001000000                           ;"  !   "
025017:  000000412122                           ;"   A12"
025020:  000001000000                           ;"  !   "
025021:  000000412150                           ;"   A1H"
025022:  000001000000                           ;"  !   "
025023:  000000412156                           ;"   A1N"
025024:  777777000000  conso    774, @(17)      ;"___   "
025025:  000000412160                           ;"   A1P"
025026:  777777000000  conso    774, @(17)      ;"___   "
025027:  000000412126                           ;"   A16"
025030:  777777000000  conso    774, @(17)      ;"___   "
025031:  000000412130                           ;"   A18"
025032:  777777000000  conso    774, @(17)      ;"___   "
025033:  000000000000                           ;"      "
025034:  000000000000                           ;"      "
025035:  000000000000                           ;"      "
025036:  000060000060                           ;"  P  P"
025037:  000060000060                           ;"  P  P"
025040:  000070000070                           ;"  X  X"
025041:  000070000070                           ;"  X  X"
025042:  000110000110                           ;" !( !("
025043:  000040000000                           ;"  @   "
025044:  000030000030                           ;"  8  8"
025045:  000020000020                           ;"  0  0"
025046:  000050000050                           ;"  H  H"
025047:  000050000050                           ;"  H  H"
025050:  000050000050                           ;"  H  H"
025051:  000050000050                           ;"  H  H"
025052:  000050000050                           ;"  H  H"
025053:  000050000050                           ;"  H  H"
025054:  000100000100                           ;" !  ! "
025055:  000100000100                           ;" !  ! "
025056:  000010000000                           ;"  (   "
025057:  000010000000                           ;"  (   "
025060:  000010000000                           ;"  (   "
025061:  000003000002                           ;"  #  ""
025062:  000004000020                           ;"  $  0"
025063:  000004000022                           ;"  $  2"
025064:  260000404100  pushj    0, 404100       ;"6  @A "
025065:  260000404100  pushj    0, 404100       ;"6  @A "
025066:  260000404100  pushj    0, 404100       ;"6  @A "
025067:  254000410064  jrst     410064          ;"5@ A T"
025070:  254000410064  jrst     410064          ;"5@ A T"
025071:  254000410064  jrst     410064          ;"5@ A T"
025072:  254000410064  jrst     410064          ;"5@ A T"
025073:  254000410064  jrst     410064          ;"5@ A T"
025074:  260000404100  pushj    0, 404100       ;"6  @A "
025075:  254000410076  jrst     410076          ;"5@ A ^"
025076:  254000410076  jrst     410076          ;"5@ A ^"
025077:  254000421110  jrst     421110          ;"5@ B)("
025100:  254000407622  jrst     407622          ;"5@ @^2"
025101:  254000410070  jrst     410070          ;"5@ A X"
025102:  254000410070  jrst     410070          ;"5@ A X"
025103:  254000410070  jrst     410070          ;"5@ A X"
025104:  254000410070  jrst     410070          ;"5@ A X"
025105:  260000404100  pushj    0, 404100       ;"6  @A "
025106:  260000404100  pushj    0, 404100       ;"6  @A "
025107:  260000404100  pushj    0, 404100       ;"6  @A "
025110:  316700417122  camn     16, 417122      ;"9W AY2"
025111:  260000404370  pushj    0, 404370       ;"6  @CX"
025112:  316700417124  camn     16, 417124      ;"9W AY4"
025113:  260000404370  pushj    0, 404370       ;"6  @CX"
025114:  316700417124  camn     16, 417124      ;"9W AY4"
025115:  260000404100  pushj    0, 404100       ;"6  @A "
025116:  254000407622  jrst     407622          ;"5@ @^2"
025117:  254000411640  jrst     411640          ;"5@ A.@"
025120:  254000411640  jrst     411640          ;"5@ A.@"
025121:  254000411654  jrst     411654          ;"5@ A.L"
025122:  254000411666  jrst     411666          ;"5@ A.V"
025123:  254000411666  jrst     411666          ;"5@ A.V"
025124:  254000411666  jrst     411666          ;"5@ A.V"
025125:  254000411666  jrst     411666          ;"5@ A.V"
025126:  254000411666  jrst     411666          ;"5@ A.V"
025127:  254000411710  jrst     411710          ;"5@ A/("
025130:  254000411704  jrst     411704          ;"5@ A/$"
025131:  254000411704  jrst     411704          ;"5@ A/$"
025132:  254000411720  jrst     411720          ;"5@ A/0"
025133:  254000411720  jrst     411720          ;"5@ A/0"
025134:  254000411720  jrst     411720          ;"5@ A/0"
025135:  254000411720  jrst     411720          ;"5@ A/0"
025136:  254000411720  jrst     411720          ;"5@ A/0"
025137:  254000411720  jrst     411720          ;"5@ A/0"
025140:  254000411670  jrst     411670          ;"5@ A.X"
025141:  254000411670  jrst     411670          ;"5@ A.X"
025142:  254000412002  jrst     412002          ;"5@ A0""
025143:  260000404100  pushj    0, 404100       ;"6  @A "
025144:  260000404100  pushj    0, 404100       ;"6  @A "
025145:  621040400000  tlz      1, 400000       ;"R(@@  "
025146:  260000412010  pushj    0, 412010       ;"6  A0("
025147:  260000412026  pushj    0, 412026       ;"6  A06"
025150:  260000412030  pushj    0, 412030       ;"6  A08"
025151:  260000412032  pushj    0, 412032       ;"6  A0:"
025152:  260000412036  pushj    0, 412036       ;"6  A0>"
025153:  430040001306  xor      1, 1306         ;"C @ +&"
025154:  404040000004  and      1, 4            ;"@@@  $"
025155:  434040000004  or       1, 4            ;"C@@  $"
025156:  302240000000  caie     5, 0            ;"82@   " "0J\0\0\0"
025157:  306240000000  cain     5, 0            ;"8R@   " "1J\0\0\0"
025160:  301240000000  cail     5, 0            ;"8*@   " "0*\0\0\0"
025161:  307240000000  caig     5, 0            ;"8Z@   " "1j\0\0\0"
025162:  303240000000  caile    5, 0            ;"8:@   " "0j\0\0\0"
025163:  305240000000  caige    5, 0            ;"8J@   " "1*\0\0\0"
025164:  260000412016  pushj    0, 412016       ;"6  A0."
025165:  260000421170  pushj    0, 421170       ;"6  B)X"
025166:  260000404100  pushj    0, 404100       ;"6  @A "
025167:  430040417040  xor      1, 417040       ;"C @AX@"
025170:  316040417040  camn     1, 417040       ;"9P@AX@"
025171:  400040000000  setz     1,              ;"@ @   "
025172:  254000412016  jrst     412016          ;"5@ A0."
025173:  254000405556  jrst     405556          ;"5@ @MN"
025174:  254000405576  jrst     405576          ;"5@ @M^"
025175:  254000406614  jrst     406614          ;"5@ @V,"
025176:  254000405750  jrst     405750          ;"5@ @OH"
025177:  254000407000  jrst     407000          ;"5@ @X "
025200:  254000407216  jrst     407216          ;"5@ @Z."
025201:  254000407232  jrst     407232          ;"5@ @Z:"
025202:  254000407250  jrst     407250          ;"5@ @ZH"
025203:  254000407260  jrst     407260          ;"5@ @ZP"
025204:  254000407330  jrst     407330          ;"5@ @[8"
025205:  254000407300  jrst     407300          ;"5@ @[ "
025206:  254000407306  jrst     407306          ;"5@ @[&"
025207:  254000407356  jrst     407356          ;"5@ @[N"
025210:  260000404100  pushj    0, 404100       ;"6  @A "
025211:  254000406612  jrst     406612          ;"5@ @V*"
025212:  254000407246  jrst     407246          ;"5@ @ZF"
025213:  254000416364  jrst     416364          ;"5@ AST"
025214:  254000416424  jrst     416424          ;"5@ AT4"
025215:  254000416554  jrst     416554          ;"5@ AUL"
025216:  254000416320  jrst     416320          ;"5@ AS0"
025217:  254000407572  jrst     407572          ;"5@ @]Z"
025220:  254000407606  jrst     407606          ;"5@ @^&"
025221:  376775703520  sosn     17, @703520(15) ;"?W]X=0"
025222:  376775650000  sosn     17, @650000(15) ;"?W]U  " "?_nP\0"
025223:  376771650000  sosn     17, @650000(11) ;"?WYU  " "?_NP\0"
025224:  376765650000  sosn     17, @650000(5)  ;"?WUU  " "?_.P\0"
025225:  376761650000  sosn     17, @650000(1)  ;"?WQU  "
025226:  376755650000  sosn     17, 650000(15)  ;"?WMU  " "?^nP\0"
025227:  376751650000  sosn     17, 650000(11)  ;"?WIU  " "?^NP\0"
025230:  376745650000  sosn     17, 650000(5)   ;"?WEU  " "?^.P\0"
025231:  376741650000  sosn     17, 650000(1)   ;"?WAU  "
025232:  376724000000  sosn     16, @(4)        ;"?W4   " "?] \0\0"
025233:  374724000000  sosa     16, @(4)        ;"?G4   "
025234:  372724000000  sose     16, @(4)        ;"?74   " ">] \0\0"
025235:  370724000000  sos      16, @(4)        ;"?'4   "
025236:  366724000000  sojn     16, @(4)        ;">W4   " "=] \0\0"
025237:  364724000000  soja     16, @(4)        ;">G4   "
025240:  362724000000  soje     16, @(4)        ;">74   " "<] \0\0"
025241:  360724000000  soj      16, @(4)        ;">'4   "
025242:  352000000000  aose     0, 0            ;"=0    " ":@\0\0\0"
025243:  041000421242  .open    0, 421242       ;"$( B*B"
025244:  000000000000                           ;"      "
025245:  000000000000                           ;"      "
025246:  000000000000                           ;"      "
025247:  000000000000                           ;"      "
025250:  000000000000                           ;"      "
025251:  000000000000                           ;"      "
025252:  000000000000                           ;"      "
025253:  000000000000                           ;"      "
025254:  000000000000                           ;"      "
025255:  000000000000                           ;"      "
025256:  000000000000                           ;"      "
025257:  000000000000                           ;"      "
025260:  000000000000                           ;"      "
025261:  000000000000                           ;"      "
025262:  000000000000                           ;"      "
025263:  000000000000                           ;"      "
025264:  000000000000                           ;"      "
025265:  000000000000                           ;"      "
025266:  000000000000                           ;"      "
025267:  000000000000                           ;"      "
025270:  000000000000                           ;"      "
025271:  000000000000                           ;"      "
025272:  000000000000                           ;"      "
025273:  000000000000                           ;"      "
025274:  000000000000                           ;"      "
025275:  000000000000                           ;"      "
025276:  000000000000                           ;"      "
025277:  000000000000                           ;"      "
025300:  000000000000                           ;"      "
025301:  000000000000                           ;"      "
025302:  000000000000                           ;"      "
025303:  000000000000                           ;"      "
025304:  000000000000                           ;"      "
025305:  000000000000                           ;"      "
025306:  000000000000                           ;"      "
025307:  000000000000                           ;"      "
025310:  000000000000                           ;"      "
025311:  000000000000                           ;"      "
025312:  000000000000                           ;"      "
025313:  000000000000                           ;"      "
025314:  000000000000                           ;"      "
025315:  000000000000                           ;"      "
025316:  000000000000                           ;"      "
025317:  000000000000                           ;"      "
025320:  000000000000                           ;"      "
025321:  000000000000                           ;"      "
025322:  000000000000                           ;"      "
025323:  000000000000                           ;"      "
025324:  000000000000                           ;"      "
025325:  000000000000                           ;"      "
025326:  000000000000                           ;"      "
025327:  000000000000                           ;"      "
025330:  000000000000                           ;"      "
025331:  000000000000                           ;"      "
025332:  000000000000                           ;"      "
025333:  000000000000                           ;"      "
025334:  000000000000                           ;"      "
025335:  000000000000                           ;"      "
025336:  000000000000                           ;"      "
025337:  000000000000                           ;"      "
025340:  000000000000                           ;"      "
025341:  000000000000                           ;"      "
025342:  000000000000                           ;"      "
025343:  000000000000                           ;"      "
025344:  000000000000                           ;"      "
025345:  000000000000                           ;"      "
025346:  000000000000                           ;"      "
025347:  000000000000                           ;"      "
025350:  000000000000                           ;"      "
025351:  000000000000                           ;"      "
025352:  000000000000                           ;"      "
025353:  000000000000                           ;"      "
025354:  000000000000                           ;"      "
025355:  000000000000                           ;"      "
025356:  000000000000                           ;"      "
025357:  000000000000                           ;"      "
025360:  000000000000                           ;"      "
025361:  000000000000                           ;"      "
025362:  000000000000                           ;"      "
025363:  000000000000                           ;"      "
025364:  000000000000                           ;"      "
025365:  000000000000                           ;"      "
025366:  000000000000                           ;"      "
025367:  000000000000                           ;"      "
025370:  000000000000                           ;"      "
025371:  000000000000                           ;"      "
025372:  000000000000                           ;"      "
025373:  000000000000                           ;"      "
025374:  000000000000                           ;"      "
025375:  000000000000                           ;"      "
025376:  000000000000                           ;"      "
025377:  000000000000                           ;"      "
025400:  000000000000                           ;"      "
025401:  000000000000                           ;"      "
025402:  000000000000                           ;"      "
025403:  000000000000                           ;"      "
025404:  000000000000                           ;"      "
025405:  000000000000                           ;"      "
025406:  000000000000                           ;"      "
025407:  000000000000                           ;"      "
025410:  000000000000                           ;"      "
025411:  000000000000                           ;"      "
025412:  000000000000                           ;"      "
025413:  000000000000                           ;"      "
025414:  000000000000                           ;"      "
025415:  000000000000                           ;"      "
025416:  000000000000                           ;"      "
025417:  000000000000                           ;"      "
025420:  000000000000                           ;"      "
025421:  000000000000                           ;"      "
025422:  000000000000                           ;"      "
025423:  000000000000                           ;"      "
025424:  000000000000                           ;"      "
025425:  000000000000                           ;"      "
025426:  000000000000                           ;"      "
025427:  000000000000                           ;"      "
025430:  000000000000                           ;"      "
025431:  000000000000                           ;"      "
025432:  000000000000                           ;"      "
025433:  000000000000                           ;"      "
025434:  000000000000                           ;"      "
025435:  000000000000                           ;"      "
025436:  000000000000                           ;"      "
025437:  000000000000                           ;"      "
025440:  000000000000                           ;"      "
025441:  000000000000                           ;"      "
025442:  000000000000                           ;"      "
025443:  000000000000                           ;"      "
025444:  000000000000                           ;"      "
025445:  000000000000                           ;"      "
025446:  000000000000                           ;"      "
025447:  000000000000                           ;"      "
025450:  000000000000                           ;"      "
025451:  000000000000                           ;"      "
025452:  000000000000                           ;"      "
025453:  000000000000                           ;"      "
025454:  000000000000                           ;"      "
025455:  000000000000                           ;"      "
025456:  000000000000                           ;"      "
025457:  000000000000                           ;"      "
025460:  000000000000                           ;"      "
025461:  000000000000                           ;"      "
025462:  000000000000                           ;"      "
025463:  000000000000                           ;"      "
025464:  000000000000                           ;"      "
025465:  000000000000                           ;"      "
025466:  000000000000                           ;"      "
025467:  000000000000                           ;"      "
025470:  000000000000                           ;"      "
025471:  000000000000                           ;"      "
025472:  000000000000                           ;"      "
025473:  000000000000                           ;"      "
025474:  000000000000                           ;"      "
025475:  000000000000                           ;"      "
025476:  000000000000                           ;"      "
025477:  000000000000                           ;"      "
025500:  000000000000                           ;"      "
025501:  000000000000                           ;"      "
025502:  000000000000                           ;"      "
025503:  000000000000                           ;"      "
025504:  000000000000                           ;"      "
025505:  000000000000                           ;"      "
025506:  000000000000                           ;"      "
025507:  000000000000                           ;"      "
025510:  000000000000                           ;"      "
025511:  000000000000                           ;"      "
025512:  000000000000                           ;"      "
025513:  000000000000                           ;"      "
025514:  000000000000                           ;"      "
025515:  000000000000                           ;"      "
025516:  000000000000                           ;"      "
025517:  000000000000                           ;"      "
025520:  000000000000                           ;"      "
025521:  000000000000                           ;"      "
025522:  000000000000                           ;"      "
025523:  000000000000                           ;"      "
025524:  000000000000                           ;"      "
025525:  000000000000                           ;"      "
025526:  000000000000                           ;"      "
025527:  000000000000                           ;"      "
025530:  000000000000                           ;"      "
025531:  000000000000                           ;"      "
025532:  000000000000                           ;"      "
025533:  000000000000                           ;"      "
025534:  000000000000                           ;"      "
025535:  000000000000                           ;"      "
025536:  000000000000                           ;"      "
025537:  000000000000                           ;"      "
025540:  000000000000                           ;"      "
025541:  000000000000                           ;"      "
025542:  000000000000                           ;"      "
025543:  000000000000                           ;"      "
025544:  000000000000                           ;"      "
025545:  000000000000                           ;"      "
025546:  000000000000                           ;"      "
025547:  000000000000                           ;"      "
025550:  000000000000                           ;"      "
025551:  000000000000                           ;"      "
025552:  000000000000                           ;"      "
025553:  000000000000                           ;"      "
025554:  000000000000                           ;"      "
025555:  000000000000                           ;"      "
025556:  000000000000                           ;"      "
025557:  000000000000                           ;"      "
025560:  000000000000                           ;"      "
025561:  000000000000                           ;"      "
025562:  000000000000                           ;"      "
025563:  000000000000                           ;"      "
025564:  000000000000                           ;"      "
025565:  000000000000                           ;"      "
025566:  000000000000                           ;"      "
025567:  000000000000                           ;"      "
025570:  000000000000                           ;"      "
025571:  000000000000                           ;"      "
025572:  000000000000                           ;"      "
025573:  000000000000                           ;"      "
025574:  000000000000                           ;"      "
025575:  000000000000                           ;"      "
025576:  000000000000                           ;"      "
025577:  000000000000                           ;"      "
025600:  000000000000                           ;"      "
025601:  000000000000                           ;"      "
025602:  000000000000                           ;"      "
025603:  000000000000                           ;"      "
025604:  000000000000                           ;"      "
025605:  000000000000                           ;"      "
025606:  000000000000                           ;"      "
025607:  000000000000                           ;"      "
025610:  000000000000                           ;"      "
025611:  000000000000                           ;"      "
025612:  000000000000                           ;"      "
025613:  000000000000                           ;"      "
025614:  000000000000                           ;"      "
025615:  000000000000                           ;"      "
025616:  000000000000                           ;"      "
025617:  000000000000                           ;"      "
025620:  000000000000                           ;"      "
025621:  000000000000                           ;"      "
025622:  000000000000                           ;"      "
025623:  000000000000                           ;"      "
025624:  000000000000                           ;"      "
025625:  000000000000                           ;"      "
025626:  000000000000                           ;"      "
025627:  000000000000                           ;"      "
025630:  000000000000                           ;"      "
025631:  000000000000                           ;"      "
025632:  000000000000                           ;"      "
025633:  000000000000                           ;"      "
025634:  000000000000                           ;"      "
025635:  000000000000                           ;"      "
025636:  000000000000                           ;"      "
025637:  000000000000                           ;"      "
025640:  000000000000                           ;"      "
025641:  000000000000                           ;"      "
025642:  000000000000                           ;"      "
025643:  000000000000                           ;"      "
025644:  000000000000                           ;"      "
025645:  000000000000                           ;"      "
025646:  000000000000                           ;"      "
025647:  000000000000                           ;"      "
025650:  000000000000                           ;"      "
025651:  000000000000                           ;"      "
025652:  000000000000                           ;"      "
025653:  000000000000                           ;"      "
025654:  000000000000                           ;"      "
025655:  000000000000                           ;"      "
025656:  000000000000                           ;"      "
025657:  000000000000                           ;"      "
025660:  000000000000                           ;"      "
025661:  000000000000                           ;"      "
025662:  000000000000                           ;"      "
025663:  000000000000                           ;"      "
025664:  000000000000                           ;"      "
025665:  000000000000                           ;"      "
025666:  000000000000                           ;"      "
025667:  000000000000                           ;"      "
025670:  000000000000                           ;"      "
025671:  000000000000                           ;"      "
025672:  000000000000                           ;"      "
025673:  000000000000                           ;"      "
025674:  000000000000                           ;"      "
025675:  000000000000                           ;"      "
025676:  000000000000                           ;"      "
025677:  000000000000                           ;"      "
025700:  000000000000                           ;"      "
025701:  000000000000                           ;"      "
025702:  000000000000                           ;"      "
025703:  000000000000                           ;"      "
025704:  000000000000                           ;"      "
025705:  000000000000                           ;"      "
025706:  000000000000                           ;"      "
025707:  000000000000                           ;"      "
025710:  000000000000                           ;"      "
025711:  000000000000                           ;"      "
025712:  000000000000                           ;"      "
025713:  000000000000                           ;"      "
025714:  000000000000                           ;"      "
025715:  000000000000                           ;"      "
025716:  000000000000                           ;"      "
025717:  000000000000                           ;"      "
025720:  000000000000                           ;"      "
025721:  000000000000                           ;"      "
025722:  000000000000                           ;"      "
025723:  000000000000                           ;"      "
025724:  000000000000                           ;"      "
025725:  000000000000                           ;"      "
025726:  000000000000                           ;"      "
025727:  000000000000                           ;"      "
025730:  000000000000                           ;"      "
025731:  000000000000                           ;"      "
025732:  000000000000                           ;"      "
025733:  000000000000                           ;"      "
025734:  000000000000                           ;"      "
025735:  000000000000                           ;"      "
025736:  000000000000                           ;"      "
025737:  000000000000                           ;"      "
025740:  000000000000                           ;"      "
025741:  000000000000                           ;"      "
025742:  000000000000                           ;"      "
025743:  000000000000                           ;"      "
025744:  000000000000                           ;"      "
025745:  000000000000                           ;"      "
025746:  000000000000                           ;"      "
025747:  000000000000                           ;"      "
025750:  000000000000                           ;"      "
025751:  000000000000                           ;"      "
025752:  000000000000                           ;"      "
025753:  000000000000                           ;"      "
025754:  000000000000                           ;"      "
025755:  000000000000                           ;"      "
025756:  000000000000                           ;"      "
025757:  000000000000                           ;"      "
025760:  000000000000                           ;"      "
025761:  000000000000                           ;"      "
025762:  000000000000                           ;"      "
025763:  000000000000                           ;"      "
025764:  000000000000                           ;"      "
025765:  000000000000                           ;"      "
025766:  000000000000                           ;"      "
025767:  000000000000                           ;"      "
025770:  000000000000                           ;"      "
025771:  000000000000                           ;"      "
025772:  000000000000                           ;"      "
025773:  000000000000                           ;"      "
025774:  000000000000                           ;"      "
025775:  000000000000                           ;"      "
025776:  000000000000                           ;"      "
